
./main：     文件格式 elf64-x86-64


Disassembly of section .init:

0000000000400f00 <_init>:
  400f00:	48 83 ec 08          	sub    $0x8,%rsp
  400f04:	48 8b 05 ed d0 20 00 	mov    0x20d0ed(%rip),%rax        # 60dff8 <_DYNAMIC+0x1f0>
  400f0b:	48 85 c0             	test   %rax,%rax
  400f0e:	74 05                	je     400f15 <_init+0x15>
  400f10:	e8 7b 00 00 00       	callq  400f90 <__gmon_start__@plt>
  400f15:	48 83 c4 08          	add    $0x8,%rsp
  400f19:	c3                   	retq   

Disassembly of section .plt:

0000000000400f20 <_ZSt20__throw_length_errorPKc@plt-0x10>:
  400f20:	ff 35 e2 d0 20 00    	pushq  0x20d0e2(%rip)        # 60e008 <_GLOBAL_OFFSET_TABLE_+0x8>
  400f26:	ff 25 e4 d0 20 00    	jmpq   *0x20d0e4(%rip)        # 60e010 <_GLOBAL_OFFSET_TABLE_+0x10>
  400f2c:	0f 1f 40 00          	nopl   0x0(%rax)

0000000000400f30 <_ZSt20__throw_length_errorPKc@plt>:
  400f30:	ff 25 e2 d0 20 00    	jmpq   *0x20d0e2(%rip)        # 60e018 <_GLOBAL_OFFSET_TABLE_+0x18>
  400f36:	68 00 00 00 00       	pushq  $0x0
  400f3b:	e9 e0 ff ff ff       	jmpq   400f20 <_init+0x20>

0000000000400f40 <_ZNSsC1Ev@plt>:
  400f40:	ff 25 da d0 20 00    	jmpq   *0x20d0da(%rip)        # 60e020 <_GLOBAL_OFFSET_TABLE_+0x20>
  400f46:	68 01 00 00 00       	pushq  $0x1
  400f4b:	e9 d0 ff ff ff       	jmpq   400f20 <_init+0x20>

0000000000400f50 <printf@plt>:
  400f50:	ff 25 d2 d0 20 00    	jmpq   *0x20d0d2(%rip)        # 60e028 <_GLOBAL_OFFSET_TABLE_+0x28>
  400f56:	68 02 00 00 00       	pushq  $0x2
  400f5b:	e9 c0 ff ff ff       	jmpq   400f20 <_init+0x20>

0000000000400f60 <_ZNSs5clearEv@plt>:
  400f60:	ff 25 ca d0 20 00    	jmpq   *0x20d0ca(%rip)        # 60e030 <_GLOBAL_OFFSET_TABLE_+0x30>
  400f66:	68 03 00 00 00       	pushq  $0x3
  400f6b:	e9 b0 ff ff ff       	jmpq   400f20 <_init+0x20>

0000000000400f70 <_ZNKSs6substrEmm@plt>:
  400f70:	ff 25 c2 d0 20 00    	jmpq   *0x20d0c2(%rip)        # 60e038 <_GLOBAL_OFFSET_TABLE_+0x38>
  400f76:	68 04 00 00 00       	pushq  $0x4
  400f7b:	e9 a0 ff ff ff       	jmpq   400f20 <_init+0x20>

0000000000400f80 <_ZNKSt9basic_iosIcSt11char_traitsIcEEcvPvEv@plt>:
  400f80:	ff 25 ba d0 20 00    	jmpq   *0x20d0ba(%rip)        # 60e040 <_GLOBAL_OFFSET_TABLE_+0x40>
  400f86:	68 05 00 00 00       	pushq  $0x5
  400f8b:	e9 90 ff ff ff       	jmpq   400f20 <_init+0x20>

0000000000400f90 <__gmon_start__@plt>:
  400f90:	ff 25 b2 d0 20 00    	jmpq   *0x20d0b2(%rip)        # 60e048 <_GLOBAL_OFFSET_TABLE_+0x48>
  400f96:	68 06 00 00 00       	pushq  $0x6
  400f9b:	e9 80 ff ff ff       	jmpq   400f20 <_init+0x20>

0000000000400fa0 <puts@plt>:
  400fa0:	ff 25 aa d0 20 00    	jmpq   *0x20d0aa(%rip)        # 60e050 <_GLOBAL_OFFSET_TABLE_+0x50>
  400fa6:	68 07 00 00 00       	pushq  $0x7
  400fab:	e9 70 ff ff ff       	jmpq   400f20 <_init+0x20>

0000000000400fb0 <_ZNKSs5c_strEv@plt>:
  400fb0:	ff 25 a2 d0 20 00    	jmpq   *0x20d0a2(%rip)        # 60e058 <_GLOBAL_OFFSET_TABLE_+0x58>
  400fb6:	68 08 00 00 00       	pushq  $0x8
  400fbb:	e9 60 ff ff ff       	jmpq   400f20 <_init+0x20>

0000000000400fc0 <_ZdlPv@plt>:
  400fc0:	ff 25 9a d0 20 00    	jmpq   *0x20d09a(%rip)        # 60e060 <_GLOBAL_OFFSET_TABLE_+0x60>
  400fc6:	68 09 00 00 00       	pushq  $0x9
  400fcb:	e9 50 ff ff ff       	jmpq   400f20 <_init+0x20>

0000000000400fd0 <exit@plt>:
  400fd0:	ff 25 92 d0 20 00    	jmpq   *0x20d092(%rip)        # 60e068 <_GLOBAL_OFFSET_TABLE_+0x68>
  400fd6:	68 0a 00 00 00       	pushq  $0xa
  400fdb:	e9 40 ff ff ff       	jmpq   400f20 <_init+0x20>

0000000000400fe0 <__cxa_rethrow@plt>:
  400fe0:	ff 25 8a d0 20 00    	jmpq   *0x20d08a(%rip)        # 60e070 <_GLOBAL_OFFSET_TABLE_+0x70>
  400fe6:	68 0b 00 00 00       	pushq  $0xb
  400feb:	e9 30 ff ff ff       	jmpq   400f20 <_init+0x20>

0000000000400ff0 <_ZNKSs4sizeEv@plt>:
  400ff0:	ff 25 82 d0 20 00    	jmpq   *0x20d082(%rip)        # 60e078 <_GLOBAL_OFFSET_TABLE_+0x78>
  400ff6:	68 0c 00 00 00       	pushq  $0xc
  400ffb:	e9 20 ff ff ff       	jmpq   400f20 <_init+0x20>

0000000000401000 <putchar@plt>:
  401000:	ff 25 7a d0 20 00    	jmpq   *0x20d07a(%rip)        # 60e080 <_GLOBAL_OFFSET_TABLE_+0x80>
  401006:	68 0d 00 00 00       	pushq  $0xd
  40100b:	e9 10 ff ff ff       	jmpq   400f20 <_init+0x20>

0000000000401010 <__libc_start_main@plt>:
  401010:	ff 25 72 d0 20 00    	jmpq   *0x20d072(%rip)        # 60e088 <_GLOBAL_OFFSET_TABLE_+0x88>
  401016:	68 0e 00 00 00       	pushq  $0xe
  40101b:	e9 00 ff ff ff       	jmpq   400f20 <_init+0x20>

0000000000401020 <_ZNSsC1ERKSs@plt>:
  401020:	ff 25 6a d0 20 00    	jmpq   *0x20d06a(%rip)        # 60e090 <_GLOBAL_OFFSET_TABLE_+0x90>
  401026:	68 0f 00 00 00       	pushq  $0xf
  40102b:	e9 f0 fe ff ff       	jmpq   400f20 <_init+0x20>

0000000000401030 <_ZNSsD1Ev@plt>:
  401030:	ff 25 62 d0 20 00    	jmpq   *0x20d062(%rip)        # 60e098 <_GLOBAL_OFFSET_TABLE_+0x98>
  401036:	68 10 00 00 00       	pushq  $0x10
  40103b:	e9 e0 fe ff ff       	jmpq   400f20 <_init+0x20>

0000000000401040 <_ZNSi7getlineEPclc@plt>:
  401040:	ff 25 5a d0 20 00    	jmpq   *0x20d05a(%rip)        # 60e0a0 <_GLOBAL_OFFSET_TABLE_+0xa0>
  401046:	68 11 00 00 00       	pushq  $0x11
  40104b:	e9 d0 fe ff ff       	jmpq   400f20 <_init+0x20>

0000000000401050 <_ZNSs3endEv@plt>:
  401050:	ff 25 52 d0 20 00    	jmpq   *0x20d052(%rip)        # 60e0a8 <_GLOBAL_OFFSET_TABLE_+0xa8>
  401056:	68 12 00 00 00       	pushq  $0x12
  40105b:	e9 c0 fe ff ff       	jmpq   400f20 <_init+0x20>

0000000000401060 <_ZNSt14basic_ifstreamIcSt11char_traitsIcEEC1Ev@plt>:
  401060:	ff 25 4a d0 20 00    	jmpq   *0x20d04a(%rip)        # 60e0b0 <_GLOBAL_OFFSET_TABLE_+0xb0>
  401066:	68 13 00 00 00       	pushq  $0x13
  40106b:	e9 b0 fe ff ff       	jmpq   400f20 <_init+0x20>

0000000000401070 <_ZNKSs4findEcm@plt>:
  401070:	ff 25 42 d0 20 00    	jmpq   *0x20d042(%rip)        # 60e0b8 <_GLOBAL_OFFSET_TABLE_+0xb8>
  401076:	68 14 00 00 00       	pushq  $0x14
  40107b:	e9 a0 fe ff ff       	jmpq   400f20 <_init+0x20>

0000000000401080 <_ZNSsC1EPKcRKSaIcE@plt>:
  401080:	ff 25 3a d0 20 00    	jmpq   *0x20d03a(%rip)        # 60e0c0 <_GLOBAL_OFFSET_TABLE_+0xc0>
  401086:	68 15 00 00 00       	pushq  $0x15
  40108b:	e9 90 fe ff ff       	jmpq   400f20 <_init+0x20>

0000000000401090 <_ZNSt14basic_ifstreamIcSt11char_traitsIcEED1Ev@plt>:
  401090:	ff 25 32 d0 20 00    	jmpq   *0x20d032(%rip)        # 60e0c8 <_GLOBAL_OFFSET_TABLE_+0xc8>
  401096:	68 16 00 00 00       	pushq  $0x16
  40109b:	e9 80 fe ff ff       	jmpq   400f20 <_init+0x20>

00000000004010a0 <_ZNSsixEm@plt>:
  4010a0:	ff 25 2a d0 20 00    	jmpq   *0x20d02a(%rip)        # 60e0d0 <_GLOBAL_OFFSET_TABLE_+0xd0>
  4010a6:	68 17 00 00 00       	pushq  $0x17
  4010ab:	e9 70 fe ff ff       	jmpq   400f20 <_init+0x20>

00000000004010b0 <atoi@plt>:
  4010b0:	ff 25 22 d0 20 00    	jmpq   *0x20d022(%rip)        # 60e0d8 <_GLOBAL_OFFSET_TABLE_+0xd8>
  4010b6:	68 18 00 00 00       	pushq  $0x18
  4010bb:	e9 60 fe ff ff       	jmpq   400f20 <_init+0x20>

00000000004010c0 <memmove@plt>:
  4010c0:	ff 25 1a d0 20 00    	jmpq   *0x20d01a(%rip)        # 60e0e0 <_GLOBAL_OFFSET_TABLE_+0xe0>
  4010c6:	68 19 00 00 00       	pushq  $0x19
  4010cb:	e9 50 fe ff ff       	jmpq   400f20 <_init+0x20>

00000000004010d0 <_ZNSt14basic_ifstreamIcSt11char_traitsIcEE4openEPKcSt13_Ios_Openmode@plt>:
  4010d0:	ff 25 12 d0 20 00    	jmpq   *0x20d012(%rip)        # 60e0e8 <_GLOBAL_OFFSET_TABLE_+0xe8>
  4010d6:	68 1a 00 00 00       	pushq  $0x1a
  4010db:	e9 40 fe ff ff       	jmpq   400f20 <_init+0x20>

00000000004010e0 <__stack_chk_fail@plt>:
  4010e0:	ff 25 0a d0 20 00    	jmpq   *0x20d00a(%rip)        # 60e0f0 <_GLOBAL_OFFSET_TABLE_+0xf0>
  4010e6:	68 1b 00 00 00       	pushq  $0x1b
  4010eb:	e9 30 fe ff ff       	jmpq   400f20 <_init+0x20>

00000000004010f0 <_ZNSaIcED1Ev@plt>:
  4010f0:	ff 25 02 d0 20 00    	jmpq   *0x20d002(%rip)        # 60e0f8 <_GLOBAL_OFFSET_TABLE_+0xf8>
  4010f6:	68 1c 00 00 00       	pushq  $0x1c
  4010fb:	e9 20 fe ff ff       	jmpq   400f20 <_init+0x20>

0000000000401100 <__cxa_end_catch@plt>:
  401100:	ff 25 fa cf 20 00    	jmpq   *0x20cffa(%rip)        # 60e100 <_GLOBAL_OFFSET_TABLE_+0x100>
  401106:	68 1d 00 00 00       	pushq  $0x1d
  40110b:	e9 10 fe ff ff       	jmpq   400f20 <_init+0x20>

0000000000401110 <_ZSt17__throw_bad_allocv@plt>:
  401110:	ff 25 f2 cf 20 00    	jmpq   *0x20cff2(%rip)        # 60e108 <_GLOBAL_OFFSET_TABLE_+0x108>
  401116:	68 1e 00 00 00       	pushq  $0x1e
  40111b:	e9 00 fe ff ff       	jmpq   400f20 <_init+0x20>

0000000000401120 <__cxa_begin_catch@plt>:
  401120:	ff 25 ea cf 20 00    	jmpq   *0x20cfea(%rip)        # 60e110 <_GLOBAL_OFFSET_TABLE_+0x110>
  401126:	68 1f 00 00 00       	pushq  $0x1f
  40112b:	e9 f0 fd ff ff       	jmpq   400f20 <_init+0x20>

0000000000401130 <_ZNSs9push_backEc@plt>:
  401130:	ff 25 e2 cf 20 00    	jmpq   *0x20cfe2(%rip)        # 60e118 <_GLOBAL_OFFSET_TABLE_+0x118>
  401136:	68 20 00 00 00       	pushq  $0x20
  40113b:	e9 e0 fd ff ff       	jmpq   400f20 <_init+0x20>

0000000000401140 <_ZNSaIcEC1Ev@plt>:
  401140:	ff 25 da cf 20 00    	jmpq   *0x20cfda(%rip)        # 60e120 <_GLOBAL_OFFSET_TABLE_+0x120>
  401146:	68 21 00 00 00       	pushq  $0x21
  40114b:	e9 d0 fd ff ff       	jmpq   400f20 <_init+0x20>

0000000000401150 <__gxx_personality_v0@plt>:
  401150:	ff 25 d2 cf 20 00    	jmpq   *0x20cfd2(%rip)        # 60e128 <_GLOBAL_OFFSET_TABLE_+0x128>
  401156:	68 22 00 00 00       	pushq  $0x22
  40115b:	e9 c0 fd ff ff       	jmpq   400f20 <_init+0x20>

0000000000401160 <_ZNSsC1EOSs@plt>:
  401160:	ff 25 ca cf 20 00    	jmpq   *0x20cfca(%rip)        # 60e130 <_GLOBAL_OFFSET_TABLE_+0x130>
  401166:	68 23 00 00 00       	pushq  $0x23
  40116b:	e9 b0 fd ff ff       	jmpq   400f20 <_init+0x20>

0000000000401170 <_ZNSs5beginEv@plt>:
  401170:	ff 25 c2 cf 20 00    	jmpq   *0x20cfc2(%rip)        # 60e138 <_GLOBAL_OFFSET_TABLE_+0x138>
  401176:	68 24 00 00 00       	pushq  $0x24
  40117b:	e9 a0 fd ff ff       	jmpq   400f20 <_init+0x20>

0000000000401180 <_Znwm@plt>:
  401180:	ff 25 ba cf 20 00    	jmpq   *0x20cfba(%rip)        # 60e140 <_GLOBAL_OFFSET_TABLE_+0x140>
  401186:	68 25 00 00 00       	pushq  $0x25
  40118b:	e9 90 fd ff ff       	jmpq   400f20 <_init+0x20>

0000000000401190 <_Unwind_Resume@plt>:
  401190:	ff 25 b2 cf 20 00    	jmpq   *0x20cfb2(%rip)        # 60e148 <_GLOBAL_OFFSET_TABLE_+0x148>
  401196:	68 26 00 00 00       	pushq  $0x26
  40119b:	e9 80 fd ff ff       	jmpq   400f20 <_init+0x20>

Disassembly of section .text:

00000000004011a0 <_start>:
  4011a0:	31 ed                	xor    %ebp,%ebp
  4011a2:	49 89 d1             	mov    %rdx,%r9
  4011a5:	5e                   	pop    %rsi
  4011a6:	48 89 e2             	mov    %rsp,%rdx
  4011a9:	48 83 e4 f0          	and    $0xfffffffffffffff0,%rsp
  4011ad:	50                   	push   %rax
  4011ae:	54                   	push   %rsp
  4011af:	49 c7 c0 40 95 40 00 	mov    $0x409540,%r8
  4011b6:	48 c7 c1 d0 94 40 00 	mov    $0x4094d0,%rcx
  4011bd:	48 c7 c7 84 14 40 00 	mov    $0x401484,%rdi
  4011c4:	e8 47 fe ff ff       	callq  401010 <__libc_start_main@plt>
  4011c9:	f4                   	hlt    
  4011ca:	66 0f 1f 44 00 00    	nopw   0x0(%rax,%rax,1)

00000000004011d0 <deregister_tm_clones>:
  4011d0:	b8 67 e1 60 00       	mov    $0x60e167,%eax
  4011d5:	55                   	push   %rbp
  4011d6:	48 2d 60 e1 60 00    	sub    $0x60e160,%rax
  4011dc:	48 83 f8 0e          	cmp    $0xe,%rax
  4011e0:	48 89 e5             	mov    %rsp,%rbp
  4011e3:	77 02                	ja     4011e7 <deregister_tm_clones+0x17>
  4011e5:	5d                   	pop    %rbp
  4011e6:	c3                   	retq   
  4011e7:	b8 00 00 00 00       	mov    $0x0,%eax
  4011ec:	48 85 c0             	test   %rax,%rax
  4011ef:	74 f4                	je     4011e5 <deregister_tm_clones+0x15>
  4011f1:	5d                   	pop    %rbp
  4011f2:	bf 60 e1 60 00       	mov    $0x60e160,%edi
  4011f7:	ff e0                	jmpq   *%rax
  4011f9:	0f 1f 80 00 00 00 00 	nopl   0x0(%rax)

0000000000401200 <register_tm_clones>:
  401200:	b8 60 e1 60 00       	mov    $0x60e160,%eax
  401205:	55                   	push   %rbp
  401206:	48 2d 60 e1 60 00    	sub    $0x60e160,%rax
  40120c:	48 c1 f8 03          	sar    $0x3,%rax
  401210:	48 89 e5             	mov    %rsp,%rbp
  401213:	48 89 c2             	mov    %rax,%rdx
  401216:	48 c1 ea 3f          	shr    $0x3f,%rdx
  40121a:	48 01 d0             	add    %rdx,%rax
  40121d:	48 d1 f8             	sar    %rax
  401220:	75 02                	jne    401224 <register_tm_clones+0x24>
  401222:	5d                   	pop    %rbp
  401223:	c3                   	retq   
  401224:	ba 00 00 00 00       	mov    $0x0,%edx
  401229:	48 85 d2             	test   %rdx,%rdx
  40122c:	74 f4                	je     401222 <register_tm_clones+0x22>
  40122e:	5d                   	pop    %rbp
  40122f:	48 89 c6             	mov    %rax,%rsi
  401232:	bf 60 e1 60 00       	mov    $0x60e160,%edi
  401237:	ff e2                	jmpq   *%rdx
  401239:	0f 1f 80 00 00 00 00 	nopl   0x0(%rax)

0000000000401240 <__do_global_dtors_aux>:
  401240:	80 3d 19 cf 20 00 00 	cmpb   $0x0,0x20cf19(%rip)        # 60e160 <__TMC_END__>
  401247:	75 11                	jne    40125a <__do_global_dtors_aux+0x1a>
  401249:	55                   	push   %rbp
  40124a:	48 89 e5             	mov    %rsp,%rbp
  40124d:	e8 7e ff ff ff       	callq  4011d0 <deregister_tm_clones>
  401252:	5d                   	pop    %rbp
  401253:	c6 05 06 cf 20 00 01 	movb   $0x1,0x20cf06(%rip)        # 60e160 <__TMC_END__>
  40125a:	f3 c3                	repz retq 
  40125c:	0f 1f 40 00          	nopl   0x0(%rax)

0000000000401260 <frame_dummy>:
  401260:	48 83 3d 98 cb 20 00 	cmpq   $0x0,0x20cb98(%rip)        # 60de00 <__JCR_END__>
  401267:	00 
  401268:	74 1e                	je     401288 <frame_dummy+0x28>
  40126a:	b8 00 00 00 00       	mov    $0x0,%eax
  40126f:	48 85 c0             	test   %rax,%rax
  401272:	74 14                	je     401288 <frame_dummy+0x28>
  401274:	55                   	push   %rbp
  401275:	bf 00 de 60 00       	mov    $0x60de00,%edi
  40127a:	48 89 e5             	mov    %rsp,%rbp
  40127d:	ff d0                	callq  *%rax
  40127f:	5d                   	pop    %rbp
  401280:	e9 7b ff ff ff       	jmpq   401200 <register_tm_clones>
  401285:	0f 1f 00             	nopl   (%rax)
  401288:	e9 73 ff ff ff       	jmpq   401200 <register_tm_clones>

000000000040128d <_Z5querySs>:
  40128d:	55                   	push   %rbp
  40128e:	48 89 e5             	mov    %rsp,%rbp
  401291:	53                   	push   %rbx
  401292:	48 83 ec 28          	sub    $0x28,%rsp
  401296:	48 89 7d d8          	mov    %rdi,-0x28(%rbp)
  40129a:	48 8b 55 d8          	mov    -0x28(%rbp),%rdx
  40129e:	48 8d 45 e0          	lea    -0x20(%rbp),%rax
  4012a2:	48 89 d6             	mov    %rdx,%rsi
  4012a5:	48 89 c7             	mov    %rax,%rdi
  4012a8:	e8 73 fd ff ff       	callq  401020 <_ZNSsC1ERKSs@plt>
  4012ad:	48 8b 05 b4 ce 20 00 	mov    0x20ceb4(%rip),%rax        # 60e168 <a>
  4012b4:	48 8d 55 e0          	lea    -0x20(%rbp),%rdx
  4012b8:	48 89 d6             	mov    %rdx,%rsi
  4012bb:	48 89 c7             	mov    %rax,%rdi
  4012be:	e8 2f 1f 00 00       	callq  4031f2 <_ZN6Datrie5queryESs>
  4012c3:	89 c3                	mov    %eax,%ebx
  4012c5:	48 8b 45 d8          	mov    -0x28(%rbp),%rax
  4012c9:	48 89 c7             	mov    %rax,%rdi
  4012cc:	e8 df fc ff ff       	callq  400fb0 <_ZNKSs5c_strEv@plt>
  4012d1:	89 da                	mov    %ebx,%edx
  4012d3:	48 89 c6             	mov    %rax,%rsi
  4012d6:	bf 59 95 40 00       	mov    $0x409559,%edi
  4012db:	b8 00 00 00 00       	mov    $0x0,%eax
  4012e0:	e8 6b fc ff ff       	callq  400f50 <printf@plt>
  4012e5:	48 8d 45 e0          	lea    -0x20(%rbp),%rax
  4012e9:	48 89 c7             	mov    %rax,%rdi
  4012ec:	e8 3f fd ff ff       	callq  401030 <_ZNSsD1Ev@plt>
  4012f1:	eb 1a                	jmp    40130d <_Z5querySs+0x80>
  4012f3:	48 89 c3             	mov    %rax,%rbx
  4012f6:	48 8d 45 e0          	lea    -0x20(%rbp),%rax
  4012fa:	48 89 c7             	mov    %rax,%rdi
  4012fd:	e8 2e fd ff ff       	callq  401030 <_ZNSsD1Ev@plt>
  401302:	48 89 d8             	mov    %rbx,%rax
  401305:	48 89 c7             	mov    %rax,%rdi
  401308:	e8 83 fe ff ff       	callq  401190 <_Unwind_Resume@plt>
  40130d:	48 83 c4 28          	add    $0x28,%rsp
  401311:	5b                   	pop    %rbx
  401312:	5d                   	pop    %rbp
  401313:	c3                   	retq   

0000000000401314 <_Z11quiet_querySs>:
  401314:	55                   	push   %rbp
  401315:	48 89 e5             	mov    %rsp,%rbp
  401318:	53                   	push   %rbx
  401319:	48 83 ec 28          	sub    $0x28,%rsp
  40131d:	48 89 7d d8          	mov    %rdi,-0x28(%rbp)
  401321:	48 8b 55 d8          	mov    -0x28(%rbp),%rdx
  401325:	48 8d 45 e0          	lea    -0x20(%rbp),%rax
  401329:	48 89 d6             	mov    %rdx,%rsi
  40132c:	48 89 c7             	mov    %rax,%rdi
  40132f:	e8 ec fc ff ff       	callq  401020 <_ZNSsC1ERKSs@plt>
  401334:	48 8b 05 2d ce 20 00 	mov    0x20ce2d(%rip),%rax        # 60e168 <a>
  40133b:	48 8d 55 e0          	lea    -0x20(%rbp),%rdx
  40133f:	48 89 d6             	mov    %rdx,%rsi
  401342:	48 89 c7             	mov    %rax,%rdi
  401345:	e8 a8 1e 00 00       	callq  4031f2 <_ZN6Datrie5queryESs>
  40134a:	89 c3                	mov    %eax,%ebx
  40134c:	48 8d 45 e0          	lea    -0x20(%rbp),%rax
  401350:	48 89 c7             	mov    %rax,%rdi
  401353:	e8 d8 fc ff ff       	callq  401030 <_ZNSsD1Ev@plt>
  401358:	89 d8                	mov    %ebx,%eax
  40135a:	eb 1a                	jmp    401376 <_Z11quiet_querySs+0x62>
  40135c:	48 89 c3             	mov    %rax,%rbx
  40135f:	48 8d 45 e0          	lea    -0x20(%rbp),%rax
  401363:	48 89 c7             	mov    %rax,%rdi
  401366:	e8 c5 fc ff ff       	callq  401030 <_ZNSsD1Ev@plt>
  40136b:	48 89 d8             	mov    %rbx,%rax
  40136e:	48 89 c7             	mov    %rax,%rdi
  401371:	e8 1a fe ff ff       	callq  401190 <_Unwind_Resume@plt>
  401376:	48 83 c4 28          	add    $0x28,%rsp
  40137a:	5b                   	pop    %rbx
  40137b:	5d                   	pop    %rbp
  40137c:	c3                   	retq   

000000000040137d <_Z9bin_splitSsc>:
  40137d:	55                   	push   %rbp
  40137e:	48 89 e5             	mov    %rsp,%rbp
  401381:	53                   	push   %rbx
  401382:	48 83 ec 58          	sub    $0x58,%rsp
  401386:	48 89 7d b8          	mov    %rdi,-0x48(%rbp)
  40138a:	48 89 75 b0          	mov    %rsi,-0x50(%rbp)
  40138e:	89 d0                	mov    %edx,%eax
  401390:	88 45 ac             	mov    %al,-0x54(%rbp)
  401393:	48 8b 45 b8          	mov    -0x48(%rbp),%rax
  401397:	48 89 c7             	mov    %rax,%rdi
  40139a:	e8 81 08 00 00       	callq  401c20 <_ZNSt6vectorISsSaISsEEC1Ev>
  40139f:	0f be 4d ac          	movsbl -0x54(%rbp),%ecx
  4013a3:	48 8b 45 b0          	mov    -0x50(%rbp),%rax
  4013a7:	ba 00 00 00 00       	mov    $0x0,%edx
  4013ac:	89 ce                	mov    %ecx,%esi
  4013ae:	48 89 c7             	mov    %rax,%rdi
  4013b1:	e8 ba fc ff ff       	callq  401070 <_ZNKSs4findEcm@plt>
  4013b6:	89 45 cc             	mov    %eax,-0x34(%rbp)
  4013b9:	83 7d cc ff          	cmpl   $0xffffffff,-0x34(%rbp)
  4013bd:	74 7c                	je     40143b <_Z9bin_splitSsc+0xbe>
  4013bf:	8b 45 cc             	mov    -0x34(%rbp),%eax
  4013c2:	48 63 d0             	movslq %eax,%rdx
  4013c5:	48 8d 45 d0          	lea    -0x30(%rbp),%rax
  4013c9:	48 8b 75 b0          	mov    -0x50(%rbp),%rsi
  4013cd:	48 89 d1             	mov    %rdx,%rcx
  4013d0:	ba 00 00 00 00       	mov    $0x0,%edx
  4013d5:	48 89 c7             	mov    %rax,%rdi
  4013d8:	e8 93 fb ff ff       	callq  400f70 <_ZNKSs6substrEmm@plt>
  4013dd:	48 8d 55 d0          	lea    -0x30(%rbp),%rdx
  4013e1:	48 8b 45 b8          	mov    -0x48(%rbp),%rax
  4013e5:	48 89 d6             	mov    %rdx,%rsi
  4013e8:	48 89 c7             	mov    %rax,%rdi
  4013eb:	e8 9c 08 00 00       	callq  401c8c <_ZNSt6vectorISsSaISsEE9push_backEOSs>
  4013f0:	48 8d 45 d0          	lea    -0x30(%rbp),%rax
  4013f4:	48 89 c7             	mov    %rax,%rdi
  4013f7:	e8 34 fc ff ff       	callq  401030 <_ZNSsD1Ev@plt>
  4013fc:	8b 45 cc             	mov    -0x34(%rbp),%eax
  4013ff:	83 c0 01             	add    $0x1,%eax
  401402:	48 63 d0             	movslq %eax,%rdx
  401405:	48 8d 45 e0          	lea    -0x20(%rbp),%rax
  401409:	48 8b 75 b0          	mov    -0x50(%rbp),%rsi
  40140d:	48 c7 c1 ff ff ff ff 	mov    $0xffffffffffffffff,%rcx
  401414:	48 89 c7             	mov    %rax,%rdi
  401417:	e8 54 fb ff ff       	callq  400f70 <_ZNKSs6substrEmm@plt>
  40141c:	48 8d 55 e0          	lea    -0x20(%rbp),%rdx
  401420:	48 8b 45 b8          	mov    -0x48(%rbp),%rax
  401424:	48 89 d6             	mov    %rdx,%rsi
  401427:	48 89 c7             	mov    %rax,%rdi
  40142a:	e8 5d 08 00 00       	callq  401c8c <_ZNSt6vectorISsSaISsEE9push_backEOSs>
  40142f:	48 8d 45 e0          	lea    -0x20(%rbp),%rax
  401433:	48 89 c7             	mov    %rax,%rdi
  401436:	e8 f5 fb ff ff       	callq  401030 <_ZNSsD1Ev@plt>
  40143b:	eb 3c                	jmp    401479 <_Z9bin_splitSsc+0xfc>
  40143d:	48 89 c3             	mov    %rax,%rbx
  401440:	48 8d 45 d0          	lea    -0x30(%rbp),%rax
  401444:	48 89 c7             	mov    %rax,%rdi
  401447:	e8 e4 fb ff ff       	callq  401030 <_ZNSsD1Ev@plt>
  40144c:	eb 14                	jmp    401462 <_Z9bin_splitSsc+0xe5>
  40144e:	48 89 c3             	mov    %rax,%rbx
  401451:	48 8d 45 e0          	lea    -0x20(%rbp),%rax
  401455:	48 89 c7             	mov    %rax,%rdi
  401458:	e8 d3 fb ff ff       	callq  401030 <_ZNSsD1Ev@plt>
  40145d:	eb 03                	jmp    401462 <_Z9bin_splitSsc+0xe5>
  40145f:	48 89 c3             	mov    %rax,%rbx
  401462:	48 8b 45 b8          	mov    -0x48(%rbp),%rax
  401466:	48 89 c7             	mov    %rax,%rdi
  401469:	e8 cc 07 00 00       	callq  401c3a <_ZNSt6vectorISsSaISsEED1Ev>
  40146e:	48 89 d8             	mov    %rbx,%rax
  401471:	48 89 c7             	mov    %rax,%rdi
  401474:	e8 17 fd ff ff       	callq  401190 <_Unwind_Resume@plt>
  401479:	48 8b 45 b8          	mov    -0x48(%rbp),%rax
  40147d:	48 83 c4 58          	add    $0x58,%rsp
  401481:	5b                   	pop    %rbx
  401482:	5d                   	pop    %rbp
  401483:	c3                   	retq   

0000000000401484 <main>:
  401484:	55                   	push   %rbp
  401485:	48 89 e5             	mov    %rsp,%rbp
  401488:	41 54                	push   %r12
  40148a:	53                   	push   %rbx
  40148b:	48 81 ec 60 03 00 00 	sub    $0x360,%rsp
  401492:	89 bd 9c fc ff ff    	mov    %edi,-0x364(%rbp)
  401498:	48 89 b5 90 fc ff ff 	mov    %rsi,-0x370(%rbp)
  40149f:	64 48 8b 04 25 28 00 	mov    %fs:0x28,%rax
  4014a6:	00 00 
  4014a8:	48 89 45 e8          	mov    %rax,-0x18(%rbp)
  4014ac:	31 c0                	xor    %eax,%eax
  4014ae:	83 bd 9c fc ff ff 01 	cmpl   $0x1,-0x364(%rbp)
  4014b5:	7e 4e                	jle    401505 <main+0x81>
  4014b7:	bf 80 00 00 00       	mov    $0x80,%edi
  4014bc:	e8 bf fc ff ff       	callq  401180 <_Znwm@plt>
  4014c1:	48 89 c3             	mov    %rax,%rbx
  4014c4:	48 89 df             	mov    %rbx,%rdi
  4014c7:	e8 e4 1a 00 00       	callq  402fb0 <_ZN6DatrieC1Ev>
  4014cc:	48 89 1d 95 cc 20 00 	mov    %rbx,0x20cc95(%rip)        # 60e168 <a>
  4014d3:	48 8b 05 8e cc 20 00 	mov    0x20cc8e(%rip),%rax        # 60e168 <a>
  4014da:	48 89 c7             	mov    %rax,%rdi
  4014dd:	e8 e0 18 00 00       	callq  402dc2 <_ZN6Datrie14display_remainEv>
  4014e2:	48 8b 05 7f cc 20 00 	mov    0x20cc7f(%rip),%rax        # 60e168 <a>
  4014e9:	48 89 c7             	mov    %rax,%rdi
  4014ec:	e8 d1 18 00 00       	callq  402dc2 <_ZN6Datrie14display_remainEv>
  4014f1:	48 8b 05 70 cc 20 00 	mov    0x20cc70(%rip),%rax        # 60e168 <a>
  4014f8:	48 89 c7             	mov    %rax,%rdi
  4014fb:	e8 c2 18 00 00       	callq  402dc2 <_ZN6Datrie14display_remainEv>
  401500:	e9 5a 05 00 00       	jmpq   401a5f <main+0x5db>
  401505:	48 8d 85 e0 fd ff ff 	lea    -0x220(%rbp),%rax
  40150c:	48 89 c7             	mov    %rax,%rdi
  40150f:	e8 4c fb ff ff       	callq  401060 <_ZNSt14basic_ifstreamIcSt11char_traitsIcEEC1Ev@plt>
  401514:	48 8d 85 40 fd ff ff 	lea    -0x2c0(%rbp),%rax
  40151b:	48 89 c7             	mov    %rax,%rdi
  40151e:	e8 1d fc ff ff       	callq  401140 <_ZNSaIcEC1Ev@plt>
  401523:	48 8d 95 40 fd ff ff 	lea    -0x2c0(%rbp),%rdx
  40152a:	48 8d 85 b0 fc ff ff 	lea    -0x350(%rbp),%rax
  401531:	be 64 95 40 00       	mov    $0x409564,%esi
  401536:	48 89 c7             	mov    %rax,%rdi
  401539:	e8 42 fb ff ff       	callq  401080 <_ZNSsC1EPKcRKSaIcE@plt>
  40153e:	48 8d 85 40 fd ff ff 	lea    -0x2c0(%rbp),%rax
  401545:	48 89 c7             	mov    %rax,%rdi
  401548:	e8 a3 fb ff ff       	callq  4010f0 <_ZNSaIcED1Ev@plt>
  40154d:	48 8d 85 b0 fc ff ff 	lea    -0x350(%rbp),%rax
  401554:	48 89 c7             	mov    %rax,%rdi
  401557:	e8 54 fa ff ff       	callq  400fb0 <_ZNKSs5c_strEv@plt>
  40155c:	48 89 c1             	mov    %rax,%rcx
  40155f:	48 8d 85 e0 fd ff ff 	lea    -0x220(%rbp),%rax
  401566:	ba 08 00 00 00       	mov    $0x8,%edx
  40156b:	48 89 ce             	mov    %rcx,%rsi
  40156e:	48 89 c7             	mov    %rax,%rdi
  401571:	e8 5a fb ff ff       	callq  4010d0 <_ZNSt14basic_ifstreamIcSt11char_traitsIcEE4openEPKcSt13_Ios_Openmode@plt>
  401576:	48 8d 85 20 fd ff ff 	lea    -0x2e0(%rbp),%rax
  40157d:	48 89 c7             	mov    %rax,%rdi
  401580:	e8 9b 06 00 00       	callq  401c20 <_ZNSt6vectorISsSaISsEEC1Ev>
  401585:	bf 80 00 00 00       	mov    $0x80,%edi
  40158a:	e8 f1 fb ff ff       	callq  401180 <_Znwm@plt>
  40158f:	48 89 c3             	mov    %rax,%rbx
  401592:	48 89 df             	mov    %rbx,%rdi
  401595:	e8 16 1a 00 00       	callq  402fb0 <_ZN6DatrieC1Ev>
  40159a:	48 89 1d c7 cb 20 00 	mov    %rbx,0x20cbc7(%rip)        # 60e168 <a>
  4015a1:	c7 85 a8 fc ff ff 00 	movl   $0x0,-0x358(%rbp)
  4015a8:	00 00 00 
  4015ab:	c7 85 ac fc ff ff 00 	movl   $0x0,-0x354(%rbp)
  4015b2:	00 00 00 
  4015b5:	e9 e3 01 00 00       	jmpq   40179d <main+0x319>
  4015ba:	48 8d 85 40 fd ff ff 	lea    -0x2c0(%rbp),%rax
  4015c1:	48 89 c7             	mov    %rax,%rdi
  4015c4:	e8 77 fb ff ff       	callq  401140 <_ZNSaIcEC1Ev@plt>
  4015c9:	48 8d 95 40 fd ff ff 	lea    -0x2c0(%rbp),%rdx
  4015d0:	48 8d 8d 60 fd ff ff 	lea    -0x2a0(%rbp),%rcx
  4015d7:	48 8d 85 10 fd ff ff 	lea    -0x2f0(%rbp),%rax
  4015de:	48 89 ce             	mov    %rcx,%rsi
  4015e1:	48 89 c7             	mov    %rax,%rdi
  4015e4:	e8 97 fa ff ff       	callq  401080 <_ZNSsC1EPKcRKSaIcE@plt>
  4015e9:	48 8d 85 40 fd ff ff 	lea    -0x2c0(%rbp),%rax
  4015f0:	48 89 c7             	mov    %rax,%rdi
  4015f3:	e8 f8 fa ff ff       	callq  4010f0 <_ZNSaIcED1Ev@plt>
  4015f8:	48 8d 95 10 fd ff ff 	lea    -0x2f0(%rbp),%rdx
  4015ff:	48 8d 85 e0 fc ff ff 	lea    -0x320(%rbp),%rax
  401606:	48 89 d6             	mov    %rdx,%rsi
  401609:	48 89 c7             	mov    %rax,%rdi
  40160c:	e8 0f fa ff ff       	callq  401020 <_ZNSsC1ERKSs@plt>
  401611:	48 8d 85 40 fd ff ff 	lea    -0x2c0(%rbp),%rax
  401618:	48 8d 8d e0 fc ff ff 	lea    -0x320(%rbp),%rcx
  40161f:	ba 20 00 00 00       	mov    $0x20,%edx
  401624:	48 89 ce             	mov    %rcx,%rsi
  401627:	48 89 c7             	mov    %rax,%rdi
  40162a:	e8 4e fd ff ff       	callq  40137d <_Z9bin_splitSsc>
  40162f:	48 8d 85 e0 fc ff ff 	lea    -0x320(%rbp),%rax
  401636:	48 89 c7             	mov    %rax,%rdi
  401639:	e8 f2 f9 ff ff       	callq  401030 <_ZNSsD1Ev@plt>
  40163e:	48 8d 85 40 fd ff ff 	lea    -0x2c0(%rbp),%rax
  401645:	48 89 c7             	mov    %rax,%rdi
  401648:	e8 6f 06 00 00       	callq  401cbc <_ZNKSt6vectorISsSaISsEE4sizeEv>
  40164d:	48 83 f8 02          	cmp    $0x2,%rax
  401651:	0f 94 c0             	sete   %al
  401654:	84 c0                	test   %al,%al
  401656:	0f 84 ec 00 00 00    	je     401748 <main+0x2c4>
  40165c:	83 85 a8 fc ff ff 01 	addl   $0x1,-0x358(%rbp)
  401663:	8b 85 a8 fc ff ff    	mov    -0x358(%rbp),%eax
  401669:	89 c6                	mov    %eax,%esi
  40166b:	bf 6a 95 40 00       	mov    $0x40956a,%edi
  401670:	b8 00 00 00 00       	mov    $0x0,%eax
  401675:	e8 d6 f8 ff ff       	callq  400f50 <printf@plt>
  40167a:	48 8d 85 40 fd ff ff 	lea    -0x2c0(%rbp),%rax
  401681:	be 01 00 00 00       	mov    $0x1,%esi
  401686:	48 89 c7             	mov    %rax,%rdi
  401689:	e8 54 06 00 00       	callq  401ce2 <_ZNSt6vectorISsSaISsEEixEm>
  40168e:	48 89 c7             	mov    %rax,%rdi
  401691:	e8 1a f9 ff ff       	callq  400fb0 <_ZNKSs5c_strEv@plt>
  401696:	48 89 c7             	mov    %rax,%rdi
  401699:	e8 12 fa ff ff       	callq  4010b0 <atoi@plt>
  40169e:	89 c3                	mov    %eax,%ebx
  4016a0:	48 8d 85 00 fd ff ff 	lea    -0x300(%rbp),%rax
  4016a7:	48 89 c7             	mov    %rax,%rdi
  4016aa:	e8 91 fa ff ff       	callq  401140 <_ZNSaIcEC1Ev@plt>
  4016af:	48 8d 85 40 fd ff ff 	lea    -0x2c0(%rbp),%rax
  4016b6:	be 00 00 00 00       	mov    $0x0,%esi
  4016bb:	48 89 c7             	mov    %rax,%rdi
  4016be:	e8 1f 06 00 00       	callq  401ce2 <_ZNSt6vectorISsSaISsEEixEm>
  4016c3:	48 89 c7             	mov    %rax,%rdi
  4016c6:	e8 e5 f8 ff ff       	callq  400fb0 <_ZNKSs5c_strEv@plt>
  4016cb:	48 89 c1             	mov    %rax,%rcx
  4016ce:	48 8d 95 00 fd ff ff 	lea    -0x300(%rbp),%rdx
  4016d5:	48 8d 85 f0 fc ff ff 	lea    -0x310(%rbp),%rax
  4016dc:	48 89 ce             	mov    %rcx,%rsi
  4016df:	48 89 c7             	mov    %rax,%rdi
  4016e2:	e8 99 f9 ff ff       	callq  401080 <_ZNSsC1EPKcRKSaIcE@plt>
  4016e7:	48 8b 05 7a ca 20 00 	mov    0x20ca7a(%rip),%rax        # 60e168 <a>
  4016ee:	48 8d 8d f0 fc ff ff 	lea    -0x310(%rbp),%rcx
  4016f5:	89 da                	mov    %ebx,%edx
  4016f7:	48 89 ce             	mov    %rcx,%rsi
  4016fa:	48 89 c7             	mov    %rax,%rdi
  4016fd:	e8 f0 1b 00 00       	callq  4032f2 <_ZN6Datrie6insertESsi>
  401702:	48 8d 85 f0 fc ff ff 	lea    -0x310(%rbp),%rax
  401709:	48 89 c7             	mov    %rax,%rdi
  40170c:	e8 1f f9 ff ff       	callq  401030 <_ZNSsD1Ev@plt>
  401711:	48 8d 85 00 fd ff ff 	lea    -0x300(%rbp),%rax
  401718:	48 89 c7             	mov    %rax,%rdi
  40171b:	e8 d0 f9 ff ff       	callq  4010f0 <_ZNSaIcED1Ev@plt>
  401720:	48 8d 95 10 fd ff ff 	lea    -0x2f0(%rbp),%rdx
  401727:	48 8d 85 20 fd ff ff 	lea    -0x2e0(%rbp),%rax
  40172e:	48 89 d6             	mov    %rdx,%rsi
  401731:	48 89 c7             	mov    %rax,%rdi
  401734:	e8 d7 05 00 00       	callq  401d10 <_ZNSt6vectorISsSaISsEE9push_backERKSs>
  401739:	48 8b 05 28 ca 20 00 	mov    0x20ca28(%rip),%rax        # 60e168 <a>
  401740:	48 89 c7             	mov    %rax,%rdi
  401743:	e8 18 17 00 00       	callq  402e60 <_ZN6Datrie12display_usedEv>
  401748:	83 bd a8 fc ff ff 0a 	cmpl   $0xa,-0x358(%rbp)
  40174f:	75 11                	jne    401762 <main+0x2de>
  401751:	bf 71 95 40 00       	mov    $0x409571,%edi
  401756:	e8 45 f8 ff ff       	callq  400fa0 <puts@plt>
  40175b:	bb 00 00 00 00       	mov    $0x0,%ebx
  401760:	eb 05                	jmp    401767 <main+0x2e3>
  401762:	bb 01 00 00 00       	mov    $0x1,%ebx
  401767:	48 8d 85 40 fd ff ff 	lea    -0x2c0(%rbp),%rax
  40176e:	48 89 c7             	mov    %rax,%rdi
  401771:	e8 c4 04 00 00       	callq  401c3a <_ZNSt6vectorISsSaISsEED1Ev>
  401776:	83 fb 01             	cmp    $0x1,%ebx
  401779:	74 07                	je     401782 <main+0x2fe>
  40177b:	bb 00 00 00 00       	mov    $0x0,%ebx
  401780:	eb 06                	jmp    401788 <main+0x304>
  401782:	90                   	nop
  401783:	bb 01 00 00 00       	mov    $0x1,%ebx
  401788:	48 8d 85 10 fd ff ff 	lea    -0x2f0(%rbp),%rax
  40178f:	48 89 c7             	mov    %rax,%rdi
  401792:	e8 99 f8 ff ff       	callq  401030 <_ZNSsD1Ev@plt>
  401797:	83 fb 01             	cmp    $0x1,%ebx
  40179a:	75 44                	jne    4017e0 <main+0x35c>
  40179c:	90                   	nop
  40179d:	48 8d b5 60 fd ff ff 	lea    -0x2a0(%rbp),%rsi
  4017a4:	48 8d 85 e0 fd ff ff 	lea    -0x220(%rbp),%rax
  4017ab:	b9 0a 00 00 00       	mov    $0xa,%ecx
  4017b0:	ba 80 00 00 00       	mov    $0x80,%edx
  4017b5:	48 89 c7             	mov    %rax,%rdi
  4017b8:	e8 83 f8 ff ff       	callq  401040 <_ZNSi7getlineEPclc@plt>
  4017bd:	48 8b 10             	mov    (%rax),%rdx
  4017c0:	48 83 ea 18          	sub    $0x18,%rdx
  4017c4:	48 8b 12             	mov    (%rdx),%rdx
  4017c7:	48 01 d0             	add    %rdx,%rax
  4017ca:	48 89 c7             	mov    %rax,%rdi
  4017cd:	e8 ae f7 ff ff       	callq  400f80 <_ZNKSt9basic_iosIcSt11char_traitsIcEEcvPvEv@plt>
  4017d2:	48 85 c0             	test   %rax,%rax
  4017d5:	0f 95 c0             	setne  %al
  4017d8:	84 c0                	test   %al,%al
  4017da:	0f 85 da fd ff ff    	jne    4015ba <main+0x136>
  4017e0:	bf 7a 95 40 00       	mov    $0x40957a,%edi
  4017e5:	e8 b6 f7 ff ff       	callq  400fa0 <puts@plt>
  4017ea:	48 8b 05 77 c9 20 00 	mov    0x20c977(%rip),%rax        # 60e168 <a>
  4017f1:	be 10 27 00 00       	mov    $0x2710,%esi
  4017f6:	48 89 c7             	mov    %rax,%rdi
  4017f9:	e8 0a 15 00 00       	callq  402d08 <_ZN6Datrie7displayEi>
  4017fe:	bf 7d 95 40 00       	mov    $0x40957d,%edi
  401803:	e8 98 f7 ff ff       	callq  400fa0 <puts@plt>
  401808:	48 8d 85 20 fd ff ff 	lea    -0x2e0(%rbp),%rax
  40180f:	48 89 85 18 fd ff ff 	mov    %rax,-0x2e8(%rbp)
  401816:	48 8b 85 18 fd ff ff 	mov    -0x2e8(%rbp),%rax
  40181d:	48 89 c7             	mov    %rax,%rdi
  401820:	e8 57 05 00 00       	callq  401d7c <_ZNSt6vectorISsSaISsEE5beginEv>
  401825:	48 89 85 d0 fc ff ff 	mov    %rax,-0x330(%rbp)
  40182c:	48 8b 85 18 fd ff ff 	mov    -0x2e8(%rbp),%rax
  401833:	48 89 c7             	mov    %rax,%rdi
  401836:	e8 67 05 00 00       	callq  401da2 <_ZNSt6vectorISsSaISsEE3endEv>
  40183b:	48 89 85 e0 fc ff ff 	mov    %rax,-0x320(%rbp)
  401842:	e9 ad 01 00 00       	jmpq   4019f4 <main+0x570>
  401847:	48 8d 85 d0 fc ff ff 	lea    -0x330(%rbp),%rax
  40184e:	48 89 c7             	mov    %rax,%rdi
  401851:	e8 d2 05 00 00       	callq  401e28 <_ZNK9__gnu_cxx17__normal_iteratorIPSsSt6vectorISsSaISsEEEdeEv>
  401856:	48 89 c2             	mov    %rax,%rdx
  401859:	48 8d 85 c0 fc ff ff 	lea    -0x340(%rbp),%rax
  401860:	48 89 d6             	mov    %rdx,%rsi
  401863:	48 89 c7             	mov    %rax,%rdi
  401866:	e8 b5 f7 ff ff       	callq  401020 <_ZNSsC1ERKSs@plt>
  40186b:	48 8d 95 c0 fc ff ff 	lea    -0x340(%rbp),%rdx
  401872:	48 8d 85 f0 fc ff ff 	lea    -0x310(%rbp),%rax
  401879:	48 89 d6             	mov    %rdx,%rsi
  40187c:	48 89 c7             	mov    %rax,%rdi
  40187f:	e8 9c f7 ff ff       	callq  401020 <_ZNSsC1ERKSs@plt>
  401884:	48 8d 95 f0 fc ff ff 	lea    -0x310(%rbp),%rdx
  40188b:	48 8d 85 00 fd ff ff 	lea    -0x300(%rbp),%rax
  401892:	48 89 d6             	mov    %rdx,%rsi
  401895:	48 89 c7             	mov    %rax,%rdi
  401898:	e8 83 f7 ff ff       	callq  401020 <_ZNSsC1ERKSs@plt>
  40189d:	48 8d 85 40 fd ff ff 	lea    -0x2c0(%rbp),%rax
  4018a4:	48 8d 8d 00 fd ff ff 	lea    -0x300(%rbp),%rcx
  4018ab:	ba 20 00 00 00       	mov    $0x20,%edx
  4018b0:	48 89 ce             	mov    %rcx,%rsi
  4018b3:	48 89 c7             	mov    %rax,%rdi
  4018b6:	e8 c2 fa ff ff       	callq  40137d <_Z9bin_splitSsc>
  4018bb:	48 8d 85 00 fd ff ff 	lea    -0x300(%rbp),%rax
  4018c2:	48 89 c7             	mov    %rax,%rdi
  4018c5:	e8 66 f7 ff ff       	callq  401030 <_ZNSsD1Ev@plt>
  4018ca:	48 8d 85 40 fd ff ff 	lea    -0x2c0(%rbp),%rax
  4018d1:	48 89 c7             	mov    %rax,%rdi
  4018d4:	e8 e3 03 00 00       	callq  401cbc <_ZNKSt6vectorISsSaISsEE4sizeEv>
  4018d9:	48 83 f8 02          	cmp    $0x2,%rax
  4018dd:	0f 94 c0             	sete   %al
  4018e0:	84 c0                	test   %al,%al
  4018e2:	0f 84 d0 00 00 00    	je     4019b8 <main+0x534>
  4018e8:	48 8d 85 00 fd ff ff 	lea    -0x300(%rbp),%rax
  4018ef:	48 89 c7             	mov    %rax,%rdi
  4018f2:	e8 49 f8 ff ff       	callq  401140 <_ZNSaIcEC1Ev@plt>
  4018f7:	48 8d 85 40 fd ff ff 	lea    -0x2c0(%rbp),%rax
  4018fe:	be 00 00 00 00       	mov    $0x0,%esi
  401903:	48 89 c7             	mov    %rax,%rdi
  401906:	e8 d7 03 00 00       	callq  401ce2 <_ZNSt6vectorISsSaISsEEixEm>
  40190b:	48 89 c7             	mov    %rax,%rdi
  40190e:	e8 9d f6 ff ff       	callq  400fb0 <_ZNKSs5c_strEv@plt>
  401913:	48 89 c1             	mov    %rax,%rcx
  401916:	48 8d 95 00 fd ff ff 	lea    -0x300(%rbp),%rdx
  40191d:	48 8d 85 10 fd ff ff 	lea    -0x2f0(%rbp),%rax
  401924:	48 89 ce             	mov    %rcx,%rsi
  401927:	48 89 c7             	mov    %rax,%rdi
  40192a:	e8 51 f7 ff ff       	callq  401080 <_ZNSsC1EPKcRKSaIcE@plt>
  40192f:	48 8d 85 10 fd ff ff 	lea    -0x2f0(%rbp),%rax
  401936:	48 89 c7             	mov    %rax,%rdi
  401939:	e8 d6 f9 ff ff       	callq  401314 <_Z11quiet_querySs>
  40193e:	89 c3                	mov    %eax,%ebx
  401940:	48 8d 85 40 fd ff ff 	lea    -0x2c0(%rbp),%rax
  401947:	be 01 00 00 00       	mov    $0x1,%esi
  40194c:	48 89 c7             	mov    %rax,%rdi
  40194f:	e8 8e 03 00 00       	callq  401ce2 <_ZNSt6vectorISsSaISsEEixEm>
  401954:	48 89 c7             	mov    %rax,%rdi
  401957:	e8 54 f6 ff ff       	callq  400fb0 <_ZNKSs5c_strEv@plt>
  40195c:	48 89 c7             	mov    %rax,%rdi
  40195f:	e8 4c f7 ff ff       	callq  4010b0 <atoi@plt>
  401964:	39 c3                	cmp    %eax,%ebx
  401966:	0f 94 c3             	sete   %bl
  401969:	48 8d 85 10 fd ff ff 	lea    -0x2f0(%rbp),%rax
  401970:	48 89 c7             	mov    %rax,%rdi
  401973:	e8 b8 f6 ff ff       	callq  401030 <_ZNSsD1Ev@plt>
  401978:	48 8d 85 00 fd ff ff 	lea    -0x300(%rbp),%rax
  40197f:	48 89 c7             	mov    %rax,%rdi
  401982:	e8 69 f7 ff ff       	callq  4010f0 <_ZNSaIcED1Ev@plt>
  401987:	84 db                	test   %bl,%bl
  401989:	74 09                	je     401994 <main+0x510>
  40198b:	83 85 ac fc ff ff 01 	addl   $0x1,-0x354(%rbp)
  401992:	eb 24                	jmp    4019b8 <main+0x534>
  401994:	48 8d 85 40 fd ff ff 	lea    -0x2c0(%rbp),%rax
  40199b:	be 00 00 00 00       	mov    $0x0,%esi
  4019a0:	48 89 c7             	mov    %rax,%rdi
  4019a3:	e8 3a 03 00 00       	callq  401ce2 <_ZNSt6vectorISsSaISsEEixEm>
  4019a8:	48 89 c7             	mov    %rax,%rdi
  4019ab:	e8 00 f6 ff ff       	callq  400fb0 <_ZNKSs5c_strEv@plt>
  4019b0:	48 89 c7             	mov    %rax,%rdi
  4019b3:	e8 e8 f5 ff ff       	callq  400fa0 <puts@plt>
  4019b8:	48 8d 85 40 fd ff ff 	lea    -0x2c0(%rbp),%rax
  4019bf:	48 89 c7             	mov    %rax,%rdi
  4019c2:	e8 73 02 00 00       	callq  401c3a <_ZNSt6vectorISsSaISsEED1Ev>
  4019c7:	48 8d 85 f0 fc ff ff 	lea    -0x310(%rbp),%rax
  4019ce:	48 89 c7             	mov    %rax,%rdi
  4019d1:	e8 5a f6 ff ff       	callq  401030 <_ZNSsD1Ev@plt>
  4019d6:	48 8d 85 c0 fc ff ff 	lea    -0x340(%rbp),%rax
  4019dd:	48 89 c7             	mov    %rax,%rdi
  4019e0:	e8 4b f6 ff ff       	callq  401030 <_ZNSsD1Ev@plt>
  4019e5:	48 8d 85 d0 fc ff ff 	lea    -0x330(%rbp),%rax
  4019ec:	48 89 c7             	mov    %rax,%rdi
  4019ef:	e8 14 04 00 00       	callq  401e08 <_ZN9__gnu_cxx17__normal_iteratorIPSsSt6vectorISsSaISsEEEppEv>
  4019f4:	48 8d 95 e0 fc ff ff 	lea    -0x320(%rbp),%rdx
  4019fb:	48 8d 85 d0 fc ff ff 	lea    -0x330(%rbp),%rax
  401a02:	48 89 d6             	mov    %rdx,%rsi
  401a05:	48 89 c7             	mov    %rax,%rdi
  401a08:	e8 be 03 00 00       	callq  401dcb <_ZN9__gnu_cxxneIPSsSt6vectorISsSaISsEEEEbRKNS_17__normal_iteratorIT_T0_EESA_>
  401a0d:	84 c0                	test   %al,%al
  401a0f:	0f 85 32 fe ff ff    	jne    401847 <main+0x3c3>
  401a15:	8b 95 a8 fc ff ff    	mov    -0x358(%rbp),%edx
  401a1b:	8b 85 ac fc ff ff    	mov    -0x354(%rbp),%eax
  401a21:	89 c6                	mov    %eax,%esi
  401a23:	bf 83 95 40 00       	mov    $0x409583,%edi
  401a28:	b8 00 00 00 00       	mov    $0x0,%eax
  401a2d:	e8 1e f5 ff ff       	callq  400f50 <printf@plt>
  401a32:	48 8d 85 20 fd ff ff 	lea    -0x2e0(%rbp),%rax
  401a39:	48 89 c7             	mov    %rax,%rdi
  401a3c:	e8 f9 01 00 00       	callq  401c3a <_ZNSt6vectorISsSaISsEED1Ev>
  401a41:	48 8d 85 b0 fc ff ff 	lea    -0x350(%rbp),%rax
  401a48:	48 89 c7             	mov    %rax,%rdi
  401a4b:	e8 e0 f5 ff ff       	callq  401030 <_ZNSsD1Ev@plt>
  401a50:	48 8d 85 e0 fd ff ff 	lea    -0x220(%rbp),%rax
  401a57:	48 89 c7             	mov    %rax,%rdi
  401a5a:	e8 31 f6 ff ff       	callq  401090 <_ZNSt14basic_ifstreamIcSt11char_traitsIcEED1Ev@plt>
  401a5f:	b8 00 00 00 00       	mov    $0x0,%eax
  401a64:	48 8b 4d e8          	mov    -0x18(%rbp),%rcx
  401a68:	64 48 33 0c 25 28 00 	xor    %fs:0x28,%rcx
  401a6f:	00 00 
  401a71:	0f 84 7d 01 00 00    	je     401bf4 <main+0x770>
  401a77:	e9 73 01 00 00       	jmpq   401bef <main+0x76b>
  401a7c:	49 89 c4             	mov    %rax,%r12
  401a7f:	48 89 df             	mov    %rbx,%rdi
  401a82:	e8 39 f5 ff ff       	callq  400fc0 <_ZdlPv@plt>
  401a87:	4c 89 e0             	mov    %r12,%rax
  401a8a:	48 89 c7             	mov    %rax,%rdi
  401a8d:	e8 fe f6 ff ff       	callq  401190 <_Unwind_Resume@plt>
  401a92:	48 89 c3             	mov    %rax,%rbx
  401a95:	48 8d 85 40 fd ff ff 	lea    -0x2c0(%rbp),%rax
  401a9c:	48 89 c7             	mov    %rax,%rdi
  401a9f:	e8 4c f6 ff ff       	callq  4010f0 <_ZNSaIcED1Ev@plt>
  401aa4:	e9 2c 01 00 00       	jmpq   401bd5 <main+0x751>
  401aa9:	49 89 c4             	mov    %rax,%r12
  401aac:	48 89 df             	mov    %rbx,%rdi
  401aaf:	e8 0c f5 ff ff       	callq  400fc0 <_ZdlPv@plt>
  401ab4:	4c 89 e3             	mov    %r12,%rbx
  401ab7:	e9 f6 00 00 00       	jmpq   401bb2 <main+0x72e>
  401abc:	48 89 c3             	mov    %rax,%rbx
  401abf:	48 8d 85 40 fd ff ff 	lea    -0x2c0(%rbp),%rax
  401ac6:	48 89 c7             	mov    %rax,%rdi
  401ac9:	e8 22 f6 ff ff       	callq  4010f0 <_ZNSaIcED1Ev@plt>
  401ace:	e9 df 00 00 00       	jmpq   401bb2 <main+0x72e>
  401ad3:	48 89 c3             	mov    %rax,%rbx
  401ad6:	48 8d 85 e0 fc ff ff 	lea    -0x320(%rbp),%rax
  401add:	48 89 c7             	mov    %rax,%rdi
  401ae0:	e8 4b f5 ff ff       	callq  401030 <_ZNSsD1Ev@plt>
  401ae5:	eb 3f                	jmp    401b26 <main+0x6a2>
  401ae7:	48 89 c3             	mov    %rax,%rbx
  401aea:	48 8d 85 f0 fc ff ff 	lea    -0x310(%rbp),%rax
  401af1:	48 89 c7             	mov    %rax,%rdi
  401af4:	e8 37 f5 ff ff       	callq  401030 <_ZNSsD1Ev@plt>
  401af9:	eb 03                	jmp    401afe <main+0x67a>
  401afb:	48 89 c3             	mov    %rax,%rbx
  401afe:	48 8d 85 00 fd ff ff 	lea    -0x300(%rbp),%rax
  401b05:	48 89 c7             	mov    %rax,%rdi
  401b08:	e8 e3 f5 ff ff       	callq  4010f0 <_ZNSaIcED1Ev@plt>
  401b0d:	eb 03                	jmp    401b12 <main+0x68e>
  401b0f:	48 89 c3             	mov    %rax,%rbx
  401b12:	48 8d 85 40 fd ff ff 	lea    -0x2c0(%rbp),%rax
  401b19:	48 89 c7             	mov    %rax,%rdi
  401b1c:	e8 19 01 00 00       	callq  401c3a <_ZNSt6vectorISsSaISsEED1Ev>
  401b21:	eb 03                	jmp    401b26 <main+0x6a2>
  401b23:	48 89 c3             	mov    %rax,%rbx
  401b26:	48 8d 85 10 fd ff ff 	lea    -0x2f0(%rbp),%rax
  401b2d:	48 89 c7             	mov    %rax,%rdi
  401b30:	e8 fb f4 ff ff       	callq  401030 <_ZNSsD1Ev@plt>
  401b35:	eb 7b                	jmp    401bb2 <main+0x72e>
  401b37:	48 89 c3             	mov    %rax,%rbx
  401b3a:	48 8d 85 00 fd ff ff 	lea    -0x300(%rbp),%rax
  401b41:	48 89 c7             	mov    %rax,%rdi
  401b44:	e8 e7 f4 ff ff       	callq  401030 <_ZNSsD1Ev@plt>
  401b49:	eb 3f                	jmp    401b8a <main+0x706>
  401b4b:	48 89 c3             	mov    %rax,%rbx
  401b4e:	48 8d 85 10 fd ff ff 	lea    -0x2f0(%rbp),%rax
  401b55:	48 89 c7             	mov    %rax,%rdi
  401b58:	e8 d3 f4 ff ff       	callq  401030 <_ZNSsD1Ev@plt>
  401b5d:	eb 03                	jmp    401b62 <main+0x6de>
  401b5f:	48 89 c3             	mov    %rax,%rbx
  401b62:	48 8d 85 00 fd ff ff 	lea    -0x300(%rbp),%rax
  401b69:	48 89 c7             	mov    %rax,%rdi
  401b6c:	e8 7f f5 ff ff       	callq  4010f0 <_ZNSaIcED1Ev@plt>
  401b71:	eb 03                	jmp    401b76 <main+0x6f2>
  401b73:	48 89 c3             	mov    %rax,%rbx
  401b76:	48 8d 85 40 fd ff ff 	lea    -0x2c0(%rbp),%rax
  401b7d:	48 89 c7             	mov    %rax,%rdi
  401b80:	e8 b5 00 00 00       	callq  401c3a <_ZNSt6vectorISsSaISsEED1Ev>
  401b85:	eb 03                	jmp    401b8a <main+0x706>
  401b87:	48 89 c3             	mov    %rax,%rbx
  401b8a:	48 8d 85 f0 fc ff ff 	lea    -0x310(%rbp),%rax
  401b91:	48 89 c7             	mov    %rax,%rdi
  401b94:	e8 97 f4 ff ff       	callq  401030 <_ZNSsD1Ev@plt>
  401b99:	eb 03                	jmp    401b9e <main+0x71a>
  401b9b:	48 89 c3             	mov    %rax,%rbx
  401b9e:	48 8d 85 c0 fc ff ff 	lea    -0x340(%rbp),%rax
  401ba5:	48 89 c7             	mov    %rax,%rdi
  401ba8:	e8 83 f4 ff ff       	callq  401030 <_ZNSsD1Ev@plt>
  401bad:	eb 03                	jmp    401bb2 <main+0x72e>
  401baf:	48 89 c3             	mov    %rax,%rbx
  401bb2:	48 8d 85 20 fd ff ff 	lea    -0x2e0(%rbp),%rax
  401bb9:	48 89 c7             	mov    %rax,%rdi
  401bbc:	e8 79 00 00 00       	callq  401c3a <_ZNSt6vectorISsSaISsEED1Ev>
  401bc1:	eb 03                	jmp    401bc6 <main+0x742>
  401bc3:	48 89 c3             	mov    %rax,%rbx
  401bc6:	48 8d 85 b0 fc ff ff 	lea    -0x350(%rbp),%rax
  401bcd:	48 89 c7             	mov    %rax,%rdi
  401bd0:	e8 5b f4 ff ff       	callq  401030 <_ZNSsD1Ev@plt>
  401bd5:	48 8d 85 e0 fd ff ff 	lea    -0x220(%rbp),%rax
  401bdc:	48 89 c7             	mov    %rax,%rdi
  401bdf:	e8 ac f4 ff ff       	callq  401090 <_ZNSt14basic_ifstreamIcSt11char_traitsIcEED1Ev@plt>
  401be4:	48 89 d8             	mov    %rbx,%rax
  401be7:	48 89 c7             	mov    %rax,%rdi
  401bea:	e8 a1 f5 ff ff       	callq  401190 <_Unwind_Resume@plt>
  401bef:	e8 ec f4 ff ff       	callq  4010e0 <__stack_chk_fail@plt>
  401bf4:	48 81 c4 60 03 00 00 	add    $0x360,%rsp
  401bfb:	5b                   	pop    %rbx
  401bfc:	41 5c                	pop    %r12
  401bfe:	5d                   	pop    %rbp
  401bff:	c3                   	retq   

0000000000401c00 <_ZnwmPv>:
  401c00:	55                   	push   %rbp
  401c01:	48 89 e5             	mov    %rsp,%rbp
  401c04:	48 89 7d f8          	mov    %rdi,-0x8(%rbp)
  401c08:	48 89 75 f0          	mov    %rsi,-0x10(%rbp)
  401c0c:	48 8b 45 f0          	mov    -0x10(%rbp),%rax
  401c10:	5d                   	pop    %rbp
  401c11:	c3                   	retq   

0000000000401c12 <_ZdlPvS_>:
  401c12:	55                   	push   %rbp
  401c13:	48 89 e5             	mov    %rsp,%rbp
  401c16:	48 89 7d f8          	mov    %rdi,-0x8(%rbp)
  401c1a:	48 89 75 f0          	mov    %rsi,-0x10(%rbp)
  401c1e:	5d                   	pop    %rbp
  401c1f:	c3                   	retq   

0000000000401c20 <_ZNSt6vectorISsSaISsEEC1Ev>:
  401c20:	55                   	push   %rbp
  401c21:	48 89 e5             	mov    %rsp,%rbp
  401c24:	48 83 ec 10          	sub    $0x10,%rsp
  401c28:	48 89 7d f8          	mov    %rdi,-0x8(%rbp)
  401c2c:	48 8b 45 f8          	mov    -0x8(%rbp),%rax
  401c30:	48 89 c7             	mov    %rax,%rdi
  401c33:	e8 1c 02 00 00       	callq  401e54 <_ZNSt12_Vector_baseISsSaISsEEC1Ev>
  401c38:	c9                   	leaveq 
  401c39:	c3                   	retq   

0000000000401c3a <_ZNSt6vectorISsSaISsEED1Ev>:
  401c3a:	55                   	push   %rbp
  401c3b:	48 89 e5             	mov    %rsp,%rbp
  401c3e:	48 83 ec 10          	sub    $0x10,%rsp
  401c42:	48 89 7d f8          	mov    %rdi,-0x8(%rbp)
  401c46:	48 8b 45 f8          	mov    -0x8(%rbp),%rax
  401c4a:	48 89 c7             	mov    %rax,%rdi
  401c4d:	e8 6c 02 00 00       	callq  401ebe <_ZNSt12_Vector_baseISsSaISsEE19_M_get_Tp_allocatorEv>
  401c52:	48 89 c2             	mov    %rax,%rdx
  401c55:	48 8b 45 f8          	mov    -0x8(%rbp),%rax
  401c59:	48 8b 48 08          	mov    0x8(%rax),%rcx
  401c5d:	48 8b 45 f8          	mov    -0x8(%rbp),%rax
  401c61:	48 8b 00             	mov    (%rax),%rax
  401c64:	48 89 ce             	mov    %rcx,%rsi
  401c67:	48 89 c7             	mov    %rax,%rdi
  401c6a:	e8 5d 02 00 00       	callq  401ecc <_ZSt8_DestroyIPSsSsEvT_S1_RSaIT0_E>
  401c6f:	48 8b 45 f8          	mov    -0x8(%rbp),%rax
  401c73:	48 89 c7             	mov    %rax,%rdi
  401c76:	e8 f3 01 00 00       	callq  401e6e <_ZNSt12_Vector_baseISsSaISsEED1Ev>
  401c7b:	c9                   	leaveq 
  401c7c:	c3                   	retq   

0000000000401c7d <_ZSt4moveIRSsEONSt16remove_referenceIT_E4typeEOS2_>:
  401c7d:	55                   	push   %rbp
  401c7e:	48 89 e5             	mov    %rsp,%rbp
  401c81:	48 89 7d f8          	mov    %rdi,-0x8(%rbp)
  401c85:	48 8b 45 f8          	mov    -0x8(%rbp),%rax
  401c89:	5d                   	pop    %rbp
  401c8a:	c3                   	retq   
  401c8b:	90                   	nop

0000000000401c8c <_ZNSt6vectorISsSaISsEE9push_backEOSs>:
  401c8c:	55                   	push   %rbp
  401c8d:	48 89 e5             	mov    %rsp,%rbp
  401c90:	48 83 ec 10          	sub    $0x10,%rsp
  401c94:	48 89 7d f8          	mov    %rdi,-0x8(%rbp)
  401c98:	48 89 75 f0          	mov    %rsi,-0x10(%rbp)
  401c9c:	48 8b 45 f0          	mov    -0x10(%rbp),%rax
  401ca0:	48 89 c7             	mov    %rax,%rdi
  401ca3:	e8 d5 ff ff ff       	callq  401c7d <_ZSt4moveIRSsEONSt16remove_referenceIT_E4typeEOS2_>
  401ca8:	48 89 c2             	mov    %rax,%rdx
  401cab:	48 8b 45 f8          	mov    -0x8(%rbp),%rax
  401caf:	48 89 d6             	mov    %rdx,%rsi
  401cb2:	48 89 c7             	mov    %rax,%rdi
  401cb5:	e8 4a 02 00 00       	callq  401f04 <_ZNSt6vectorISsSaISsEE12emplace_backIISsEEEvDpOT_>
  401cba:	c9                   	leaveq 
  401cbb:	c3                   	retq   

0000000000401cbc <_ZNKSt6vectorISsSaISsEE4sizeEv>:
  401cbc:	55                   	push   %rbp
  401cbd:	48 89 e5             	mov    %rsp,%rbp
  401cc0:	48 89 7d f8          	mov    %rdi,-0x8(%rbp)
  401cc4:	48 8b 45 f8          	mov    -0x8(%rbp),%rax
  401cc8:	48 8b 40 08          	mov    0x8(%rax),%rax
  401ccc:	48 89 c2             	mov    %rax,%rdx
  401ccf:	48 8b 45 f8          	mov    -0x8(%rbp),%rax
  401cd3:	48 8b 00             	mov    (%rax),%rax
  401cd6:	48 29 c2             	sub    %rax,%rdx
  401cd9:	48 89 d0             	mov    %rdx,%rax
  401cdc:	48 c1 f8 03          	sar    $0x3,%rax
  401ce0:	5d                   	pop    %rbp
  401ce1:	c3                   	retq   

0000000000401ce2 <_ZNSt6vectorISsSaISsEEixEm>:
  401ce2:	55                   	push   %rbp
  401ce3:	48 89 e5             	mov    %rsp,%rbp
  401ce6:	48 89 7d f8          	mov    %rdi,-0x8(%rbp)
  401cea:	48 89 75 f0          	mov    %rsi,-0x10(%rbp)
  401cee:	48 8b 45 f8          	mov    -0x8(%rbp),%rax
  401cf2:	48 8b 00             	mov    (%rax),%rax
  401cf5:	48 8b 55 f0          	mov    -0x10(%rbp),%rdx
  401cf9:	48 c1 e2 03          	shl    $0x3,%rdx
  401cfd:	48 01 d0             	add    %rdx,%rax
  401d00:	5d                   	pop    %rbp
  401d01:	c3                   	retq   

0000000000401d02 <_ZSt7forwardIRKSsEOT_RNSt16remove_referenceIS2_E4typeE>:
  401d02:	55                   	push   %rbp
  401d03:	48 89 e5             	mov    %rsp,%rbp
  401d06:	48 89 7d f8          	mov    %rdi,-0x8(%rbp)
  401d0a:	48 8b 45 f8          	mov    -0x8(%rbp),%rax
  401d0e:	5d                   	pop    %rbp
  401d0f:	c3                   	retq   

0000000000401d10 <_ZNSt6vectorISsSaISsEE9push_backERKSs>:
  401d10:	55                   	push   %rbp
  401d11:	48 89 e5             	mov    %rsp,%rbp
  401d14:	48 83 ec 10          	sub    $0x10,%rsp
  401d18:	48 89 7d f8          	mov    %rdi,-0x8(%rbp)
  401d1c:	48 89 75 f0          	mov    %rsi,-0x10(%rbp)
  401d20:	48 8b 45 f8          	mov    -0x8(%rbp),%rax
  401d24:	48 8b 50 08          	mov    0x8(%rax),%rdx
  401d28:	48 8b 45 f8          	mov    -0x8(%rbp),%rax
  401d2c:	48 8b 40 10          	mov    0x10(%rax),%rax
  401d30:	48 39 c2             	cmp    %rax,%rdx
  401d33:	74 31                	je     401d66 <_ZNSt6vectorISsSaISsEE9push_backERKSs+0x56>
  401d35:	48 8b 45 f8          	mov    -0x8(%rbp),%rax
  401d39:	48 8b 48 08          	mov    0x8(%rax),%rcx
  401d3d:	48 8b 45 f8          	mov    -0x8(%rbp),%rax
  401d41:	48 8b 55 f0          	mov    -0x10(%rbp),%rdx
  401d45:	48 89 ce             	mov    %rcx,%rsi
  401d48:	48 89 c7             	mov    %rax,%rdi
  401d4b:	e8 35 02 00 00       	callq  401f85 <_ZNSt16allocator_traitsISaISsEE9constructISsIRKSsEEEDTcl12_S_constructfp_fp0_spcl7forwardIT0_Efp1_EEERS0_PT_DpOS5_>
  401d50:	48 8b 45 f8          	mov    -0x8(%rbp),%rax
  401d54:	48 8b 40 08          	mov    0x8(%rax),%rax
  401d58:	48 8d 50 08          	lea    0x8(%rax),%rdx
  401d5c:	48 8b 45 f8          	mov    -0x8(%rbp),%rax
  401d60:	48 89 50 08          	mov    %rdx,0x8(%rax)
  401d64:	eb 13                	jmp    401d79 <_ZNSt6vectorISsSaISsEE9push_backERKSs+0x69>
  401d66:	48 8b 55 f0          	mov    -0x10(%rbp),%rdx
  401d6a:	48 8b 45 f8          	mov    -0x8(%rbp),%rax
  401d6e:	48 89 d6             	mov    %rdx,%rsi
  401d71:	48 89 c7             	mov    %rax,%rdi
  401d74:	e8 45 02 00 00       	callq  401fbe <_ZNSt6vectorISsSaISsEE19_M_emplace_back_auxIIRKSsEEEvDpOT_>
  401d79:	c9                   	leaveq 
  401d7a:	c3                   	retq   
  401d7b:	90                   	nop

0000000000401d7c <_ZNSt6vectorISsSaISsEE5beginEv>:
  401d7c:	55                   	push   %rbp
  401d7d:	48 89 e5             	mov    %rsp,%rbp
  401d80:	48 83 ec 20          	sub    $0x20,%rsp
  401d84:	48 89 7d e8          	mov    %rdi,-0x18(%rbp)
  401d88:	48 8b 55 e8          	mov    -0x18(%rbp),%rdx
  401d8c:	48 8d 45 f0          	lea    -0x10(%rbp),%rax
  401d90:	48 89 d6             	mov    %rdx,%rsi
  401d93:	48 89 c7             	mov    %rax,%rdi
  401d96:	e8 0d 04 00 00       	callq  4021a8 <_ZN9__gnu_cxx17__normal_iteratorIPSsSt6vectorISsSaISsEEEC1ERKS1_>
  401d9b:	48 8b 45 f0          	mov    -0x10(%rbp),%rax
  401d9f:	c9                   	leaveq 
  401da0:	c3                   	retq   
  401da1:	90                   	nop

0000000000401da2 <_ZNSt6vectorISsSaISsEE3endEv>:
  401da2:	55                   	push   %rbp
  401da3:	48 89 e5             	mov    %rsp,%rbp
  401da6:	48 83 ec 20          	sub    $0x20,%rsp
  401daa:	48 89 7d e8          	mov    %rdi,-0x18(%rbp)
  401dae:	48 8b 45 e8          	mov    -0x18(%rbp),%rax
  401db2:	48 8d 50 08          	lea    0x8(%rax),%rdx
  401db6:	48 8d 45 f0          	lea    -0x10(%rbp),%rax
  401dba:	48 89 d6             	mov    %rdx,%rsi
  401dbd:	48 89 c7             	mov    %rax,%rdi
  401dc0:	e8 e3 03 00 00       	callq  4021a8 <_ZN9__gnu_cxx17__normal_iteratorIPSsSt6vectorISsSaISsEEEC1ERKS1_>
  401dc5:	48 8b 45 f0          	mov    -0x10(%rbp),%rax
  401dc9:	c9                   	leaveq 
  401dca:	c3                   	retq   

0000000000401dcb <_ZN9__gnu_cxxneIPSsSt6vectorISsSaISsEEEEbRKNS_17__normal_iteratorIT_T0_EESA_>:
  401dcb:	55                   	push   %rbp
  401dcc:	48 89 e5             	mov    %rsp,%rbp
  401dcf:	53                   	push   %rbx
  401dd0:	48 83 ec 18          	sub    $0x18,%rsp
  401dd4:	48 89 7d e8          	mov    %rdi,-0x18(%rbp)
  401dd8:	48 89 75 e0          	mov    %rsi,-0x20(%rbp)
  401ddc:	48 8b 45 e8          	mov    -0x18(%rbp),%rax
  401de0:	48 89 c7             	mov    %rax,%rdi
  401de3:	e8 dc 03 00 00       	callq  4021c4 <_ZNK9__gnu_cxx17__normal_iteratorIPSsSt6vectorISsSaISsEEE4baseEv>
  401de8:	48 8b 18             	mov    (%rax),%rbx
  401deb:	48 8b 45 e0          	mov    -0x20(%rbp),%rax
  401def:	48 89 c7             	mov    %rax,%rdi
  401df2:	e8 cd 03 00 00       	callq  4021c4 <_ZNK9__gnu_cxx17__normal_iteratorIPSsSt6vectorISsSaISsEEE4baseEv>
  401df7:	48 8b 00             	mov    (%rax),%rax
  401dfa:	48 39 c3             	cmp    %rax,%rbx
  401dfd:	0f 95 c0             	setne  %al
  401e00:	48 83 c4 18          	add    $0x18,%rsp
  401e04:	5b                   	pop    %rbx
  401e05:	5d                   	pop    %rbp
  401e06:	c3                   	retq   
  401e07:	90                   	nop

0000000000401e08 <_ZN9__gnu_cxx17__normal_iteratorIPSsSt6vectorISsSaISsEEEppEv>:
  401e08:	55                   	push   %rbp
  401e09:	48 89 e5             	mov    %rsp,%rbp
  401e0c:	48 89 7d f8          	mov    %rdi,-0x8(%rbp)
  401e10:	48 8b 45 f8          	mov    -0x8(%rbp),%rax
  401e14:	48 8b 00             	mov    (%rax),%rax
  401e17:	48 8d 50 08          	lea    0x8(%rax),%rdx
  401e1b:	48 8b 45 f8          	mov    -0x8(%rbp),%rax
  401e1f:	48 89 10             	mov    %rdx,(%rax)
  401e22:	48 8b 45 f8          	mov    -0x8(%rbp),%rax
  401e26:	5d                   	pop    %rbp
  401e27:	c3                   	retq   

0000000000401e28 <_ZNK9__gnu_cxx17__normal_iteratorIPSsSt6vectorISsSaISsEEEdeEv>:
  401e28:	55                   	push   %rbp
  401e29:	48 89 e5             	mov    %rsp,%rbp
  401e2c:	48 89 7d f8          	mov    %rdi,-0x8(%rbp)
  401e30:	48 8b 45 f8          	mov    -0x8(%rbp),%rax
  401e34:	48 8b 00             	mov    (%rax),%rax
  401e37:	5d                   	pop    %rbp
  401e38:	c3                   	retq   
  401e39:	90                   	nop

0000000000401e3a <_ZNSt12_Vector_baseISsSaISsEE12_Vector_implD1Ev>:
  401e3a:	55                   	push   %rbp
  401e3b:	48 89 e5             	mov    %rsp,%rbp
  401e3e:	48 83 ec 10          	sub    $0x10,%rsp
  401e42:	48 89 7d f8          	mov    %rdi,-0x8(%rbp)
  401e46:	48 8b 45 f8          	mov    -0x8(%rbp),%rax
  401e4a:	48 89 c7             	mov    %rax,%rdi
  401e4d:	e8 be 03 00 00       	callq  402210 <_ZNSaISsED1Ev>
  401e52:	c9                   	leaveq 
  401e53:	c3                   	retq   

0000000000401e54 <_ZNSt12_Vector_baseISsSaISsEEC1Ev>:
  401e54:	55                   	push   %rbp
  401e55:	48 89 e5             	mov    %rsp,%rbp
  401e58:	48 83 ec 10          	sub    $0x10,%rsp
  401e5c:	48 89 7d f8          	mov    %rdi,-0x8(%rbp)
  401e60:	48 8b 45 f8          	mov    -0x8(%rbp),%rax
  401e64:	48 89 c7             	mov    %rax,%rdi
  401e67:	e8 66 03 00 00       	callq  4021d2 <_ZNSt12_Vector_baseISsSaISsEE12_Vector_implC1Ev>
  401e6c:	c9                   	leaveq 
  401e6d:	c3                   	retq   

0000000000401e6e <_ZNSt12_Vector_baseISsSaISsEED1Ev>:
  401e6e:	55                   	push   %rbp
  401e6f:	48 89 e5             	mov    %rsp,%rbp
  401e72:	48 83 ec 10          	sub    $0x10,%rsp
  401e76:	48 89 7d f8          	mov    %rdi,-0x8(%rbp)
  401e7a:	48 8b 45 f8          	mov    -0x8(%rbp),%rax
  401e7e:	48 8b 40 10          	mov    0x10(%rax),%rax
  401e82:	48 89 c2             	mov    %rax,%rdx
  401e85:	48 8b 45 f8          	mov    -0x8(%rbp),%rax
  401e89:	48 8b 00             	mov    (%rax),%rax
  401e8c:	48 29 c2             	sub    %rax,%rdx
  401e8f:	48 89 d0             	mov    %rdx,%rax
  401e92:	48 c1 f8 03          	sar    $0x3,%rax
  401e96:	48 89 c2             	mov    %rax,%rdx
  401e99:	48 8b 45 f8          	mov    -0x8(%rbp),%rax
  401e9d:	48 8b 08             	mov    (%rax),%rcx
  401ea0:	48 8b 45 f8          	mov    -0x8(%rbp),%rax
  401ea4:	48 89 ce             	mov    %rcx,%rsi
  401ea7:	48 89 c7             	mov    %rax,%rdi
  401eaa:	e8 7b 03 00 00       	callq  40222a <_ZNSt12_Vector_baseISsSaISsEE13_M_deallocateEPSsm>
  401eaf:	48 8b 45 f8          	mov    -0x8(%rbp),%rax
  401eb3:	48 89 c7             	mov    %rax,%rdi
  401eb6:	e8 7f ff ff ff       	callq  401e3a <_ZNSt12_Vector_baseISsSaISsEE12_Vector_implD1Ev>
  401ebb:	c9                   	leaveq 
  401ebc:	c3                   	retq   
  401ebd:	90                   	nop

0000000000401ebe <_ZNSt12_Vector_baseISsSaISsEE19_M_get_Tp_allocatorEv>:
  401ebe:	55                   	push   %rbp
  401ebf:	48 89 e5             	mov    %rsp,%rbp
  401ec2:	48 89 7d f8          	mov    %rdi,-0x8(%rbp)
  401ec6:	48 8b 45 f8          	mov    -0x8(%rbp),%rax
  401eca:	5d                   	pop    %rbp
  401ecb:	c3                   	retq   

0000000000401ecc <_ZSt8_DestroyIPSsSsEvT_S1_RSaIT0_E>:
  401ecc:	55                   	push   %rbp
  401ecd:	48 89 e5             	mov    %rsp,%rbp
  401ed0:	48 83 ec 20          	sub    $0x20,%rsp
  401ed4:	48 89 7d f8          	mov    %rdi,-0x8(%rbp)
  401ed8:	48 89 75 f0          	mov    %rsi,-0x10(%rbp)
  401edc:	48 89 55 e8          	mov    %rdx,-0x18(%rbp)
  401ee0:	48 8b 55 f0          	mov    -0x10(%rbp),%rdx
  401ee4:	48 8b 45 f8          	mov    -0x8(%rbp),%rax
  401ee8:	48 89 d6             	mov    %rdx,%rsi
  401eeb:	48 89 c7             	mov    %rax,%rdi
  401eee:	e8 6b 03 00 00       	callq  40225e <_ZSt8_DestroyIPSsEvT_S1_>
  401ef3:	c9                   	leaveq 
  401ef4:	c3                   	retq   

0000000000401ef5 <_ZSt7forwardISsEOT_RNSt16remove_referenceIS0_E4typeE>:
  401ef5:	55                   	push   %rbp
  401ef6:	48 89 e5             	mov    %rsp,%rbp
  401ef9:	48 89 7d f8          	mov    %rdi,-0x8(%rbp)
  401efd:	48 8b 45 f8          	mov    -0x8(%rbp),%rax
  401f01:	5d                   	pop    %rbp
  401f02:	c3                   	retq   
  401f03:	90                   	nop

0000000000401f04 <_ZNSt6vectorISsSaISsEE12emplace_backIISsEEEvDpOT_>:
  401f04:	55                   	push   %rbp
  401f05:	48 89 e5             	mov    %rsp,%rbp
  401f08:	48 83 ec 10          	sub    $0x10,%rsp
  401f0c:	48 89 7d f8          	mov    %rdi,-0x8(%rbp)
  401f10:	48 89 75 f0          	mov    %rsi,-0x10(%rbp)
  401f14:	48 8b 45 f8          	mov    -0x8(%rbp),%rax
  401f18:	48 8b 50 08          	mov    0x8(%rax),%rdx
  401f1c:	48 8b 45 f8          	mov    -0x8(%rbp),%rax
  401f20:	48 8b 40 10          	mov    0x10(%rax),%rax
  401f24:	48 39 c2             	cmp    %rax,%rdx
  401f27:	74 3c                	je     401f65 <_ZNSt6vectorISsSaISsEE12emplace_backIISsEEEvDpOT_+0x61>
  401f29:	48 8b 45 f0          	mov    -0x10(%rbp),%rax
  401f2d:	48 89 c7             	mov    %rax,%rdi
  401f30:	e8 c0 ff ff ff       	callq  401ef5 <_ZSt7forwardISsEOT_RNSt16remove_referenceIS0_E4typeE>
  401f35:	48 89 c2             	mov    %rax,%rdx
  401f38:	48 8b 45 f8          	mov    -0x8(%rbp),%rax
  401f3c:	48 8b 48 08          	mov    0x8(%rax),%rcx
  401f40:	48 8b 45 f8          	mov    -0x8(%rbp),%rax
  401f44:	48 89 ce             	mov    %rcx,%rsi
  401f47:	48 89 c7             	mov    %rax,%rdi
  401f4a:	e8 34 03 00 00       	callq  402283 <_ZNSt16allocator_traitsISaISsEE9constructISsISsEEEDTcl12_S_constructfp_fp0_spcl7forwardIT0_Efp1_EEERS0_PT_DpOS3_>
  401f4f:	48 8b 45 f8          	mov    -0x8(%rbp),%rax
  401f53:	48 8b 40 08          	mov    0x8(%rax),%rax
  401f57:	48 8d 50 08          	lea    0x8(%rax),%rdx
  401f5b:	48 8b 45 f8          	mov    -0x8(%rbp),%rax
  401f5f:	48 89 50 08          	mov    %rdx,0x8(%rax)
  401f63:	eb 1e                	jmp    401f83 <_ZNSt6vectorISsSaISsEE12emplace_backIISsEEEvDpOT_+0x7f>
  401f65:	48 8b 45 f0          	mov    -0x10(%rbp),%rax
  401f69:	48 89 c7             	mov    %rax,%rdi
  401f6c:	e8 84 ff ff ff       	callq  401ef5 <_ZSt7forwardISsEOT_RNSt16remove_referenceIS0_E4typeE>
  401f71:	48 89 c2             	mov    %rax,%rdx
  401f74:	48 8b 45 f8          	mov    -0x8(%rbp),%rax
  401f78:	48 89 d6             	mov    %rdx,%rsi
  401f7b:	48 89 c7             	mov    %rax,%rdi
  401f7e:	e8 39 03 00 00       	callq  4022bc <_ZNSt6vectorISsSaISsEE19_M_emplace_back_auxIISsEEEvDpOT_>
  401f83:	c9                   	leaveq 
  401f84:	c3                   	retq   

0000000000401f85 <_ZNSt16allocator_traitsISaISsEE9constructISsIRKSsEEEDTcl12_S_constructfp_fp0_spcl7forwardIT0_Efp1_EEERS0_PT_DpOS5_>:
  401f85:	55                   	push   %rbp
  401f86:	48 89 e5             	mov    %rsp,%rbp
  401f89:	48 83 ec 20          	sub    $0x20,%rsp
  401f8d:	48 89 7d f8          	mov    %rdi,-0x8(%rbp)
  401f91:	48 89 75 f0          	mov    %rsi,-0x10(%rbp)
  401f95:	48 89 55 e8          	mov    %rdx,-0x18(%rbp)
  401f99:	48 8b 45 e8          	mov    -0x18(%rbp),%rax
  401f9d:	48 89 c7             	mov    %rax,%rdi
  401fa0:	e8 5d fd ff ff       	callq  401d02 <_ZSt7forwardIRKSsEOT_RNSt16remove_referenceIS2_E4typeE>
  401fa5:	48 89 c2             	mov    %rax,%rdx
  401fa8:	48 8b 4d f0          	mov    -0x10(%rbp),%rcx
  401fac:	48 8b 45 f8          	mov    -0x8(%rbp),%rax
  401fb0:	48 89 ce             	mov    %rcx,%rsi
  401fb3:	48 89 c7             	mov    %rax,%rdi
  401fb6:	e8 eb 04 00 00       	callq  4024a6 <_ZNSt16allocator_traitsISaISsEE12_S_constructISsIRKSsEEENSt9enable_ifIXsrNS1_18__construct_helperIT_IDpT0_EEE5valueEvE4typeERS0_PS7_DpOS8_>
  401fbb:	c9                   	leaveq 
  401fbc:	c3                   	retq   
  401fbd:	90                   	nop

0000000000401fbe <_ZNSt6vectorISsSaISsEE19_M_emplace_back_auxIIRKSsEEEvDpOT_>:
  401fbe:	55                   	push   %rbp
  401fbf:	48 89 e5             	mov    %rsp,%rbp
  401fc2:	53                   	push   %rbx
  401fc3:	48 83 ec 38          	sub    $0x38,%rsp
  401fc7:	48 89 7d c8          	mov    %rdi,-0x38(%rbp)
  401fcb:	48 89 75 c0          	mov    %rsi,-0x40(%rbp)
  401fcf:	48 8b 45 c8          	mov    -0x38(%rbp),%rax
  401fd3:	ba 97 95 40 00       	mov    $0x409597,%edx
  401fd8:	be 01 00 00 00       	mov    $0x1,%esi
  401fdd:	48 89 c7             	mov    %rax,%rdi
  401fe0:	e8 f9 04 00 00       	callq  4024de <_ZNKSt6vectorISsSaISsEE12_M_check_lenEmPKc>
  401fe5:	48 89 45 e0          	mov    %rax,-0x20(%rbp)
  401fe9:	48 8b 45 c8          	mov    -0x38(%rbp),%rax
  401fed:	48 8b 55 e0          	mov    -0x20(%rbp),%rdx
  401ff1:	48 89 d6             	mov    %rdx,%rsi
  401ff4:	48 89 c7             	mov    %rax,%rdi
  401ff7:	e8 ac 05 00 00       	callq  4025a8 <_ZNSt12_Vector_baseISsSaISsEE11_M_allocateEm>
  401ffc:	48 89 45 e8          	mov    %rax,-0x18(%rbp)
  402000:	48 8b 45 e8          	mov    -0x18(%rbp),%rax
  402004:	48 89 45 d8          	mov    %rax,-0x28(%rbp)
  402008:	48 8b 45 c0          	mov    -0x40(%rbp),%rax
  40200c:	48 89 c7             	mov    %rax,%rdi
  40200f:	e8 ee fc ff ff       	callq  401d02 <_ZSt7forwardIRKSsEOT_RNSt16remove_referenceIS2_E4typeE>
  402014:	48 89 c3             	mov    %rax,%rbx
  402017:	48 8b 45 c8          	mov    -0x38(%rbp),%rax
  40201b:	48 89 c7             	mov    %rax,%rdi
  40201e:	e8 99 fc ff ff       	callq  401cbc <_ZNKSt6vectorISsSaISsEE4sizeEv>
  402023:	48 8d 14 c5 00 00 00 	lea    0x0(,%rax,8),%rdx
  40202a:	00 
  40202b:	48 8b 45 e8          	mov    -0x18(%rbp),%rax
  40202f:	48 8d 0c 02          	lea    (%rdx,%rax,1),%rcx
  402033:	48 8b 45 c8          	mov    -0x38(%rbp),%rax
  402037:	48 89 da             	mov    %rbx,%rdx
  40203a:	48 89 ce             	mov    %rcx,%rsi
  40203d:	48 89 c7             	mov    %rax,%rdi
  402040:	e8 40 ff ff ff       	callq  401f85 <_ZNSt16allocator_traitsISaISsEE9constructISsIRKSsEEEDTcl12_S_constructfp_fp0_spcl7forwardIT0_Efp1_EEERS0_PT_DpOS5_>
  402045:	48 c7 45 d8 00 00 00 	movq   $0x0,-0x28(%rbp)
  40204c:	00 
  40204d:	48 8b 45 c8          	mov    -0x38(%rbp),%rax
  402051:	48 89 c7             	mov    %rax,%rdi
  402054:	e8 65 fe ff ff       	callq  401ebe <_ZNSt12_Vector_baseISsSaISsEE19_M_get_Tp_allocatorEv>
  402059:	48 89 c1             	mov    %rax,%rcx
  40205c:	48 8b 45 c8          	mov    -0x38(%rbp),%rax
  402060:	48 8b 70 08          	mov    0x8(%rax),%rsi
  402064:	48 8b 45 c8          	mov    -0x38(%rbp),%rax
  402068:	48 8b 00             	mov    (%rax),%rax
  40206b:	48 8b 55 e8          	mov    -0x18(%rbp),%rdx
  40206f:	48 89 c7             	mov    %rax,%rdi
  402072:	e8 69 05 00 00       	callq  4025e0 <_ZSt34__uninitialized_move_if_noexcept_aIPSsS0_SaISsEET0_T_S3_S2_RT1_>
  402077:	48 89 45 d8          	mov    %rax,-0x28(%rbp)
  40207b:	48 83 45 d8 08       	addq   $0x8,-0x28(%rbp)
  402080:	48 8b 45 c8          	mov    -0x38(%rbp),%rax
  402084:	48 89 c7             	mov    %rax,%rdi
  402087:	e8 32 fe ff ff       	callq  401ebe <_ZNSt12_Vector_baseISsSaISsEE19_M_get_Tp_allocatorEv>
  40208c:	48 89 c2             	mov    %rax,%rdx
  40208f:	48 8b 45 c8          	mov    -0x38(%rbp),%rax
  402093:	48 8b 48 08          	mov    0x8(%rax),%rcx
  402097:	48 8b 45 c8          	mov    -0x38(%rbp),%rax
  40209b:	48 8b 00             	mov    (%rax),%rax
  40209e:	48 89 ce             	mov    %rcx,%rsi
  4020a1:	48 89 c7             	mov    %rax,%rdi
  4020a4:	e8 23 fe ff ff       	callq  401ecc <_ZSt8_DestroyIPSsSsEvT_S1_RSaIT0_E>
  4020a9:	48 8b 45 c8          	mov    -0x38(%rbp),%rax
  4020ad:	48 8b 40 10          	mov    0x10(%rax),%rax
  4020b1:	48 89 c2             	mov    %rax,%rdx
  4020b4:	48 8b 45 c8          	mov    -0x38(%rbp),%rax
  4020b8:	48 8b 00             	mov    (%rax),%rax
  4020bb:	48 29 c2             	sub    %rax,%rdx
  4020be:	48 89 d0             	mov    %rdx,%rax
  4020c1:	48 c1 f8 03          	sar    $0x3,%rax
  4020c5:	48 89 c2             	mov    %rax,%rdx
  4020c8:	48 8b 45 c8          	mov    -0x38(%rbp),%rax
  4020cc:	48 8b 08             	mov    (%rax),%rcx
  4020cf:	48 8b 45 c8          	mov    -0x38(%rbp),%rax
  4020d3:	48 89 ce             	mov    %rcx,%rsi
  4020d6:	48 89 c7             	mov    %rax,%rdi
  4020d9:	e8 4c 01 00 00       	callq  40222a <_ZNSt12_Vector_baseISsSaISsEE13_M_deallocateEPSsm>
  4020de:	48 8b 45 c8          	mov    -0x38(%rbp),%rax
  4020e2:	48 8b 55 e8          	mov    -0x18(%rbp),%rdx
  4020e6:	48 89 10             	mov    %rdx,(%rax)
  4020e9:	48 8b 45 c8          	mov    -0x38(%rbp),%rax
  4020ed:	48 8b 55 d8          	mov    -0x28(%rbp),%rdx
  4020f1:	48 89 50 08          	mov    %rdx,0x8(%rax)
  4020f5:	48 8b 45 e0          	mov    -0x20(%rbp),%rax
  4020f9:	48 8d 14 c5 00 00 00 	lea    0x0(,%rax,8),%rdx
  402100:	00 
  402101:	48 8b 45 e8          	mov    -0x18(%rbp),%rax
  402105:	48 01 c2             	add    %rax,%rdx
  402108:	48 8b 45 c8          	mov    -0x38(%rbp),%rax
  40210c:	48 89 50 10          	mov    %rdx,0x10(%rax)
  402110:	e9 8c 00 00 00       	jmpq   4021a1 <_ZNSt6vectorISsSaISsEE19_M_emplace_back_auxIIRKSsEEEvDpOT_+0x1e3>
  402115:	48 89 c3             	mov    %rax,%rbx
  402118:	e8 e3 ef ff ff       	callq  401100 <__cxa_end_catch@plt>
  40211d:	48 89 d8             	mov    %rbx,%rax
  402120:	48 89 c7             	mov    %rax,%rdi
  402123:	e8 68 f0 ff ff       	callq  401190 <_Unwind_Resume@plt>
  402128:	48 89 c7             	mov    %rax,%rdi
  40212b:	e8 f0 ef ff ff       	callq  401120 <__cxa_begin_catch@plt>
  402130:	48 83 7d d8 00       	cmpq   $0x0,-0x28(%rbp)
  402135:	75 2c                	jne    402163 <_ZNSt6vectorISsSaISsEE19_M_emplace_back_auxIIRKSsEEEvDpOT_+0x1a5>
  402137:	48 8b 45 c8          	mov    -0x38(%rbp),%rax
  40213b:	48 89 c7             	mov    %rax,%rdi
  40213e:	e8 79 fb ff ff       	callq  401cbc <_ZNKSt6vectorISsSaISsEE4sizeEv>
  402143:	48 8d 14 c5 00 00 00 	lea    0x0(,%rax,8),%rdx
  40214a:	00 
  40214b:	48 8b 45 e8          	mov    -0x18(%rbp),%rax
  40214f:	48 01 c2             	add    %rax,%rdx
  402152:	48 8b 45 c8          	mov    -0x38(%rbp),%rax
  402156:	48 89 d6             	mov    %rdx,%rsi
  402159:	48 89 c7             	mov    %rax,%rdi
  40215c:	e8 cd 04 00 00       	callq  40262e <_ZNSt16allocator_traitsISaISsEE7destroyISsEEvRS0_PT_>
  402161:	eb 22                	jmp    402185 <_ZNSt6vectorISsSaISsEE19_M_emplace_back_auxIIRKSsEEEvDpOT_+0x1c7>
  402163:	48 8b 45 c8          	mov    -0x38(%rbp),%rax
  402167:	48 89 c7             	mov    %rax,%rdi
  40216a:	e8 4f fd ff ff       	callq  401ebe <_ZNSt12_Vector_baseISsSaISsEE19_M_get_Tp_allocatorEv>
  40216f:	48 89 c2             	mov    %rax,%rdx
  402172:	48 8b 4d d8          	mov    -0x28(%rbp),%rcx
  402176:	48 8b 45 e8          	mov    -0x18(%rbp),%rax
  40217a:	48 89 ce             	mov    %rcx,%rsi
  40217d:	48 89 c7             	mov    %rax,%rdi
  402180:	e8 47 fd ff ff       	callq  401ecc <_ZSt8_DestroyIPSsSsEvT_S1_RSaIT0_E>
  402185:	48 8b 45 c8          	mov    -0x38(%rbp),%rax
  402189:	48 8b 55 e0          	mov    -0x20(%rbp),%rdx
  40218d:	48 8b 4d e8          	mov    -0x18(%rbp),%rcx
  402191:	48 89 ce             	mov    %rcx,%rsi
  402194:	48 89 c7             	mov    %rax,%rdi
  402197:	e8 8e 00 00 00       	callq  40222a <_ZNSt12_Vector_baseISsSaISsEE13_M_deallocateEPSsm>
  40219c:	e8 3f ee ff ff       	callq  400fe0 <__cxa_rethrow@plt>
  4021a1:	48 83 c4 38          	add    $0x38,%rsp
  4021a5:	5b                   	pop    %rbx
  4021a6:	5d                   	pop    %rbp
  4021a7:	c3                   	retq   

00000000004021a8 <_ZN9__gnu_cxx17__normal_iteratorIPSsSt6vectorISsSaISsEEEC1ERKS1_>:
  4021a8:	55                   	push   %rbp
  4021a9:	48 89 e5             	mov    %rsp,%rbp
  4021ac:	48 89 7d f8          	mov    %rdi,-0x8(%rbp)
  4021b0:	48 89 75 f0          	mov    %rsi,-0x10(%rbp)
  4021b4:	48 8b 45 f0          	mov    -0x10(%rbp),%rax
  4021b8:	48 8b 10             	mov    (%rax),%rdx
  4021bb:	48 8b 45 f8          	mov    -0x8(%rbp),%rax
  4021bf:	48 89 10             	mov    %rdx,(%rax)
  4021c2:	5d                   	pop    %rbp
  4021c3:	c3                   	retq   

00000000004021c4 <_ZNK9__gnu_cxx17__normal_iteratorIPSsSt6vectorISsSaISsEEE4baseEv>:
  4021c4:	55                   	push   %rbp
  4021c5:	48 89 e5             	mov    %rsp,%rbp
  4021c8:	48 89 7d f8          	mov    %rdi,-0x8(%rbp)
  4021cc:	48 8b 45 f8          	mov    -0x8(%rbp),%rax
  4021d0:	5d                   	pop    %rbp
  4021d1:	c3                   	retq   

00000000004021d2 <_ZNSt12_Vector_baseISsSaISsEE12_Vector_implC1Ev>:
  4021d2:	55                   	push   %rbp
  4021d3:	48 89 e5             	mov    %rsp,%rbp
  4021d6:	48 83 ec 10          	sub    $0x10,%rsp
  4021da:	48 89 7d f8          	mov    %rdi,-0x8(%rbp)
  4021de:	48 8b 45 f8          	mov    -0x8(%rbp),%rax
  4021e2:	48 89 c7             	mov    %rax,%rdi
  4021e5:	e8 6a 04 00 00       	callq  402654 <_ZNSaISsEC1Ev>
  4021ea:	48 8b 45 f8          	mov    -0x8(%rbp),%rax
  4021ee:	48 c7 00 00 00 00 00 	movq   $0x0,(%rax)
  4021f5:	48 8b 45 f8          	mov    -0x8(%rbp),%rax
  4021f9:	48 c7 40 08 00 00 00 	movq   $0x0,0x8(%rax)
  402200:	00 
  402201:	48 8b 45 f8          	mov    -0x8(%rbp),%rax
  402205:	48 c7 40 10 00 00 00 	movq   $0x0,0x10(%rax)
  40220c:	00 
  40220d:	c9                   	leaveq 
  40220e:	c3                   	retq   
  40220f:	90                   	nop

0000000000402210 <_ZNSaISsED1Ev>:
  402210:	55                   	push   %rbp
  402211:	48 89 e5             	mov    %rsp,%rbp
  402214:	48 83 ec 10          	sub    $0x10,%rsp
  402218:	48 89 7d f8          	mov    %rdi,-0x8(%rbp)
  40221c:	48 8b 45 f8          	mov    -0x8(%rbp),%rax
  402220:	48 89 c7             	mov    %rax,%rdi
  402223:	e8 46 04 00 00       	callq  40266e <_ZN9__gnu_cxx13new_allocatorISsED1Ev>
  402228:	c9                   	leaveq 
  402229:	c3                   	retq   

000000000040222a <_ZNSt12_Vector_baseISsSaISsEE13_M_deallocateEPSsm>:
  40222a:	55                   	push   %rbp
  40222b:	48 89 e5             	mov    %rsp,%rbp
  40222e:	48 83 ec 20          	sub    $0x20,%rsp
  402232:	48 89 7d f8          	mov    %rdi,-0x8(%rbp)
  402236:	48 89 75 f0          	mov    %rsi,-0x10(%rbp)
  40223a:	48 89 55 e8          	mov    %rdx,-0x18(%rbp)
  40223e:	48 83 7d f0 00       	cmpq   $0x0,-0x10(%rbp)
  402243:	74 17                	je     40225c <_ZNSt12_Vector_baseISsSaISsEE13_M_deallocateEPSsm+0x32>
  402245:	48 8b 45 f8          	mov    -0x8(%rbp),%rax
  402249:	48 8b 55 e8          	mov    -0x18(%rbp),%rdx
  40224d:	48 8b 4d f0          	mov    -0x10(%rbp),%rcx
  402251:	48 89 ce             	mov    %rcx,%rsi
  402254:	48 89 c7             	mov    %rax,%rdi
  402257:	e8 1c 04 00 00       	callq  402678 <_ZN9__gnu_cxx13new_allocatorISsE10deallocateEPSsm>
  40225c:	c9                   	leaveq 
  40225d:	c3                   	retq   

000000000040225e <_ZSt8_DestroyIPSsEvT_S1_>:
  40225e:	55                   	push   %rbp
  40225f:	48 89 e5             	mov    %rsp,%rbp
  402262:	48 83 ec 10          	sub    $0x10,%rsp
  402266:	48 89 7d f8          	mov    %rdi,-0x8(%rbp)
  40226a:	48 89 75 f0          	mov    %rsi,-0x10(%rbp)
  40226e:	48 8b 55 f0          	mov    -0x10(%rbp),%rdx
  402272:	48 8b 45 f8          	mov    -0x8(%rbp),%rax
  402276:	48 89 d6             	mov    %rdx,%rsi
  402279:	48 89 c7             	mov    %rax,%rdi
  40227c:	e8 19 04 00 00       	callq  40269a <_ZNSt12_Destroy_auxILb0EE9__destroyIPSsEEvT_S3_>
  402281:	c9                   	leaveq 
  402282:	c3                   	retq   

0000000000402283 <_ZNSt16allocator_traitsISaISsEE9constructISsISsEEEDTcl12_S_constructfp_fp0_spcl7forwardIT0_Efp1_EEERS0_PT_DpOS3_>:
  402283:	55                   	push   %rbp
  402284:	48 89 e5             	mov    %rsp,%rbp
  402287:	48 83 ec 20          	sub    $0x20,%rsp
  40228b:	48 89 7d f8          	mov    %rdi,-0x8(%rbp)
  40228f:	48 89 75 f0          	mov    %rsi,-0x10(%rbp)
  402293:	48 89 55 e8          	mov    %rdx,-0x18(%rbp)
  402297:	48 8b 45 e8          	mov    -0x18(%rbp),%rax
  40229b:	48 89 c7             	mov    %rax,%rdi
  40229e:	e8 52 fc ff ff       	callq  401ef5 <_ZSt7forwardISsEOT_RNSt16remove_referenceIS0_E4typeE>
  4022a3:	48 89 c2             	mov    %rax,%rdx
  4022a6:	48 8b 4d f0          	mov    -0x10(%rbp),%rcx
  4022aa:	48 8b 45 f8          	mov    -0x8(%rbp),%rax
  4022ae:	48 89 ce             	mov    %rcx,%rsi
  4022b1:	48 89 c7             	mov    %rax,%rdi
  4022b4:	e8 18 04 00 00       	callq  4026d1 <_ZNSt16allocator_traitsISaISsEE12_S_constructISsISsEEENSt9enable_ifIXsrNS1_18__construct_helperIT_IDpT0_EEE5valueEvE4typeERS0_PS5_DpOS6_>
  4022b9:	c9                   	leaveq 
  4022ba:	c3                   	retq   
  4022bb:	90                   	nop

00000000004022bc <_ZNSt6vectorISsSaISsEE19_M_emplace_back_auxIISsEEEvDpOT_>:
  4022bc:	55                   	push   %rbp
  4022bd:	48 89 e5             	mov    %rsp,%rbp
  4022c0:	53                   	push   %rbx
  4022c1:	48 83 ec 38          	sub    $0x38,%rsp
  4022c5:	48 89 7d c8          	mov    %rdi,-0x38(%rbp)
  4022c9:	48 89 75 c0          	mov    %rsi,-0x40(%rbp)
  4022cd:	48 8b 45 c8          	mov    -0x38(%rbp),%rax
  4022d1:	ba 97 95 40 00       	mov    $0x409597,%edx
  4022d6:	be 01 00 00 00       	mov    $0x1,%esi
  4022db:	48 89 c7             	mov    %rax,%rdi
  4022de:	e8 fb 01 00 00       	callq  4024de <_ZNKSt6vectorISsSaISsEE12_M_check_lenEmPKc>
  4022e3:	48 89 45 e0          	mov    %rax,-0x20(%rbp)
  4022e7:	48 8b 45 c8          	mov    -0x38(%rbp),%rax
  4022eb:	48 8b 55 e0          	mov    -0x20(%rbp),%rdx
  4022ef:	48 89 d6             	mov    %rdx,%rsi
  4022f2:	48 89 c7             	mov    %rax,%rdi
  4022f5:	e8 ae 02 00 00       	callq  4025a8 <_ZNSt12_Vector_baseISsSaISsEE11_M_allocateEm>
  4022fa:	48 89 45 e8          	mov    %rax,-0x18(%rbp)
  4022fe:	48 8b 45 e8          	mov    -0x18(%rbp),%rax
  402302:	48 89 45 d8          	mov    %rax,-0x28(%rbp)
  402306:	48 8b 45 c0          	mov    -0x40(%rbp),%rax
  40230a:	48 89 c7             	mov    %rax,%rdi
  40230d:	e8 e3 fb ff ff       	callq  401ef5 <_ZSt7forwardISsEOT_RNSt16remove_referenceIS0_E4typeE>
  402312:	48 89 c3             	mov    %rax,%rbx
  402315:	48 8b 45 c8          	mov    -0x38(%rbp),%rax
  402319:	48 89 c7             	mov    %rax,%rdi
  40231c:	e8 9b f9 ff ff       	callq  401cbc <_ZNKSt6vectorISsSaISsEE4sizeEv>
  402321:	48 8d 14 c5 00 00 00 	lea    0x0(,%rax,8),%rdx
  402328:	00 
  402329:	48 8b 45 e8          	mov    -0x18(%rbp),%rax
  40232d:	48 8d 0c 02          	lea    (%rdx,%rax,1),%rcx
  402331:	48 8b 45 c8          	mov    -0x38(%rbp),%rax
  402335:	48 89 da             	mov    %rbx,%rdx
  402338:	48 89 ce             	mov    %rcx,%rsi
  40233b:	48 89 c7             	mov    %rax,%rdi
  40233e:	e8 40 ff ff ff       	callq  402283 <_ZNSt16allocator_traitsISaISsEE9constructISsISsEEEDTcl12_S_constructfp_fp0_spcl7forwardIT0_Efp1_EEERS0_PT_DpOS3_>
  402343:	48 c7 45 d8 00 00 00 	movq   $0x0,-0x28(%rbp)
  40234a:	00 
  40234b:	48 8b 45 c8          	mov    -0x38(%rbp),%rax
  40234f:	48 89 c7             	mov    %rax,%rdi
  402352:	e8 67 fb ff ff       	callq  401ebe <_ZNSt12_Vector_baseISsSaISsEE19_M_get_Tp_allocatorEv>
  402357:	48 89 c1             	mov    %rax,%rcx
  40235a:	48 8b 45 c8          	mov    -0x38(%rbp),%rax
  40235e:	48 8b 70 08          	mov    0x8(%rax),%rsi
  402362:	48 8b 45 c8          	mov    -0x38(%rbp),%rax
  402366:	48 8b 00             	mov    (%rax),%rax
  402369:	48 8b 55 e8          	mov    -0x18(%rbp),%rdx
  40236d:	48 89 c7             	mov    %rax,%rdi
  402370:	e8 6b 02 00 00       	callq  4025e0 <_ZSt34__uninitialized_move_if_noexcept_aIPSsS0_SaISsEET0_T_S3_S2_RT1_>
  402375:	48 89 45 d8          	mov    %rax,-0x28(%rbp)
  402379:	48 83 45 d8 08       	addq   $0x8,-0x28(%rbp)
  40237e:	48 8b 45 c8          	mov    -0x38(%rbp),%rax
  402382:	48 89 c7             	mov    %rax,%rdi
  402385:	e8 34 fb ff ff       	callq  401ebe <_ZNSt12_Vector_baseISsSaISsEE19_M_get_Tp_allocatorEv>
  40238a:	48 89 c2             	mov    %rax,%rdx
  40238d:	48 8b 45 c8          	mov    -0x38(%rbp),%rax
  402391:	48 8b 48 08          	mov    0x8(%rax),%rcx
  402395:	48 8b 45 c8          	mov    -0x38(%rbp),%rax
  402399:	48 8b 00             	mov    (%rax),%rax
  40239c:	48 89 ce             	mov    %rcx,%rsi
  40239f:	48 89 c7             	mov    %rax,%rdi
  4023a2:	e8 25 fb ff ff       	callq  401ecc <_ZSt8_DestroyIPSsSsEvT_S1_RSaIT0_E>
  4023a7:	48 8b 45 c8          	mov    -0x38(%rbp),%rax
  4023ab:	48 8b 40 10          	mov    0x10(%rax),%rax
  4023af:	48 89 c2             	mov    %rax,%rdx
  4023b2:	48 8b 45 c8          	mov    -0x38(%rbp),%rax
  4023b6:	48 8b 00             	mov    (%rax),%rax
  4023b9:	48 29 c2             	sub    %rax,%rdx
  4023bc:	48 89 d0             	mov    %rdx,%rax
  4023bf:	48 c1 f8 03          	sar    $0x3,%rax
  4023c3:	48 89 c2             	mov    %rax,%rdx
  4023c6:	48 8b 45 c8          	mov    -0x38(%rbp),%rax
  4023ca:	48 8b 08             	mov    (%rax),%rcx
  4023cd:	48 8b 45 c8          	mov    -0x38(%rbp),%rax
  4023d1:	48 89 ce             	mov    %rcx,%rsi
  4023d4:	48 89 c7             	mov    %rax,%rdi
  4023d7:	e8 4e fe ff ff       	callq  40222a <_ZNSt12_Vector_baseISsSaISsEE13_M_deallocateEPSsm>
  4023dc:	48 8b 45 c8          	mov    -0x38(%rbp),%rax
  4023e0:	48 8b 55 e8          	mov    -0x18(%rbp),%rdx
  4023e4:	48 89 10             	mov    %rdx,(%rax)
  4023e7:	48 8b 45 c8          	mov    -0x38(%rbp),%rax
  4023eb:	48 8b 55 d8          	mov    -0x28(%rbp),%rdx
  4023ef:	48 89 50 08          	mov    %rdx,0x8(%rax)
  4023f3:	48 8b 45 e0          	mov    -0x20(%rbp),%rax
  4023f7:	48 8d 14 c5 00 00 00 	lea    0x0(,%rax,8),%rdx
  4023fe:	00 
  4023ff:	48 8b 45 e8          	mov    -0x18(%rbp),%rax
  402403:	48 01 c2             	add    %rax,%rdx
  402406:	48 8b 45 c8          	mov    -0x38(%rbp),%rax
  40240a:	48 89 50 10          	mov    %rdx,0x10(%rax)
  40240e:	e9 8c 00 00 00       	jmpq   40249f <_ZNSt6vectorISsSaISsEE19_M_emplace_back_auxIISsEEEvDpOT_+0x1e3>
  402413:	48 89 c3             	mov    %rax,%rbx
  402416:	e8 e5 ec ff ff       	callq  401100 <__cxa_end_catch@plt>
  40241b:	48 89 d8             	mov    %rbx,%rax
  40241e:	48 89 c7             	mov    %rax,%rdi
  402421:	e8 6a ed ff ff       	callq  401190 <_Unwind_Resume@plt>
  402426:	48 89 c7             	mov    %rax,%rdi
  402429:	e8 f2 ec ff ff       	callq  401120 <__cxa_begin_catch@plt>
  40242e:	48 83 7d d8 00       	cmpq   $0x0,-0x28(%rbp)
  402433:	75 2c                	jne    402461 <_ZNSt6vectorISsSaISsEE19_M_emplace_back_auxIISsEEEvDpOT_+0x1a5>
  402435:	48 8b 45 c8          	mov    -0x38(%rbp),%rax
  402439:	48 89 c7             	mov    %rax,%rdi
  40243c:	e8 7b f8 ff ff       	callq  401cbc <_ZNKSt6vectorISsSaISsEE4sizeEv>
  402441:	48 8d 14 c5 00 00 00 	lea    0x0(,%rax,8),%rdx
  402448:	00 
  402449:	48 8b 45 e8          	mov    -0x18(%rbp),%rax
  40244d:	48 01 c2             	add    %rax,%rdx
  402450:	48 8b 45 c8          	mov    -0x38(%rbp),%rax
  402454:	48 89 d6             	mov    %rdx,%rsi
  402457:	48 89 c7             	mov    %rax,%rdi
  40245a:	e8 cf 01 00 00       	callq  40262e <_ZNSt16allocator_traitsISaISsEE7destroyISsEEvRS0_PT_>
  40245f:	eb 22                	jmp    402483 <_ZNSt6vectorISsSaISsEE19_M_emplace_back_auxIISsEEEvDpOT_+0x1c7>
  402461:	48 8b 45 c8          	mov    -0x38(%rbp),%rax
  402465:	48 89 c7             	mov    %rax,%rdi
  402468:	e8 51 fa ff ff       	callq  401ebe <_ZNSt12_Vector_baseISsSaISsEE19_M_get_Tp_allocatorEv>
  40246d:	48 89 c2             	mov    %rax,%rdx
  402470:	48 8b 4d d8          	mov    -0x28(%rbp),%rcx
  402474:	48 8b 45 e8          	mov    -0x18(%rbp),%rax
  402478:	48 89 ce             	mov    %rcx,%rsi
  40247b:	48 89 c7             	mov    %rax,%rdi
  40247e:	e8 49 fa ff ff       	callq  401ecc <_ZSt8_DestroyIPSsSsEvT_S1_RSaIT0_E>
  402483:	48 8b 45 c8          	mov    -0x38(%rbp),%rax
  402487:	48 8b 55 e0          	mov    -0x20(%rbp),%rdx
  40248b:	48 8b 4d e8          	mov    -0x18(%rbp),%rcx
  40248f:	48 89 ce             	mov    %rcx,%rsi
  402492:	48 89 c7             	mov    %rax,%rdi
  402495:	e8 90 fd ff ff       	callq  40222a <_ZNSt12_Vector_baseISsSaISsEE13_M_deallocateEPSsm>
  40249a:	e8 41 eb ff ff       	callq  400fe0 <__cxa_rethrow@plt>
  40249f:	48 83 c4 38          	add    $0x38,%rsp
  4024a3:	5b                   	pop    %rbx
  4024a4:	5d                   	pop    %rbp
  4024a5:	c3                   	retq   

00000000004024a6 <_ZNSt16allocator_traitsISaISsEE12_S_constructISsIRKSsEEENSt9enable_ifIXsrNS1_18__construct_helperIT_IDpT0_EEE5valueEvE4typeERS0_PS7_DpOS8_>:
  4024a6:	55                   	push   %rbp
  4024a7:	48 89 e5             	mov    %rsp,%rbp
  4024aa:	48 83 ec 20          	sub    $0x20,%rsp
  4024ae:	48 89 7d f8          	mov    %rdi,-0x8(%rbp)
  4024b2:	48 89 75 f0          	mov    %rsi,-0x10(%rbp)
  4024b6:	48 89 55 e8          	mov    %rdx,-0x18(%rbp)
  4024ba:	48 8b 45 e8          	mov    -0x18(%rbp),%rax
  4024be:	48 89 c7             	mov    %rax,%rdi
  4024c1:	e8 3c f8 ff ff       	callq  401d02 <_ZSt7forwardIRKSsEOT_RNSt16remove_referenceIS2_E4typeE>
  4024c6:	48 89 c2             	mov    %rax,%rdx
  4024c9:	48 8b 4d f0          	mov    -0x10(%rbp),%rcx
  4024cd:	48 8b 45 f8          	mov    -0x8(%rbp),%rax
  4024d1:	48 89 ce             	mov    %rcx,%rsi
  4024d4:	48 89 c7             	mov    %rax,%rdi
  4024d7:	e8 2e 02 00 00       	callq  40270a <_ZN9__gnu_cxx13new_allocatorISsE9constructISsIRKSsEEEvPT_DpOT0_>
  4024dc:	c9                   	leaveq 
  4024dd:	c3                   	retq   

00000000004024de <_ZNKSt6vectorISsSaISsEE12_M_check_lenEmPKc>:
  4024de:	55                   	push   %rbp
  4024df:	48 89 e5             	mov    %rsp,%rbp
  4024e2:	53                   	push   %rbx
  4024e3:	48 83 ec 38          	sub    $0x38,%rsp
  4024e7:	48 89 7d d8          	mov    %rdi,-0x28(%rbp)
  4024eb:	48 89 75 d0          	mov    %rsi,-0x30(%rbp)
  4024ef:	48 89 55 c8          	mov    %rdx,-0x38(%rbp)
  4024f3:	48 8b 45 d8          	mov    -0x28(%rbp),%rax
  4024f7:	48 89 c7             	mov    %rax,%rdi
  4024fa:	e8 7f 02 00 00       	callq  40277e <_ZNKSt6vectorISsSaISsEE8max_sizeEv>
  4024ff:	48 89 c3             	mov    %rax,%rbx
  402502:	48 8b 45 d8          	mov    -0x28(%rbp),%rax
  402506:	48 89 c7             	mov    %rax,%rdi
  402509:	e8 ae f7 ff ff       	callq  401cbc <_ZNKSt6vectorISsSaISsEE4sizeEv>
  40250e:	48 29 c3             	sub    %rax,%rbx
  402511:	48 89 da             	mov    %rbx,%rdx
  402514:	48 8b 45 d0          	mov    -0x30(%rbp),%rax
  402518:	48 39 c2             	cmp    %rax,%rdx
  40251b:	0f 92 c0             	setb   %al
  40251e:	84 c0                	test   %al,%al
  402520:	74 0c                	je     40252e <_ZNKSt6vectorISsSaISsEE12_M_check_lenEmPKc+0x50>
  402522:	48 8b 45 c8          	mov    -0x38(%rbp),%rax
  402526:	48 89 c7             	mov    %rax,%rdi
  402529:	e8 02 ea ff ff       	callq  400f30 <_ZSt20__throw_length_errorPKc@plt>
  40252e:	48 8b 45 d8          	mov    -0x28(%rbp),%rax
  402532:	48 89 c7             	mov    %rax,%rdi
  402535:	e8 82 f7 ff ff       	callq  401cbc <_ZNKSt6vectorISsSaISsEE4sizeEv>
  40253a:	48 89 c3             	mov    %rax,%rbx
  40253d:	48 8b 45 d8          	mov    -0x28(%rbp),%rax
  402541:	48 89 c7             	mov    %rax,%rdi
  402544:	e8 73 f7 ff ff       	callq  401cbc <_ZNKSt6vectorISsSaISsEE4sizeEv>
  402549:	48 89 45 e0          	mov    %rax,-0x20(%rbp)
  40254d:	48 8d 55 d0          	lea    -0x30(%rbp),%rdx
  402551:	48 8d 45 e0          	lea    -0x20(%rbp),%rax
  402555:	48 89 d6             	mov    %rdx,%rsi
  402558:	48 89 c7             	mov    %rax,%rdi
  40255b:	e8 40 02 00 00       	callq  4027a0 <_ZSt3maxImERKT_S2_S2_>
  402560:	48 8b 00             	mov    (%rax),%rax
  402563:	48 01 d8             	add    %rbx,%rax
  402566:	48 89 45 e8          	mov    %rax,-0x18(%rbp)
  40256a:	48 8b 45 d8          	mov    -0x28(%rbp),%rax
  40256e:	48 89 c7             	mov    %rax,%rdi
  402571:	e8 46 f7 ff ff       	callq  401cbc <_ZNKSt6vectorISsSaISsEE4sizeEv>
  402576:	48 3b 45 e8          	cmp    -0x18(%rbp),%rax
  40257a:	77 12                	ja     40258e <_ZNKSt6vectorISsSaISsEE12_M_check_lenEmPKc+0xb0>
  40257c:	48 8b 45 d8          	mov    -0x28(%rbp),%rax
  402580:	48 89 c7             	mov    %rax,%rdi
  402583:	e8 f6 01 00 00       	callq  40277e <_ZNKSt6vectorISsSaISsEE8max_sizeEv>
  402588:	48 3b 45 e8          	cmp    -0x18(%rbp),%rax
  40258c:	73 0e                	jae    40259c <_ZNKSt6vectorISsSaISsEE12_M_check_lenEmPKc+0xbe>
  40258e:	48 8b 45 d8          	mov    -0x28(%rbp),%rax
  402592:	48 89 c7             	mov    %rax,%rdi
  402595:	e8 e4 01 00 00       	callq  40277e <_ZNKSt6vectorISsSaISsEE8max_sizeEv>
  40259a:	eb 04                	jmp    4025a0 <_ZNKSt6vectorISsSaISsEE12_M_check_lenEmPKc+0xc2>
  40259c:	48 8b 45 e8          	mov    -0x18(%rbp),%rax
  4025a0:	48 83 c4 38          	add    $0x38,%rsp
  4025a4:	5b                   	pop    %rbx
  4025a5:	5d                   	pop    %rbp
  4025a6:	c3                   	retq   
  4025a7:	90                   	nop

00000000004025a8 <_ZNSt12_Vector_baseISsSaISsEE11_M_allocateEm>:
  4025a8:	55                   	push   %rbp
  4025a9:	48 89 e5             	mov    %rsp,%rbp
  4025ac:	48 83 ec 10          	sub    $0x10,%rsp
  4025b0:	48 89 7d f8          	mov    %rdi,-0x8(%rbp)
  4025b4:	48 89 75 f0          	mov    %rsi,-0x10(%rbp)
  4025b8:	48 83 7d f0 00       	cmpq   $0x0,-0x10(%rbp)
  4025bd:	74 1a                	je     4025d9 <_ZNSt12_Vector_baseISsSaISsEE11_M_allocateEm+0x31>
  4025bf:	48 8b 45 f8          	mov    -0x8(%rbp),%rax
  4025c3:	48 8b 4d f0          	mov    -0x10(%rbp),%rcx
  4025c7:	ba 00 00 00 00       	mov    $0x0,%edx
  4025cc:	48 89 ce             	mov    %rcx,%rsi
  4025cf:	48 89 c7             	mov    %rax,%rdi
  4025d2:	e8 f5 01 00 00       	callq  4027cc <_ZN9__gnu_cxx13new_allocatorISsE8allocateEmPKv>
  4025d7:	eb 05                	jmp    4025de <_ZNSt12_Vector_baseISsSaISsEE11_M_allocateEm+0x36>
  4025d9:	b8 00 00 00 00       	mov    $0x0,%eax
  4025de:	c9                   	leaveq 
  4025df:	c3                   	retq   

00000000004025e0 <_ZSt34__uninitialized_move_if_noexcept_aIPSsS0_SaISsEET0_T_S3_S2_RT1_>:
  4025e0:	55                   	push   %rbp
  4025e1:	48 89 e5             	mov    %rsp,%rbp
  4025e4:	53                   	push   %rbx
  4025e5:	48 83 ec 28          	sub    $0x28,%rsp
  4025e9:	48 89 7d e8          	mov    %rdi,-0x18(%rbp)
  4025ed:	48 89 75 e0          	mov    %rsi,-0x20(%rbp)
  4025f1:	48 89 55 d8          	mov    %rdx,-0x28(%rbp)
  4025f5:	48 89 4d d0          	mov    %rcx,-0x30(%rbp)
  4025f9:	48 8b 45 e0          	mov    -0x20(%rbp),%rax
  4025fd:	48 89 c7             	mov    %rax,%rdi
  402600:	e8 09 02 00 00       	callq  40280e <_ZSt32__make_move_if_noexcept_iteratorIPSsSt13move_iteratorIS0_EET0_T_>
  402605:	48 89 c3             	mov    %rax,%rbx
  402608:	48 8b 45 e8          	mov    -0x18(%rbp),%rax
  40260c:	48 89 c7             	mov    %rax,%rdi
  40260f:	e8 fa 01 00 00       	callq  40280e <_ZSt32__make_move_if_noexcept_iteratorIPSsSt13move_iteratorIS0_EET0_T_>
  402614:	48 8b 4d d0          	mov    -0x30(%rbp),%rcx
  402618:	48 8b 55 d8          	mov    -0x28(%rbp),%rdx
  40261c:	48 89 de             	mov    %rbx,%rsi
  40261f:	48 89 c7             	mov    %rax,%rdi
  402622:	e8 0c 02 00 00       	callq  402833 <_ZSt22__uninitialized_copy_aISt13move_iteratorIPSsES1_SsET0_T_S4_S3_RSaIT1_E>
  402627:	48 83 c4 28          	add    $0x28,%rsp
  40262b:	5b                   	pop    %rbx
  40262c:	5d                   	pop    %rbp
  40262d:	c3                   	retq   

000000000040262e <_ZNSt16allocator_traitsISaISsEE7destroyISsEEvRS0_PT_>:
  40262e:	55                   	push   %rbp
  40262f:	48 89 e5             	mov    %rsp,%rbp
  402632:	48 83 ec 10          	sub    $0x10,%rsp
  402636:	48 89 7d f8          	mov    %rdi,-0x8(%rbp)
  40263a:	48 89 75 f0          	mov    %rsi,-0x10(%rbp)
  40263e:	48 8b 55 f0          	mov    -0x10(%rbp),%rdx
  402642:	48 8b 45 f8          	mov    -0x8(%rbp),%rax
  402646:	48 89 d6             	mov    %rdx,%rsi
  402649:	48 89 c7             	mov    %rax,%rdi
  40264c:	e8 13 02 00 00       	callq  402864 <_ZNSt16allocator_traitsISaISsEE10_S_destroyISsEENSt9enable_ifIXsrNS1_16__destroy_helperIT_EE5valueEvE4typeERS0_PS5_>
  402651:	c9                   	leaveq 
  402652:	c3                   	retq   
  402653:	90                   	nop

0000000000402654 <_ZNSaISsEC1Ev>:
  402654:	55                   	push   %rbp
  402655:	48 89 e5             	mov    %rsp,%rbp
  402658:	48 83 ec 10          	sub    $0x10,%rsp
  40265c:	48 89 7d f8          	mov    %rdi,-0x8(%rbp)
  402660:	48 8b 45 f8          	mov    -0x8(%rbp),%rax
  402664:	48 89 c7             	mov    %rax,%rdi
  402667:	e8 1e 02 00 00       	callq  40288a <_ZN9__gnu_cxx13new_allocatorISsEC1Ev>
  40266c:	c9                   	leaveq 
  40266d:	c3                   	retq   

000000000040266e <_ZN9__gnu_cxx13new_allocatorISsED1Ev>:
  40266e:	55                   	push   %rbp
  40266f:	48 89 e5             	mov    %rsp,%rbp
  402672:	48 89 7d f8          	mov    %rdi,-0x8(%rbp)
  402676:	5d                   	pop    %rbp
  402677:	c3                   	retq   

0000000000402678 <_ZN9__gnu_cxx13new_allocatorISsE10deallocateEPSsm>:
  402678:	55                   	push   %rbp
  402679:	48 89 e5             	mov    %rsp,%rbp
  40267c:	48 83 ec 20          	sub    $0x20,%rsp
  402680:	48 89 7d f8          	mov    %rdi,-0x8(%rbp)
  402684:	48 89 75 f0          	mov    %rsi,-0x10(%rbp)
  402688:	48 89 55 e8          	mov    %rdx,-0x18(%rbp)
  40268c:	48 8b 45 f0          	mov    -0x10(%rbp),%rax
  402690:	48 89 c7             	mov    %rax,%rdi
  402693:	e8 28 e9 ff ff       	callq  400fc0 <_ZdlPv@plt>
  402698:	c9                   	leaveq 
  402699:	c3                   	retq   

000000000040269a <_ZNSt12_Destroy_auxILb0EE9__destroyIPSsEEvT_S3_>:
  40269a:	55                   	push   %rbp
  40269b:	48 89 e5             	mov    %rsp,%rbp
  40269e:	48 83 ec 10          	sub    $0x10,%rsp
  4026a2:	48 89 7d f8          	mov    %rdi,-0x8(%rbp)
  4026a6:	48 89 75 f0          	mov    %rsi,-0x10(%rbp)
  4026aa:	eb 19                	jmp    4026c5 <_ZNSt12_Destroy_auxILb0EE9__destroyIPSsEEvT_S3_+0x2b>
  4026ac:	48 8b 45 f8          	mov    -0x8(%rbp),%rax
  4026b0:	48 89 c7             	mov    %rax,%rdi
  4026b3:	e8 dc 01 00 00       	callq  402894 <_ZSt11__addressofISsEPT_RS0_>
  4026b8:	48 89 c7             	mov    %rax,%rdi
  4026bb:	e8 e2 01 00 00       	callq  4028a2 <_ZSt8_DestroyISsEvPT_>
  4026c0:	48 83 45 f8 08       	addq   $0x8,-0x8(%rbp)
  4026c5:	48 8b 45 f8          	mov    -0x8(%rbp),%rax
  4026c9:	48 3b 45 f0          	cmp    -0x10(%rbp),%rax
  4026cd:	75 dd                	jne    4026ac <_ZNSt12_Destroy_auxILb0EE9__destroyIPSsEEvT_S3_+0x12>
  4026cf:	c9                   	leaveq 
  4026d0:	c3                   	retq   

00000000004026d1 <_ZNSt16allocator_traitsISaISsEE12_S_constructISsISsEEENSt9enable_ifIXsrNS1_18__construct_helperIT_IDpT0_EEE5valueEvE4typeERS0_PS5_DpOS6_>:
  4026d1:	55                   	push   %rbp
  4026d2:	48 89 e5             	mov    %rsp,%rbp
  4026d5:	48 83 ec 20          	sub    $0x20,%rsp
  4026d9:	48 89 7d f8          	mov    %rdi,-0x8(%rbp)
  4026dd:	48 89 75 f0          	mov    %rsi,-0x10(%rbp)
  4026e1:	48 89 55 e8          	mov    %rdx,-0x18(%rbp)
  4026e5:	48 8b 45 e8          	mov    -0x18(%rbp),%rax
  4026e9:	48 89 c7             	mov    %rax,%rdi
  4026ec:	e8 04 f8 ff ff       	callq  401ef5 <_ZSt7forwardISsEOT_RNSt16remove_referenceIS0_E4typeE>
  4026f1:	48 89 c2             	mov    %rax,%rdx
  4026f4:	48 8b 4d f0          	mov    -0x10(%rbp),%rcx
  4026f8:	48 8b 45 f8          	mov    -0x8(%rbp),%rax
  4026fc:	48 89 ce             	mov    %rcx,%rsi
  4026ff:	48 89 c7             	mov    %rax,%rdi
  402702:	e8 b5 01 00 00       	callq  4028bc <_ZN9__gnu_cxx13new_allocatorISsE9constructISsISsEEEvPT_DpOT0_>
  402707:	c9                   	leaveq 
  402708:	c3                   	retq   
  402709:	90                   	nop

000000000040270a <_ZN9__gnu_cxx13new_allocatorISsE9constructISsIRKSsEEEvPT_DpOT0_>:
  40270a:	55                   	push   %rbp
  40270b:	48 89 e5             	mov    %rsp,%rbp
  40270e:	41 55                	push   %r13
  402710:	41 54                	push   %r12
  402712:	53                   	push   %rbx
  402713:	48 83 ec 28          	sub    $0x28,%rsp
  402717:	48 89 7d d8          	mov    %rdi,-0x28(%rbp)
  40271b:	48 89 75 d0          	mov    %rsi,-0x30(%rbp)
  40271f:	48 89 55 c8          	mov    %rdx,-0x38(%rbp)
  402723:	48 8b 45 c8          	mov    -0x38(%rbp),%rax
  402727:	48 89 c7             	mov    %rax,%rdi
  40272a:	e8 d3 f5 ff ff       	callq  401d02 <_ZSt7forwardIRKSsEOT_RNSt16remove_referenceIS2_E4typeE>
  40272f:	49 89 c5             	mov    %rax,%r13
  402732:	4c 8b 65 d0          	mov    -0x30(%rbp),%r12
  402736:	4c 89 e6             	mov    %r12,%rsi
  402739:	bf 08 00 00 00       	mov    $0x8,%edi
  40273e:	e8 bd f4 ff ff       	callq  401c00 <_ZnwmPv>
  402743:	48 89 c3             	mov    %rax,%rbx
  402746:	48 85 db             	test   %rbx,%rbx
  402749:	74 0d                	je     402758 <_ZN9__gnu_cxx13new_allocatorISsE9constructISsIRKSsEEEvPT_DpOT0_+0x4e>
  40274b:	4c 89 ee             	mov    %r13,%rsi
  40274e:	48 89 df             	mov    %rbx,%rdi
  402751:	e8 ca e8 ff ff       	callq  401020 <_ZNSsC1ERKSs@plt>
  402756:	eb 1b                	jmp    402773 <_ZN9__gnu_cxx13new_allocatorISsE9constructISsIRKSsEEEvPT_DpOT0_+0x69>
  402758:	eb 19                	jmp    402773 <_ZN9__gnu_cxx13new_allocatorISsE9constructISsIRKSsEEEvPT_DpOT0_+0x69>
  40275a:	49 89 c5             	mov    %rax,%r13
  40275d:	4c 89 e6             	mov    %r12,%rsi
  402760:	48 89 df             	mov    %rbx,%rdi
  402763:	e8 aa f4 ff ff       	callq  401c12 <_ZdlPvS_>
  402768:	4c 89 e8             	mov    %r13,%rax
  40276b:	48 89 c7             	mov    %rax,%rdi
  40276e:	e8 1d ea ff ff       	callq  401190 <_Unwind_Resume@plt>
  402773:	48 83 c4 28          	add    $0x28,%rsp
  402777:	5b                   	pop    %rbx
  402778:	41 5c                	pop    %r12
  40277a:	41 5d                	pop    %r13
  40277c:	5d                   	pop    %rbp
  40277d:	c3                   	retq   

000000000040277e <_ZNKSt6vectorISsSaISsEE8max_sizeEv>:
  40277e:	55                   	push   %rbp
  40277f:	48 89 e5             	mov    %rsp,%rbp
  402782:	48 83 ec 10          	sub    $0x10,%rsp
  402786:	48 89 7d f8          	mov    %rdi,-0x8(%rbp)
  40278a:	48 8b 45 f8          	mov    -0x8(%rbp),%rax
  40278e:	48 89 c7             	mov    %rax,%rdi
  402791:	e8 8c 01 00 00       	callq  402922 <_ZNKSt12_Vector_baseISsSaISsEE19_M_get_Tp_allocatorEv>
  402796:	48 89 c7             	mov    %rax,%rdi
  402799:	e8 6a 01 00 00       	callq  402908 <_ZNSt16allocator_traitsISaISsEE8max_sizeERKS0_>
  40279e:	c9                   	leaveq 
  40279f:	c3                   	retq   

00000000004027a0 <_ZSt3maxImERKT_S2_S2_>:
  4027a0:	55                   	push   %rbp
  4027a1:	48 89 e5             	mov    %rsp,%rbp
  4027a4:	48 89 7d f8          	mov    %rdi,-0x8(%rbp)
  4027a8:	48 89 75 f0          	mov    %rsi,-0x10(%rbp)
  4027ac:	48 8b 45 f8          	mov    -0x8(%rbp),%rax
  4027b0:	48 8b 10             	mov    (%rax),%rdx
  4027b3:	48 8b 45 f0          	mov    -0x10(%rbp),%rax
  4027b7:	48 8b 00             	mov    (%rax),%rax
  4027ba:	48 39 c2             	cmp    %rax,%rdx
  4027bd:	73 06                	jae    4027c5 <_ZSt3maxImERKT_S2_S2_+0x25>
  4027bf:	48 8b 45 f0          	mov    -0x10(%rbp),%rax
  4027c3:	eb 04                	jmp    4027c9 <_ZSt3maxImERKT_S2_S2_+0x29>
  4027c5:	48 8b 45 f8          	mov    -0x8(%rbp),%rax
  4027c9:	5d                   	pop    %rbp
  4027ca:	c3                   	retq   
  4027cb:	90                   	nop

00000000004027cc <_ZN9__gnu_cxx13new_allocatorISsE8allocateEmPKv>:
  4027cc:	55                   	push   %rbp
  4027cd:	48 89 e5             	mov    %rsp,%rbp
  4027d0:	48 83 ec 20          	sub    $0x20,%rsp
  4027d4:	48 89 7d f8          	mov    %rdi,-0x8(%rbp)
  4027d8:	48 89 75 f0          	mov    %rsi,-0x10(%rbp)
  4027dc:	48 89 55 e8          	mov    %rdx,-0x18(%rbp)
  4027e0:	48 8b 45 f8          	mov    -0x8(%rbp),%rax
  4027e4:	48 89 c7             	mov    %rax,%rdi
  4027e7:	e8 44 01 00 00       	callq  402930 <_ZNK9__gnu_cxx13new_allocatorISsE8max_sizeEv>
  4027ec:	48 3b 45 f0          	cmp    -0x10(%rbp),%rax
  4027f0:	0f 92 c0             	setb   %al
  4027f3:	84 c0                	test   %al,%al
  4027f5:	74 05                	je     4027fc <_ZN9__gnu_cxx13new_allocatorISsE8allocateEmPKv+0x30>
  4027f7:	e8 14 e9 ff ff       	callq  401110 <_ZSt17__throw_bad_allocv@plt>
  4027fc:	48 8b 45 f0          	mov    -0x10(%rbp),%rax
  402800:	48 c1 e0 03          	shl    $0x3,%rax
  402804:	48 89 c7             	mov    %rax,%rdi
  402807:	e8 74 e9 ff ff       	callq  401180 <_Znwm@plt>
  40280c:	c9                   	leaveq 
  40280d:	c3                   	retq   

000000000040280e <_ZSt32__make_move_if_noexcept_iteratorIPSsSt13move_iteratorIS0_EET0_T_>:
  40280e:	55                   	push   %rbp
  40280f:	48 89 e5             	mov    %rsp,%rbp
  402812:	48 83 ec 20          	sub    $0x20,%rsp
  402816:	48 89 7d e8          	mov    %rdi,-0x18(%rbp)
  40281a:	48 8b 55 e8          	mov    -0x18(%rbp),%rdx
  40281e:	48 8d 45 f0          	lea    -0x10(%rbp),%rax
  402822:	48 89 d6             	mov    %rdx,%rsi
  402825:	48 89 c7             	mov    %rax,%rdi
  402828:	e8 17 01 00 00       	callq  402944 <_ZNSt13move_iteratorIPSsEC1ES0_>
  40282d:	48 8b 45 f0          	mov    -0x10(%rbp),%rax
  402831:	c9                   	leaveq 
  402832:	c3                   	retq   

0000000000402833 <_ZSt22__uninitialized_copy_aISt13move_iteratorIPSsES1_SsET0_T_S4_S3_RSaIT1_E>:
  402833:	55                   	push   %rbp
  402834:	48 89 e5             	mov    %rsp,%rbp
  402837:	48 83 ec 20          	sub    $0x20,%rsp
  40283b:	48 89 7d f0          	mov    %rdi,-0x10(%rbp)
  40283f:	48 89 75 e0          	mov    %rsi,-0x20(%rbp)
  402843:	48 89 55 e8          	mov    %rdx,-0x18(%rbp)
  402847:	48 89 4d f8          	mov    %rcx,-0x8(%rbp)
  40284b:	48 8b 55 e8          	mov    -0x18(%rbp),%rdx
  40284f:	48 8b 4d e0          	mov    -0x20(%rbp),%rcx
  402853:	48 8b 45 f0          	mov    -0x10(%rbp),%rax
  402857:	48 89 ce             	mov    %rcx,%rsi
  40285a:	48 89 c7             	mov    %rax,%rdi
  40285d:	e8 fb 00 00 00       	callq  40295d <_ZSt18uninitialized_copyISt13move_iteratorIPSsES1_ET0_T_S4_S3_>
  402862:	c9                   	leaveq 
  402863:	c3                   	retq   

0000000000402864 <_ZNSt16allocator_traitsISaISsEE10_S_destroyISsEENSt9enable_ifIXsrNS1_16__destroy_helperIT_EE5valueEvE4typeERS0_PS5_>:
  402864:	55                   	push   %rbp
  402865:	48 89 e5             	mov    %rsp,%rbp
  402868:	48 83 ec 10          	sub    $0x10,%rsp
  40286c:	48 89 7d f8          	mov    %rdi,-0x8(%rbp)
  402870:	48 89 75 f0          	mov    %rsi,-0x10(%rbp)
  402874:	48 8b 55 f0          	mov    -0x10(%rbp),%rdx
  402878:	48 8b 45 f8          	mov    -0x8(%rbp),%rax
  40287c:	48 89 d6             	mov    %rdx,%rsi
  40287f:	48 89 c7             	mov    %rax,%rdi
  402882:	e8 03 01 00 00       	callq  40298a <_ZN9__gnu_cxx13new_allocatorISsE7destroyISsEEvPT_>
  402887:	c9                   	leaveq 
  402888:	c3                   	retq   
  402889:	90                   	nop

000000000040288a <_ZN9__gnu_cxx13new_allocatorISsEC1Ev>:
  40288a:	55                   	push   %rbp
  40288b:	48 89 e5             	mov    %rsp,%rbp
  40288e:	48 89 7d f8          	mov    %rdi,-0x8(%rbp)
  402892:	5d                   	pop    %rbp
  402893:	c3                   	retq   

0000000000402894 <_ZSt11__addressofISsEPT_RS0_>:
  402894:	55                   	push   %rbp
  402895:	48 89 e5             	mov    %rsp,%rbp
  402898:	48 89 7d f8          	mov    %rdi,-0x8(%rbp)
  40289c:	48 8b 45 f8          	mov    -0x8(%rbp),%rax
  4028a0:	5d                   	pop    %rbp
  4028a1:	c3                   	retq   

00000000004028a2 <_ZSt8_DestroyISsEvPT_>:
  4028a2:	55                   	push   %rbp
  4028a3:	48 89 e5             	mov    %rsp,%rbp
  4028a6:	48 83 ec 10          	sub    $0x10,%rsp
  4028aa:	48 89 7d f8          	mov    %rdi,-0x8(%rbp)
  4028ae:	48 8b 45 f8          	mov    -0x8(%rbp),%rax
  4028b2:	48 89 c7             	mov    %rax,%rdi
  4028b5:	e8 76 e7 ff ff       	callq  401030 <_ZNSsD1Ev@plt>
  4028ba:	c9                   	leaveq 
  4028bb:	c3                   	retq   

00000000004028bc <_ZN9__gnu_cxx13new_allocatorISsE9constructISsISsEEEvPT_DpOT0_>:
  4028bc:	55                   	push   %rbp
  4028bd:	48 89 e5             	mov    %rsp,%rbp
  4028c0:	53                   	push   %rbx
  4028c1:	48 83 ec 28          	sub    $0x28,%rsp
  4028c5:	48 89 7d e8          	mov    %rdi,-0x18(%rbp)
  4028c9:	48 89 75 e0          	mov    %rsi,-0x20(%rbp)
  4028cd:	48 89 55 d8          	mov    %rdx,-0x28(%rbp)
  4028d1:	48 8b 45 d8          	mov    -0x28(%rbp),%rax
  4028d5:	48 89 c7             	mov    %rax,%rdi
  4028d8:	e8 18 f6 ff ff       	callq  401ef5 <_ZSt7forwardISsEOT_RNSt16remove_referenceIS0_E4typeE>
  4028dd:	48 89 c3             	mov    %rax,%rbx
  4028e0:	48 8b 45 e0          	mov    -0x20(%rbp),%rax
  4028e4:	48 89 c6             	mov    %rax,%rsi
  4028e7:	bf 08 00 00 00       	mov    $0x8,%edi
  4028ec:	e8 0f f3 ff ff       	callq  401c00 <_ZnwmPv>
  4028f1:	48 85 c0             	test   %rax,%rax
  4028f4:	74 0b                	je     402901 <_ZN9__gnu_cxx13new_allocatorISsE9constructISsISsEEEvPT_DpOT0_+0x45>
  4028f6:	48 89 de             	mov    %rbx,%rsi
  4028f9:	48 89 c7             	mov    %rax,%rdi
  4028fc:	e8 5f e8 ff ff       	callq  401160 <_ZNSsC1EOSs@plt>
  402901:	48 83 c4 28          	add    $0x28,%rsp
  402905:	5b                   	pop    %rbx
  402906:	5d                   	pop    %rbp
  402907:	c3                   	retq   

0000000000402908 <_ZNSt16allocator_traitsISaISsEE8max_sizeERKS0_>:
  402908:	55                   	push   %rbp
  402909:	48 89 e5             	mov    %rsp,%rbp
  40290c:	48 83 ec 10          	sub    $0x10,%rsp
  402910:	48 89 7d f8          	mov    %rdi,-0x8(%rbp)
  402914:	48 8b 45 f8          	mov    -0x8(%rbp),%rax
  402918:	48 89 c7             	mov    %rax,%rdi
  40291b:	e8 88 00 00 00       	callq  4029a8 <_ZNSt16allocator_traitsISaISsEE11_S_max_sizeIKS0_EENSt9enable_ifIXsrNS1_16__maxsize_helperIT_EE5valueEmE4typeERS6_>
  402920:	c9                   	leaveq 
  402921:	c3                   	retq   

0000000000402922 <_ZNKSt12_Vector_baseISsSaISsEE19_M_get_Tp_allocatorEv>:
  402922:	55                   	push   %rbp
  402923:	48 89 e5             	mov    %rsp,%rbp
  402926:	48 89 7d f8          	mov    %rdi,-0x8(%rbp)
  40292a:	48 8b 45 f8          	mov    -0x8(%rbp),%rax
  40292e:	5d                   	pop    %rbp
  40292f:	c3                   	retq   

0000000000402930 <_ZNK9__gnu_cxx13new_allocatorISsE8max_sizeEv>:
  402930:	55                   	push   %rbp
  402931:	48 89 e5             	mov    %rsp,%rbp
  402934:	48 89 7d f8          	mov    %rdi,-0x8(%rbp)
  402938:	48 b8 ff ff ff ff ff 	movabs $0x1fffffffffffffff,%rax
  40293f:	ff ff 1f 
  402942:	5d                   	pop    %rbp
  402943:	c3                   	retq   

0000000000402944 <_ZNSt13move_iteratorIPSsEC1ES0_>:
  402944:	55                   	push   %rbp
  402945:	48 89 e5             	mov    %rsp,%rbp
  402948:	48 89 7d f8          	mov    %rdi,-0x8(%rbp)
  40294c:	48 89 75 f0          	mov    %rsi,-0x10(%rbp)
  402950:	48 8b 45 f8          	mov    -0x8(%rbp),%rax
  402954:	48 8b 55 f0          	mov    -0x10(%rbp),%rdx
  402958:	48 89 10             	mov    %rdx,(%rax)
  40295b:	5d                   	pop    %rbp
  40295c:	c3                   	retq   

000000000040295d <_ZSt18uninitialized_copyISt13move_iteratorIPSsES1_ET0_T_S4_S3_>:
  40295d:	55                   	push   %rbp
  40295e:	48 89 e5             	mov    %rsp,%rbp
  402961:	48 83 ec 20          	sub    $0x20,%rsp
  402965:	48 89 7d f0          	mov    %rdi,-0x10(%rbp)
  402969:	48 89 75 e0          	mov    %rsi,-0x20(%rbp)
  40296d:	48 89 55 e8          	mov    %rdx,-0x18(%rbp)
  402971:	48 8b 55 e8          	mov    -0x18(%rbp),%rdx
  402975:	48 8b 4d e0          	mov    -0x20(%rbp),%rcx
  402979:	48 8b 45 f0          	mov    -0x10(%rbp),%rax
  40297d:	48 89 ce             	mov    %rcx,%rsi
  402980:	48 89 c7             	mov    %rax,%rdi
  402983:	e8 3a 00 00 00       	callq  4029c2 <_ZNSt20__uninitialized_copyILb0EE13__uninit_copyISt13move_iteratorIPSsES3_EET0_T_S6_S5_>
  402988:	c9                   	leaveq 
  402989:	c3                   	retq   

000000000040298a <_ZN9__gnu_cxx13new_allocatorISsE7destroyISsEEvPT_>:
  40298a:	55                   	push   %rbp
  40298b:	48 89 e5             	mov    %rsp,%rbp
  40298e:	48 83 ec 10          	sub    $0x10,%rsp
  402992:	48 89 7d f8          	mov    %rdi,-0x8(%rbp)
  402996:	48 89 75 f0          	mov    %rsi,-0x10(%rbp)
  40299a:	48 8b 45 f0          	mov    -0x10(%rbp),%rax
  40299e:	48 89 c7             	mov    %rax,%rdi
  4029a1:	e8 8a e6 ff ff       	callq  401030 <_ZNSsD1Ev@plt>
  4029a6:	c9                   	leaveq 
  4029a7:	c3                   	retq   

00000000004029a8 <_ZNSt16allocator_traitsISaISsEE11_S_max_sizeIKS0_EENSt9enable_ifIXsrNS1_16__maxsize_helperIT_EE5valueEmE4typeERS6_>:
  4029a8:	55                   	push   %rbp
  4029a9:	48 89 e5             	mov    %rsp,%rbp
  4029ac:	48 83 ec 10          	sub    $0x10,%rsp
  4029b0:	48 89 7d f8          	mov    %rdi,-0x8(%rbp)
  4029b4:	48 8b 45 f8          	mov    -0x8(%rbp),%rax
  4029b8:	48 89 c7             	mov    %rax,%rdi
  4029bb:	e8 70 ff ff ff       	callq  402930 <_ZNK9__gnu_cxx13new_allocatorISsE8max_sizeEv>
  4029c0:	c9                   	leaveq 
  4029c1:	c3                   	retq   

00000000004029c2 <_ZNSt20__uninitialized_copyILb0EE13__uninit_copyISt13move_iteratorIPSsES3_EET0_T_S6_S5_>:
  4029c2:	55                   	push   %rbp
  4029c3:	48 89 e5             	mov    %rsp,%rbp
  4029c6:	53                   	push   %rbx
  4029c7:	48 83 ec 38          	sub    $0x38,%rsp
  4029cb:	48 89 7d d0          	mov    %rdi,-0x30(%rbp)
  4029cf:	48 89 75 c0          	mov    %rsi,-0x40(%rbp)
  4029d3:	48 89 55 c8          	mov    %rdx,-0x38(%rbp)
  4029d7:	48 8b 45 c8          	mov    -0x38(%rbp),%rax
  4029db:	48 89 45 e8          	mov    %rax,-0x18(%rbp)
  4029df:	eb 37                	jmp    402a18 <_ZNSt20__uninitialized_copyILb0EE13__uninit_copyISt13move_iteratorIPSsES3_EET0_T_S6_S5_+0x56>
  4029e1:	48 8d 45 d0          	lea    -0x30(%rbp),%rax
  4029e5:	48 89 c7             	mov    %rax,%rdi
  4029e8:	e8 cb 00 00 00       	callq  402ab8 <_ZNKSt13move_iteratorIPSsEdeEv>
  4029ed:	48 89 c3             	mov    %rax,%rbx
  4029f0:	48 8b 45 e8          	mov    -0x18(%rbp),%rax
  4029f4:	48 89 c7             	mov    %rax,%rdi
  4029f7:	e8 98 fe ff ff       	callq  402894 <_ZSt11__addressofISsEPT_RS0_>
  4029fc:	48 89 de             	mov    %rbx,%rsi
  4029ff:	48 89 c7             	mov    %rax,%rdi
  402a02:	e8 ce 00 00 00       	callq  402ad5 <_ZSt10_ConstructISsISsEEvPT_DpOT0_>
  402a07:	48 8d 45 d0          	lea    -0x30(%rbp),%rax
  402a0b:	48 89 c7             	mov    %rax,%rdi
  402a0e:	e8 85 00 00 00       	callq  402a98 <_ZNSt13move_iteratorIPSsEppEv>
  402a13:	48 83 45 e8 08       	addq   $0x8,-0x18(%rbp)
  402a18:	48 8d 55 c0          	lea    -0x40(%rbp),%rdx
  402a1c:	48 8d 45 d0          	lea    -0x30(%rbp),%rax
  402a20:	48 89 d6             	mov    %rdx,%rsi
  402a23:	48 89 c7             	mov    %rax,%rdi
  402a26:	e8 44 00 00 00       	callq  402a6f <_ZStneIPSsEbRKSt13move_iteratorIT_ES5_>
  402a2b:	84 c0                	test   %al,%al
  402a2d:	75 b2                	jne    4029e1 <_ZNSt20__uninitialized_copyILb0EE13__uninit_copyISt13move_iteratorIPSsES3_EET0_T_S6_S5_+0x1f>
  402a2f:	48 8b 45 e8          	mov    -0x18(%rbp),%rax
  402a33:	eb 33                	jmp    402a68 <_ZNSt20__uninitialized_copyILb0EE13__uninit_copyISt13move_iteratorIPSsES3_EET0_T_S6_S5_+0xa6>
  402a35:	48 89 c3             	mov    %rax,%rbx
  402a38:	e8 c3 e6 ff ff       	callq  401100 <__cxa_end_catch@plt>
  402a3d:	48 89 d8             	mov    %rbx,%rax
  402a40:	48 89 c7             	mov    %rax,%rdi
  402a43:	e8 48 e7 ff ff       	callq  401190 <_Unwind_Resume@plt>
  402a48:	48 89 c7             	mov    %rax,%rdi
  402a4b:	e8 d0 e6 ff ff       	callq  401120 <__cxa_begin_catch@plt>
  402a50:	48 8b 55 e8          	mov    -0x18(%rbp),%rdx
  402a54:	48 8b 45 c8          	mov    -0x38(%rbp),%rax
  402a58:	48 89 d6             	mov    %rdx,%rsi
  402a5b:	48 89 c7             	mov    %rax,%rdi
  402a5e:	e8 fb f7 ff ff       	callq  40225e <_ZSt8_DestroyIPSsEvT_S1_>
  402a63:	e8 78 e5 ff ff       	callq  400fe0 <__cxa_rethrow@plt>
  402a68:	48 83 c4 38          	add    $0x38,%rsp
  402a6c:	5b                   	pop    %rbx
  402a6d:	5d                   	pop    %rbp
  402a6e:	c3                   	retq   

0000000000402a6f <_ZStneIPSsEbRKSt13move_iteratorIT_ES5_>:
  402a6f:	55                   	push   %rbp
  402a70:	48 89 e5             	mov    %rsp,%rbp
  402a73:	48 83 ec 10          	sub    $0x10,%rsp
  402a77:	48 89 7d f8          	mov    %rdi,-0x8(%rbp)
  402a7b:	48 89 75 f0          	mov    %rsi,-0x10(%rbp)
  402a7f:	48 8b 55 f0          	mov    -0x10(%rbp),%rdx
  402a83:	48 8b 45 f8          	mov    -0x8(%rbp),%rax
  402a87:	48 89 d6             	mov    %rdx,%rsi
  402a8a:	48 89 c7             	mov    %rax,%rdi
  402a8d:	e8 8b 00 00 00       	callq  402b1d <_ZSteqIPSsEbRKSt13move_iteratorIT_ES5_>
  402a92:	83 f0 01             	xor    $0x1,%eax
  402a95:	c9                   	leaveq 
  402a96:	c3                   	retq   
  402a97:	90                   	nop

0000000000402a98 <_ZNSt13move_iteratorIPSsEppEv>:
  402a98:	55                   	push   %rbp
  402a99:	48 89 e5             	mov    %rsp,%rbp
  402a9c:	48 89 7d f8          	mov    %rdi,-0x8(%rbp)
  402aa0:	48 8b 45 f8          	mov    -0x8(%rbp),%rax
  402aa4:	48 8b 00             	mov    (%rax),%rax
  402aa7:	48 8d 50 08          	lea    0x8(%rax),%rdx
  402aab:	48 8b 45 f8          	mov    -0x8(%rbp),%rax
  402aaf:	48 89 10             	mov    %rdx,(%rax)
  402ab2:	48 8b 45 f8          	mov    -0x8(%rbp),%rax
  402ab6:	5d                   	pop    %rbp
  402ab7:	c3                   	retq   

0000000000402ab8 <_ZNKSt13move_iteratorIPSsEdeEv>:
  402ab8:	55                   	push   %rbp
  402ab9:	48 89 e5             	mov    %rsp,%rbp
  402abc:	48 83 ec 10          	sub    $0x10,%rsp
  402ac0:	48 89 7d f8          	mov    %rdi,-0x8(%rbp)
  402ac4:	48 8b 45 f8          	mov    -0x8(%rbp),%rax
  402ac8:	48 8b 00             	mov    (%rax),%rax
  402acb:	48 89 c7             	mov    %rax,%rdi
  402ace:	e8 aa f1 ff ff       	callq  401c7d <_ZSt4moveIRSsEONSt16remove_referenceIT_E4typeEOS2_>
  402ad3:	c9                   	leaveq 
  402ad4:	c3                   	retq   

0000000000402ad5 <_ZSt10_ConstructISsISsEEvPT_DpOT0_>:
  402ad5:	55                   	push   %rbp
  402ad6:	48 89 e5             	mov    %rsp,%rbp
  402ad9:	53                   	push   %rbx
  402ada:	48 83 ec 18          	sub    $0x18,%rsp
  402ade:	48 89 7d e8          	mov    %rdi,-0x18(%rbp)
  402ae2:	48 89 75 e0          	mov    %rsi,-0x20(%rbp)
  402ae6:	48 8b 45 e0          	mov    -0x20(%rbp),%rax
  402aea:	48 89 c7             	mov    %rax,%rdi
  402aed:	e8 03 f4 ff ff       	callq  401ef5 <_ZSt7forwardISsEOT_RNSt16remove_referenceIS0_E4typeE>
  402af2:	48 89 c3             	mov    %rax,%rbx
  402af5:	48 8b 45 e8          	mov    -0x18(%rbp),%rax
  402af9:	48 89 c6             	mov    %rax,%rsi
  402afc:	bf 08 00 00 00       	mov    $0x8,%edi
  402b01:	e8 fa f0 ff ff       	callq  401c00 <_ZnwmPv>
  402b06:	48 85 c0             	test   %rax,%rax
  402b09:	74 0b                	je     402b16 <_ZSt10_ConstructISsISsEEvPT_DpOT0_+0x41>
  402b0b:	48 89 de             	mov    %rbx,%rsi
  402b0e:	48 89 c7             	mov    %rax,%rdi
  402b11:	e8 4a e6 ff ff       	callq  401160 <_ZNSsC1EOSs@plt>
  402b16:	48 83 c4 18          	add    $0x18,%rsp
  402b1a:	5b                   	pop    %rbx
  402b1b:	5d                   	pop    %rbp
  402b1c:	c3                   	retq   

0000000000402b1d <_ZSteqIPSsEbRKSt13move_iteratorIT_ES5_>:
  402b1d:	55                   	push   %rbp
  402b1e:	48 89 e5             	mov    %rsp,%rbp
  402b21:	53                   	push   %rbx
  402b22:	48 83 ec 18          	sub    $0x18,%rsp
  402b26:	48 89 7d e8          	mov    %rdi,-0x18(%rbp)
  402b2a:	48 89 75 e0          	mov    %rsi,-0x20(%rbp)
  402b2e:	48 8b 45 e8          	mov    -0x18(%rbp),%rax
  402b32:	48 89 c7             	mov    %rax,%rdi
  402b35:	e8 1c 00 00 00       	callq  402b56 <_ZNKSt13move_iteratorIPSsE4baseEv>
  402b3a:	48 89 c3             	mov    %rax,%rbx
  402b3d:	48 8b 45 e0          	mov    -0x20(%rbp),%rax
  402b41:	48 89 c7             	mov    %rax,%rdi
  402b44:	e8 0d 00 00 00       	callq  402b56 <_ZNKSt13move_iteratorIPSsE4baseEv>
  402b49:	48 39 c3             	cmp    %rax,%rbx
  402b4c:	0f 94 c0             	sete   %al
  402b4f:	48 83 c4 18          	add    $0x18,%rsp
  402b53:	5b                   	pop    %rbx
  402b54:	5d                   	pop    %rbp
  402b55:	c3                   	retq   

0000000000402b56 <_ZNKSt13move_iteratorIPSsE4baseEv>:
  402b56:	55                   	push   %rbp
  402b57:	48 89 e5             	mov    %rsp,%rbp
  402b5a:	48 89 7d f8          	mov    %rdi,-0x8(%rbp)
  402b5e:	48 8b 45 f8          	mov    -0x8(%rbp),%rax
  402b62:	48 8b 00             	mov    (%rax),%rax
  402b65:	5d                   	pop    %rbp
  402b66:	c3                   	retq   
  402b67:	90                   	nop

0000000000402b68 <_Z4hashc>:
  402b68:	55                   	push   %rbp
  402b69:	48 89 e5             	mov    %rsp,%rbp
  402b6c:	89 f8                	mov    %edi,%eax
  402b6e:	88 45 fc             	mov    %al,-0x4(%rbp)
  402b71:	80 7d fc 40          	cmpb   $0x40,-0x4(%rbp)
  402b75:	7e 06                	jle    402b7d <_Z4hashc+0x15>
  402b77:	80 7d fc 7a          	cmpb   $0x7a,-0x4(%rbp)
  402b7b:	7e 07                	jle    402b84 <_Z4hashc+0x1c>
  402b7d:	b8 00 00 00 00       	mov    $0x0,%eax
  402b82:	eb 07                	jmp    402b8b <_Z4hashc+0x23>
  402b84:	0f be 45 fc          	movsbl -0x4(%rbp),%eax
  402b88:	83 e8 40             	sub    $0x40,%eax
  402b8b:	5d                   	pop    %rbp
  402b8c:	c3                   	retq   

0000000000402b8d <_Z4hashSs>:
  402b8d:	55                   	push   %rbp
  402b8e:	48 89 e5             	mov    %rsp,%rbp
  402b91:	53                   	push   %rbx
  402b92:	48 83 ec 28          	sub    $0x28,%rsp
  402b96:	48 89 7d d8          	mov    %rdi,-0x28(%rbp)
  402b9a:	c7 45 e8 00 00 00 00 	movl   $0x0,-0x18(%rbp)
  402ba1:	c7 45 ec 00 00 00 00 	movl   $0x0,-0x14(%rbp)
  402ba8:	eb 31                	jmp    402bdb <_Z4hashSs+0x4e>
  402baa:	8b 45 e8             	mov    -0x18(%rbp),%eax
  402bad:	6b d8 3a             	imul   $0x3a,%eax,%ebx
  402bb0:	8b 45 ec             	mov    -0x14(%rbp),%eax
  402bb3:	48 63 d0             	movslq %eax,%rdx
  402bb6:	48 8b 45 d8          	mov    -0x28(%rbp),%rax
  402bba:	48 89 d6             	mov    %rdx,%rsi
  402bbd:	48 89 c7             	mov    %rax,%rdi
  402bc0:	e8 db e4 ff ff       	callq  4010a0 <_ZNSsixEm@plt>
  402bc5:	0f b6 00             	movzbl (%rax),%eax
  402bc8:	0f be c0             	movsbl %al,%eax
  402bcb:	89 c7                	mov    %eax,%edi
  402bcd:	e8 96 ff ff ff       	callq  402b68 <_Z4hashc>
  402bd2:	01 d8                	add    %ebx,%eax
  402bd4:	89 45 e8             	mov    %eax,-0x18(%rbp)
  402bd7:	83 45 ec 01          	addl   $0x1,-0x14(%rbp)
  402bdb:	8b 45 ec             	mov    -0x14(%rbp),%eax
  402bde:	48 63 d8             	movslq %eax,%rbx
  402be1:	48 8b 45 d8          	mov    -0x28(%rbp),%rax
  402be5:	48 89 c7             	mov    %rax,%rdi
  402be8:	e8 03 e4 ff ff       	callq  400ff0 <_ZNKSs4sizeEv@plt>
  402bed:	48 39 c3             	cmp    %rax,%rbx
  402bf0:	0f 92 c0             	setb   %al
  402bf3:	84 c0                	test   %al,%al
  402bf5:	75 b3                	jne    402baa <_Z4hashSs+0x1d>
  402bf7:	8b 45 e8             	mov    -0x18(%rbp),%eax
  402bfa:	48 83 c4 28          	add    $0x28,%rsp
  402bfe:	5b                   	pop    %rbx
  402bff:	5d                   	pop    %rbp
  402c00:	c3                   	retq   

0000000000402c01 <_Z5splitSs>:
  402c01:	55                   	push   %rbp
  402c02:	48 89 e5             	mov    %rsp,%rbp
  402c05:	53                   	push   %rbx
  402c06:	48 83 ec 58          	sub    $0x58,%rsp
  402c0a:	48 89 7d a8          	mov    %rdi,-0x58(%rbp)
  402c0e:	48 89 75 a0          	mov    %rsi,-0x60(%rbp)
  402c12:	48 8b 45 a8          	mov    -0x58(%rbp),%rax
  402c16:	48 89 c7             	mov    %rax,%rdi
  402c19:	e8 02 f0 ff ff       	callq  401c20 <_ZNSt6vectorISsSaISsEEC1Ev>
  402c1e:	48 8d 45 c0          	lea    -0x40(%rbp),%rax
  402c22:	48 89 c7             	mov    %rax,%rdi
  402c25:	e8 16 e3 ff ff       	callq  400f40 <_ZNSsC1Ev@plt>
  402c2a:	48 8b 45 a0          	mov    -0x60(%rbp),%rax
  402c2e:	48 89 45 e8          	mov    %rax,-0x18(%rbp)
  402c32:	48 8b 45 e8          	mov    -0x18(%rbp),%rax
  402c36:	48 89 c7             	mov    %rax,%rdi
  402c39:	e8 32 e5 ff ff       	callq  401170 <_ZNSs5beginEv@plt>
  402c3e:	48 89 45 d0          	mov    %rax,-0x30(%rbp)
  402c42:	48 8b 45 e8          	mov    -0x18(%rbp),%rax
  402c46:	48 89 c7             	mov    %rax,%rdi
  402c49:	e8 02 e4 ff ff       	callq  401050 <_ZNSs3endEv@plt>
  402c4e:	48 89 45 e0          	mov    %rax,-0x20(%rbp)
  402c52:	eb 57                	jmp    402cab <_Z5splitSs+0xaa>
  402c54:	48 8d 45 d0          	lea    -0x30(%rbp),%rax
  402c58:	48 89 c7             	mov    %rax,%rdi
  402c5b:	e8 32 1c 00 00       	callq  404892 <_ZNK9__gnu_cxx17__normal_iteratorIPcSsEdeEv>
  402c60:	0f b6 00             	movzbl (%rax),%eax
  402c63:	88 45 bf             	mov    %al,-0x41(%rbp)
  402c66:	80 7d bf 20          	cmpb   $0x20,-0x41(%rbp)
  402c6a:	74 14                	je     402c80 <_Z5splitSs+0x7f>
  402c6c:	0f be 55 bf          	movsbl -0x41(%rbp),%edx
  402c70:	48 8d 45 c0          	lea    -0x40(%rbp),%rax
  402c74:	89 d6                	mov    %edx,%esi
  402c76:	48 89 c7             	mov    %rax,%rdi
  402c79:	e8 b2 e4 ff ff       	callq  401130 <_ZNSs9push_backEc@plt>
  402c7e:	eb 1f                	jmp    402c9f <_Z5splitSs+0x9e>
  402c80:	48 8d 55 c0          	lea    -0x40(%rbp),%rdx
  402c84:	48 8b 45 a8          	mov    -0x58(%rbp),%rax
  402c88:	48 89 d6             	mov    %rdx,%rsi
  402c8b:	48 89 c7             	mov    %rax,%rdi
  402c8e:	e8 7d f0 ff ff       	callq  401d10 <_ZNSt6vectorISsSaISsEE9push_backERKSs>
  402c93:	48 8d 45 c0          	lea    -0x40(%rbp),%rax
  402c97:	48 89 c7             	mov    %rax,%rdi
  402c9a:	e8 c1 e2 ff ff       	callq  400f60 <_ZNSs5clearEv@plt>
  402c9f:	48 8d 45 d0          	lea    -0x30(%rbp),%rax
  402ca3:	48 89 c7             	mov    %rax,%rdi
  402ca6:	e8 c7 1b 00 00       	callq  404872 <_ZN9__gnu_cxx17__normal_iteratorIPcSsEppEv>
  402cab:	48 8d 55 e0          	lea    -0x20(%rbp),%rdx
  402caf:	48 8d 45 d0          	lea    -0x30(%rbp),%rax
  402cb3:	48 89 d6             	mov    %rdx,%rsi
  402cb6:	48 89 c7             	mov    %rax,%rdi
  402cb9:	e8 78 1b 00 00       	callq  404836 <_ZN9__gnu_cxxneIPcSsEEbRKNS_17__normal_iteratorIT_T0_EES7_>
  402cbe:	84 c0                	test   %al,%al
  402cc0:	75 92                	jne    402c54 <_Z5splitSs+0x53>
  402cc2:	90                   	nop
  402cc3:	48 8d 45 c0          	lea    -0x40(%rbp),%rax
  402cc7:	48 89 c7             	mov    %rax,%rdi
  402cca:	e8 61 e3 ff ff       	callq  401030 <_ZNSsD1Ev@plt>
  402ccf:	eb 2b                	jmp    402cfc <_Z5splitSs+0xfb>
  402cd1:	48 89 c3             	mov    %rax,%rbx
  402cd4:	48 8d 45 c0          	lea    -0x40(%rbp),%rax
  402cd8:	48 89 c7             	mov    %rax,%rdi
  402cdb:	e8 50 e3 ff ff       	callq  401030 <_ZNSsD1Ev@plt>
  402ce0:	eb 03                	jmp    402ce5 <_Z5splitSs+0xe4>
  402ce2:	48 89 c3             	mov    %rax,%rbx
  402ce5:	48 8b 45 a8          	mov    -0x58(%rbp),%rax
  402ce9:	48 89 c7             	mov    %rax,%rdi
  402cec:	e8 49 ef ff ff       	callq  401c3a <_ZNSt6vectorISsSaISsEED1Ev>
  402cf1:	48 89 d8             	mov    %rbx,%rax
  402cf4:	48 89 c7             	mov    %rax,%rdi
  402cf7:	e8 94 e4 ff ff       	callq  401190 <_Unwind_Resume@plt>
  402cfc:	48 8b 45 a8          	mov    -0x58(%rbp),%rax
  402d00:	48 83 c4 58          	add    $0x58,%rsp
  402d04:	5b                   	pop    %rbx
  402d05:	5d                   	pop    %rbp
  402d06:	c3                   	retq   
  402d07:	90                   	nop

0000000000402d08 <_ZN6Datrie7displayEi>:
  402d08:	55                   	push   %rbp
  402d09:	48 89 e5             	mov    %rsp,%rbp
  402d0c:	41 54                	push   %r12
  402d0e:	53                   	push   %rbx
  402d0f:	48 83 ec 20          	sub    $0x20,%rsp
  402d13:	48 89 7d d8          	mov    %rdi,-0x28(%rbp)
  402d17:	89 75 d4             	mov    %esi,-0x2c(%rbp)
  402d1a:	48 8b 45 d8          	mov    -0x28(%rbp),%rax
  402d1e:	8b 40 78             	mov    0x78(%rax),%eax
  402d21:	3b 45 d4             	cmp    -0x2c(%rbp),%eax
  402d24:	7d 0a                	jge    402d30 <_ZN6Datrie7displayEi+0x28>
  402d26:	48 8b 45 d8          	mov    -0x28(%rbp),%rax
  402d2a:	8b 40 78             	mov    0x78(%rax),%eax
  402d2d:	89 45 d4             	mov    %eax,-0x2c(%rbp)
  402d30:	bf c8 95 40 00       	mov    $0x4095c8,%edi
  402d35:	e8 66 e2 ff ff       	callq  400fa0 <puts@plt>
  402d3a:	c7 45 ec 00 00 00 00 	movl   $0x0,-0x14(%rbp)
  402d41:	eb 6d                	jmp    402db0 <_ZN6Datrie7displayEi+0xa8>
  402d43:	8b 45 ec             	mov    -0x14(%rbp),%eax
  402d46:	48 98                	cltq   
  402d48:	48 8b 55 d8          	mov    -0x28(%rbp),%rdx
  402d4c:	48 83 c2 60          	add    $0x60,%rdx
  402d50:	48 89 c6             	mov    %rax,%rsi
  402d53:	48 89 d7             	mov    %rdx,%rdi
  402d56:	e8 69 1b 00 00       	callq  4048c4 <_ZNSt6vectorIiSaIiEEixEm>
  402d5b:	44 8b 20             	mov    (%rax),%r12d
  402d5e:	8b 45 ec             	mov    -0x14(%rbp),%eax
  402d61:	48 98                	cltq   
  402d63:	48 8b 55 d8          	mov    -0x28(%rbp),%rdx
  402d67:	48 83 c2 48          	add    $0x48,%rdx
  402d6b:	48 89 c6             	mov    %rax,%rsi
  402d6e:	48 89 d7             	mov    %rdx,%rdi
  402d71:	e8 2e 1b 00 00       	callq  4048a4 <_ZNSt6vectorI4nodeSaIS0_EEixEm>
  402d76:	8b 58 04             	mov    0x4(%rax),%ebx
  402d79:	8b 45 ec             	mov    -0x14(%rbp),%eax
  402d7c:	48 98                	cltq   
  402d7e:	48 8b 55 d8          	mov    -0x28(%rbp),%rdx
  402d82:	48 83 c2 48          	add    $0x48,%rdx
  402d86:	48 89 c6             	mov    %rax,%rsi
  402d89:	48 89 d7             	mov    %rdx,%rdi
  402d8c:	e8 13 1b 00 00       	callq  4048a4 <_ZNSt6vectorI4nodeSaIS0_EEixEm>
  402d91:	8b 10                	mov    (%rax),%edx
  402d93:	8b 45 ec             	mov    -0x14(%rbp),%eax
  402d96:	45 89 e0             	mov    %r12d,%r8d
  402d99:	89 d9                	mov    %ebx,%ecx
  402d9b:	89 c6                	mov    %eax,%esi
  402d9d:	bf fc 95 40 00       	mov    $0x4095fc,%edi
  402da2:	b8 00 00 00 00       	mov    $0x0,%eax
  402da7:	e8 a4 e1 ff ff       	callq  400f50 <printf@plt>
  402dac:	83 45 ec 01          	addl   $0x1,-0x14(%rbp)
  402db0:	8b 45 ec             	mov    -0x14(%rbp),%eax
  402db3:	3b 45 d4             	cmp    -0x2c(%rbp),%eax
  402db6:	7c 8b                	jl     402d43 <_ZN6Datrie7displayEi+0x3b>
  402db8:	48 83 c4 20          	add    $0x20,%rsp
  402dbc:	5b                   	pop    %rbx
  402dbd:	41 5c                	pop    %r12
  402dbf:	5d                   	pop    %rbp
  402dc0:	c3                   	retq   
  402dc1:	90                   	nop

0000000000402dc2 <_ZN6Datrie14display_remainEv>:
  402dc2:	55                   	push   %rbp
  402dc3:	48 89 e5             	mov    %rsp,%rbp
  402dc6:	48 83 ec 40          	sub    $0x40,%rsp
  402dca:	48 89 7d c8          	mov    %rdi,-0x38(%rbp)
  402dce:	48 8b 45 c8          	mov    -0x38(%rbp),%rax
  402dd2:	48 83 c0 18          	add    $0x18,%rax
  402dd6:	48 89 45 e8          	mov    %rax,-0x18(%rbp)
  402dda:	48 8b 45 e8          	mov    -0x18(%rbp),%rax
  402dde:	48 89 c7             	mov    %rax,%rdi
  402de1:	e8 fe 1a 00 00       	callq  4048e4 <_ZNSt6vectorI4areaSaIS0_EE5beginEv>
  402de6:	48 89 45 d0          	mov    %rax,-0x30(%rbp)
  402dea:	48 8b 45 e8          	mov    -0x18(%rbp),%rax
  402dee:	48 89 c7             	mov    %rax,%rdi
  402df1:	e8 14 1b 00 00       	callq  40490a <_ZNSt6vectorI4areaSaIS0_EE3endEv>
  402df6:	48 89 45 e0          	mov    %rax,-0x20(%rbp)
  402dfa:	eb 41                	jmp    402e3d <_ZN6Datrie14display_remainEv+0x7b>
  402dfc:	48 8d 45 d0          	lea    -0x30(%rbp),%rax
  402e00:	48 89 c7             	mov    %rax,%rdi
  402e03:	e8 88 1b 00 00       	callq  404990 <_ZNK9__gnu_cxx17__normal_iteratorIP4areaSt6vectorIS1_SaIS1_EEEdeEv>
  402e08:	48 89 c2             	mov    %rax,%rdx
  402e0b:	48 8d 45 f0          	lea    -0x10(%rbp),%rax
  402e0f:	48 89 d6             	mov    %rdx,%rsi
  402e12:	48 89 c7             	mov    %rax,%rdi
  402e15:	e8 54 19 00 00       	callq  40476e <_ZN4areaC1ERKS_>
  402e1a:	8b 55 f4             	mov    -0xc(%rbp),%edx
  402e1d:	8b 45 f0             	mov    -0x10(%rbp),%eax
  402e20:	89 c6                	mov    %eax,%esi
  402e22:	bf 18 96 40 00       	mov    $0x409618,%edi
  402e27:	b8 00 00 00 00       	mov    $0x0,%eax
  402e2c:	e8 1f e1 ff ff       	callq  400f50 <printf@plt>
  402e31:	48 8d 45 d0          	lea    -0x30(%rbp),%rax
  402e35:	48 89 c7             	mov    %rax,%rdi
  402e38:	e8 33 1b 00 00       	callq  404970 <_ZN9__gnu_cxx17__normal_iteratorIP4areaSt6vectorIS1_SaIS1_EEEppEv>
  402e3d:	48 8d 55 e0          	lea    -0x20(%rbp),%rdx
  402e41:	48 8d 45 d0          	lea    -0x30(%rbp),%rax
  402e45:	48 89 d6             	mov    %rdx,%rsi
  402e48:	48 89 c7             	mov    %rax,%rdi
  402e4b:	e8 e3 1a 00 00       	callq  404933 <_ZN9__gnu_cxxneIP4areaSt6vectorIS1_SaIS1_EEEEbRKNS_17__normal_iteratorIT_T0_EESB_>
  402e50:	84 c0                	test   %al,%al
  402e52:	75 a8                	jne    402dfc <_ZN6Datrie14display_remainEv+0x3a>
  402e54:	bf 0a 00 00 00       	mov    $0xa,%edi
  402e59:	e8 a2 e1 ff ff       	callq  401000 <putchar@plt>
  402e5e:	c9                   	leaveq 
  402e5f:	c3                   	retq   

0000000000402e60 <_ZN6Datrie12display_usedEv>:
  402e60:	55                   	push   %rbp
  402e61:	48 89 e5             	mov    %rsp,%rbp
  402e64:	48 83 ec 50          	sub    $0x50,%rsp
  402e68:	48 89 7d b8          	mov    %rdi,-0x48(%rbp)
  402e6c:	bf 22 96 40 00       	mov    $0x409622,%edi
  402e71:	b8 00 00 00 00       	mov    $0x0,%eax
  402e76:	e8 d5 e0 ff ff       	callq  400f50 <printf@plt>
  402e7b:	48 8b 45 b8          	mov    -0x48(%rbp),%rax
  402e7f:	48 8b 40 10          	mov    0x10(%rax),%rax
  402e83:	48 89 45 e0          	mov    %rax,-0x20(%rbp)
  402e87:	48 8b 45 e0          	mov    -0x20(%rbp),%rax
  402e8b:	48 89 c7             	mov    %rax,%rdi
  402e8e:	e8 51 1a 00 00       	callq  4048e4 <_ZNSt6vectorI4areaSaIS0_EE5beginEv>
  402e93:	48 89 45 c0          	mov    %rax,-0x40(%rbp)
  402e97:	48 8b 45 e0          	mov    -0x20(%rbp),%rax
  402e9b:	48 89 c7             	mov    %rax,%rdi
  402e9e:	e8 67 1a 00 00       	callq  40490a <_ZNSt6vectorI4areaSaIS0_EE3endEv>
  402ea3:	48 89 45 d0          	mov    %rax,-0x30(%rbp)
  402ea7:	eb 41                	jmp    402eea <_ZN6Datrie12display_usedEv+0x8a>
  402ea9:	48 8d 45 c0          	lea    -0x40(%rbp),%rax
  402ead:	48 89 c7             	mov    %rax,%rdi
  402eb0:	e8 db 1a 00 00       	callq  404990 <_ZNK9__gnu_cxx17__normal_iteratorIP4areaSt6vectorIS1_SaIS1_EEEdeEv>
  402eb5:	48 89 c2             	mov    %rax,%rdx
  402eb8:	48 8d 45 f0          	lea    -0x10(%rbp),%rax
  402ebc:	48 89 d6             	mov    %rdx,%rsi
  402ebf:	48 89 c7             	mov    %rax,%rdi
  402ec2:	e8 a7 18 00 00       	callq  40476e <_ZN4areaC1ERKS_>
  402ec7:	8b 55 f4             	mov    -0xc(%rbp),%edx
  402eca:	8b 45 f0             	mov    -0x10(%rbp),%eax
  402ecd:	89 c6                	mov    %eax,%esi
  402ecf:	bf 18 96 40 00       	mov    $0x409618,%edi
  402ed4:	b8 00 00 00 00       	mov    $0x0,%eax
  402ed9:	e8 72 e0 ff ff       	callq  400f50 <printf@plt>
  402ede:	48 8d 45 c0          	lea    -0x40(%rbp),%rax
  402ee2:	48 89 c7             	mov    %rax,%rdi
  402ee5:	e8 86 1a 00 00       	callq  404970 <_ZN9__gnu_cxx17__normal_iteratorIP4areaSt6vectorIS1_SaIS1_EEEppEv>
  402eea:	48 8d 55 d0          	lea    -0x30(%rbp),%rdx
  402eee:	48 8d 45 c0          	lea    -0x40(%rbp),%rax
  402ef2:	48 89 d6             	mov    %rdx,%rsi
  402ef5:	48 89 c7             	mov    %rax,%rdi
  402ef8:	e8 36 1a 00 00       	callq  404933 <_ZN9__gnu_cxxneIP4areaSt6vectorIS1_SaIS1_EEEEbRKNS_17__normal_iteratorIT_T0_EESB_>
  402efd:	84 c0                	test   %al,%al
  402eff:	75 a8                	jne    402ea9 <_ZN6Datrie12display_usedEv+0x49>
  402f01:	bf 0a 00 00 00       	mov    $0xa,%edi
  402f06:	e8 f5 e0 ff ff       	callq  401000 <putchar@plt>
  402f0b:	bf 29 96 40 00       	mov    $0x409629,%edi
  402f10:	b8 00 00 00 00       	mov    $0x0,%eax
  402f15:	e8 36 e0 ff ff       	callq  400f50 <printf@plt>
  402f1a:	48 8b 45 b8          	mov    -0x48(%rbp),%rax
  402f1e:	48 8b 40 10          	mov    0x10(%rax),%rax
  402f22:	48 83 c0 18          	add    $0x18,%rax
  402f26:	48 89 45 e8          	mov    %rax,-0x18(%rbp)
  402f2a:	48 8b 45 e8          	mov    -0x18(%rbp),%rax
  402f2e:	48 89 c7             	mov    %rax,%rdi
  402f31:	e8 ae 19 00 00       	callq  4048e4 <_ZNSt6vectorI4areaSaIS0_EE5beginEv>
  402f36:	48 89 45 c0          	mov    %rax,-0x40(%rbp)
  402f3a:	48 8b 45 e8          	mov    -0x18(%rbp),%rax
  402f3e:	48 89 c7             	mov    %rax,%rdi
  402f41:	e8 c4 19 00 00       	callq  40490a <_ZNSt6vectorI4areaSaIS0_EE3endEv>
  402f46:	48 89 45 d0          	mov    %rax,-0x30(%rbp)
  402f4a:	eb 41                	jmp    402f8d <_ZN6Datrie12display_usedEv+0x12d>
  402f4c:	48 8d 45 c0          	lea    -0x40(%rbp),%rax
  402f50:	48 89 c7             	mov    %rax,%rdi
  402f53:	e8 38 1a 00 00       	callq  404990 <_ZNK9__gnu_cxx17__normal_iteratorIP4areaSt6vectorIS1_SaIS1_EEEdeEv>
  402f58:	48 89 c2             	mov    %rax,%rdx
  402f5b:	48 8d 45 f0          	lea    -0x10(%rbp),%rax
  402f5f:	48 89 d6             	mov    %rdx,%rsi
  402f62:	48 89 c7             	mov    %rax,%rdi
  402f65:	e8 04 18 00 00       	callq  40476e <_ZN4areaC1ERKS_>
  402f6a:	8b 55 f4             	mov    -0xc(%rbp),%edx
  402f6d:	8b 45 f0             	mov    -0x10(%rbp),%eax
  402f70:	89 c6                	mov    %eax,%esi
  402f72:	bf 18 96 40 00       	mov    $0x409618,%edi
  402f77:	b8 00 00 00 00       	mov    $0x0,%eax
  402f7c:	e8 cf df ff ff       	callq  400f50 <printf@plt>
  402f81:	48 8d 45 c0          	lea    -0x40(%rbp),%rax
  402f85:	48 89 c7             	mov    %rax,%rdi
  402f88:	e8 e3 19 00 00       	callq  404970 <_ZN9__gnu_cxx17__normal_iteratorIP4areaSt6vectorIS1_SaIS1_EEEppEv>
  402f8d:	48 8d 55 d0          	lea    -0x30(%rbp),%rdx
  402f91:	48 8d 45 c0          	lea    -0x40(%rbp),%rax
  402f95:	48 89 d6             	mov    %rdx,%rsi
  402f98:	48 89 c7             	mov    %rax,%rdi
  402f9b:	e8 93 19 00 00       	callq  404933 <_ZN9__gnu_cxxneIP4areaSt6vectorIS1_SaIS1_EEEEbRKNS_17__normal_iteratorIT_T0_EESB_>
  402fa0:	84 c0                	test   %al,%al
  402fa2:	75 a8                	jne    402f4c <_ZN6Datrie12display_usedEv+0xec>
  402fa4:	bf 0a 00 00 00       	mov    $0xa,%edi
  402fa9:	e8 52 e0 ff ff       	callq  401000 <putchar@plt>
  402fae:	c9                   	leaveq 
  402faf:	c3                   	retq   

0000000000402fb0 <_ZN6DatrieC1Ev>:
  402fb0:	55                   	push   %rbp
  402fb1:	48 89 e5             	mov    %rsp,%rbp
  402fb4:	41 54                	push   %r12
  402fb6:	53                   	push   %rbx
  402fb7:	48 83 ec 20          	sub    $0x20,%rsp
  402fbb:	48 89 7d d8          	mov    %rdi,-0x28(%rbp)
  402fbf:	48 8b 45 d8          	mov    -0x28(%rbp),%rax
  402fc3:	c7 00 ff ff ff ff    	movl   $0xffffffff,(%rax)
  402fc9:	48 8b 45 d8          	mov    -0x28(%rbp),%rax
  402fcd:	c7 40 04 fe ff ff ff 	movl   $0xfffffffe,0x4(%rax)
  402fd4:	48 8b 45 d8          	mov    -0x28(%rbp),%rax
  402fd8:	c7 40 08 fd ff ff ff 	movl   $0xfffffffd,0x8(%rax)
  402fdf:	48 8b 45 d8          	mov    -0x28(%rbp),%rax
  402fe3:	c7 40 0c ff ff ff ff 	movl   $0xffffffff,0xc(%rax)
  402fea:	48 8b 45 d8          	mov    -0x28(%rbp),%rax
  402fee:	48 83 c0 18          	add    $0x18,%rax
  402ff2:	48 89 c7             	mov    %rax,%rdi
  402ff5:	e8 a8 19 00 00       	callq  4049a2 <_ZNSt6vectorI4areaSaIS0_EEC1Ev>
  402ffa:	48 8b 45 d8          	mov    -0x28(%rbp),%rax
  402ffe:	48 83 c0 30          	add    $0x30,%rax
  403002:	48 89 c7             	mov    %rax,%rdi
  403005:	e8 98 19 00 00       	callq  4049a2 <_ZNSt6vectorI4areaSaIS0_EEC1Ev>
  40300a:	48 8b 45 d8          	mov    -0x28(%rbp),%rax
  40300e:	48 83 c0 48          	add    $0x48,%rax
  403012:	48 89 c7             	mov    %rax,%rdi
  403015:	e8 e6 19 00 00       	callq  404a00 <_ZNSt6vectorI4nodeSaIS0_EEC1Ev>
  40301a:	48 8b 45 d8          	mov    -0x28(%rbp),%rax
  40301e:	48 83 c0 60          	add    $0x60,%rax
  403022:	48 89 c7             	mov    %rax,%rdi
  403025:	e8 34 1a 00 00       	callq  404a5e <_ZNSt6vectorIiSaIiEEC1Ev>
  40302a:	48 8b 45 d8          	mov    -0x28(%rbp),%rax
  40302e:	c7 40 78 80 00 00 00 	movl   $0x80,0x78(%rax)
  403035:	48 8b 45 d8          	mov    -0x28(%rbp),%rax
  403039:	c7 40 7c 00 00 00 00 	movl   $0x0,0x7c(%rax)
  403040:	48 8b 45 d8          	mov    -0x28(%rbp),%rax
  403044:	8b 10                	mov    (%rax),%edx
  403046:	48 8d 45 e0          	lea    -0x20(%rbp),%rax
  40304a:	be 01 00 00 00       	mov    $0x1,%esi
  40304f:	48 89 c7             	mov    %rax,%rdi
  403052:	e8 99 16 00 00       	callq  4046f0 <_ZN4nodeC1Eii>
  403057:	48 8b 45 d8          	mov    -0x28(%rbp),%rax
  40305b:	48 8d 50 48          	lea    0x48(%rax),%rdx
  40305f:	48 8d 45 e0          	lea    -0x20(%rbp),%rax
  403063:	48 89 c6             	mov    %rax,%rsi
  403066:	48 89 d7             	mov    %rdx,%rdi
  403069:	e8 5c 1a 00 00       	callq  404aca <_ZNSt6vectorI4nodeSaIS0_EE9push_backEOS0_>
  40306e:	48 8b 45 d8          	mov    -0x28(%rbp),%rax
  403072:	8b 10                	mov    (%rax),%edx
  403074:	48 8b 45 d8          	mov    -0x28(%rbp),%rax
  403078:	8b 08                	mov    (%rax),%ecx
  40307a:	48 8d 45 e0          	lea    -0x20(%rbp),%rax
  40307e:	89 ce                	mov    %ecx,%esi
  403080:	48 89 c7             	mov    %rax,%rdi
  403083:	e8 68 16 00 00       	callq  4046f0 <_ZN4nodeC1Eii>
  403088:	48 8b 45 d8          	mov    -0x28(%rbp),%rax
  40308c:	8b 40 78             	mov    0x78(%rax),%eax
  40308f:	48 98                	cltq   
  403091:	48 8b 55 d8          	mov    -0x28(%rbp),%rdx
  403095:	48 8d 4a 48          	lea    0x48(%rdx),%rcx
  403099:	48 8d 55 e0          	lea    -0x20(%rbp),%rdx
  40309d:	48 89 c6             	mov    %rax,%rsi
  4030a0:	48 89 cf             	mov    %rcx,%rdi
  4030a3:	e8 52 1a 00 00       	callq  404afa <_ZNSt6vectorI4nodeSaIS0_EE6resizeEmRKS0_>
  4030a8:	48 8b 45 d8          	mov    -0x28(%rbp),%rax
  4030ac:	48 8d 50 08          	lea    0x8(%rax),%rdx
  4030b0:	48 8b 45 d8          	mov    -0x28(%rbp),%rax
  4030b4:	48 83 c0 60          	add    $0x60,%rax
  4030b8:	48 89 d6             	mov    %rdx,%rsi
  4030bb:	48 89 c7             	mov    %rax,%rdi
  4030be:	e8 ed 1a 00 00       	callq  404bb0 <_ZNSt6vectorIiSaIiEE9push_backERKi>
  4030c3:	c7 45 e0 ff ff ff ff 	movl   $0xffffffff,-0x20(%rbp)
  4030ca:	48 8b 45 d8          	mov    -0x28(%rbp),%rax
  4030ce:	8b 40 78             	mov    0x78(%rax),%eax
  4030d1:	48 98                	cltq   
  4030d3:	48 8b 55 d8          	mov    -0x28(%rbp),%rdx
  4030d7:	48 8d 4a 60          	lea    0x60(%rdx),%rcx
  4030db:	48 8d 55 e0          	lea    -0x20(%rbp),%rdx
  4030df:	48 89 c6             	mov    %rax,%rsi
  4030e2:	48 89 cf             	mov    %rcx,%rdi
  4030e5:	e8 32 1b 00 00       	callq  404c1c <_ZNSt6vectorIiSaIiEE6resizeEmRKi>
  4030ea:	bf 38 00 00 00       	mov    $0x38,%edi
  4030ef:	e8 8c e0 ff ff       	callq  401180 <_Znwm@plt>
  4030f4:	48 89 c3             	mov    %rax,%rbx
  4030f7:	48 8b 45 d8          	mov    -0x28(%rbp),%rax
  4030fb:	48 89 c6             	mov    %rax,%rsi
  4030fe:	48 89 df             	mov    %rbx,%rdi
  403101:	e8 7a 0f 00 00       	callq  404080 <_ZN13AreaContainerC1EP6Datrie>
  403106:	48 8b 45 d8          	mov    -0x28(%rbp),%rax
  40310a:	48 89 58 10          	mov    %rbx,0x10(%rax)
  40310e:	48 8b 45 d8          	mov    -0x28(%rbp),%rax
  403112:	8b 50 78             	mov    0x78(%rax),%edx
  403115:	48 8d 45 e0          	lea    -0x20(%rbp),%rax
  403119:	b9 00 00 00 00       	mov    $0x0,%ecx
  40311e:	be 01 00 00 00       	mov    $0x1,%esi
  403123:	48 89 c7             	mov    %rax,%rdi
  403126:	e8 e9 15 00 00       	callq  404714 <_ZN4areaC1Eiii>
  40312b:	48 8b 45 d8          	mov    -0x28(%rbp),%rax
  40312f:	48 8b 40 10          	mov    0x10(%rax),%rax
  403133:	48 8d 55 e0          	lea    -0x20(%rbp),%rdx
  403137:	48 89 d6             	mov    %rdx,%rsi
  40313a:	48 89 c7             	mov    %rax,%rdi
  40313d:	e8 90 1b 00 00       	callq  404cd2 <_ZNSt6vectorI4areaSaIS0_EE9push_backEOS0_>
  403142:	48 8b 45 d8          	mov    -0x28(%rbp),%rax
  403146:	8b 50 78             	mov    0x78(%rax),%edx
  403149:	48 8d 45 e0          	lea    -0x20(%rbp),%rax
  40314d:	b9 00 00 00 00       	mov    $0x0,%ecx
  403152:	be 01 00 00 00       	mov    $0x1,%esi
  403157:	48 89 c7             	mov    %rax,%rdi
  40315a:	e8 b5 15 00 00       	callq  404714 <_ZN4areaC1Eiii>
  40315f:	48 8b 45 d8          	mov    -0x28(%rbp),%rax
  403163:	48 8b 40 10          	mov    0x10(%rax),%rax
  403167:	48 8d 50 18          	lea    0x18(%rax),%rdx
  40316b:	48 8d 45 e0          	lea    -0x20(%rbp),%rax
  40316f:	48 89 c6             	mov    %rax,%rsi
  403172:	48 89 d7             	mov    %rdx,%rdi
  403175:	e8 58 1b 00 00       	callq  404cd2 <_ZNSt6vectorI4areaSaIS0_EE9push_backEOS0_>
  40317a:	eb 6d                	jmp    4031e9 <_ZN6DatrieC1Ev+0x239>
  40317c:	49 89 c4             	mov    %rax,%r12
  40317f:	48 89 df             	mov    %rbx,%rdi
  403182:	e8 39 de ff ff       	callq  400fc0 <_ZdlPv@plt>
  403187:	4c 89 e3             	mov    %r12,%rbx
  40318a:	eb 03                	jmp    40318f <_ZN6DatrieC1Ev+0x1df>
  40318c:	48 89 c3             	mov    %rax,%rbx
  40318f:	48 8b 45 d8          	mov    -0x28(%rbp),%rax
  403193:	48 83 c0 60          	add    $0x60,%rax
  403197:	48 89 c7             	mov    %rax,%rdi
  40319a:	e8 d9 18 00 00       	callq  404a78 <_ZNSt6vectorIiSaIiEED1Ev>
  40319f:	eb 03                	jmp    4031a4 <_ZN6DatrieC1Ev+0x1f4>
  4031a1:	48 89 c3             	mov    %rax,%rbx
  4031a4:	48 8b 45 d8          	mov    -0x28(%rbp),%rax
  4031a8:	48 83 c0 48          	add    $0x48,%rax
  4031ac:	48 89 c7             	mov    %rax,%rdi
  4031af:	e8 66 18 00 00       	callq  404a1a <_ZNSt6vectorI4nodeSaIS0_EED1Ev>
  4031b4:	eb 03                	jmp    4031b9 <_ZN6DatrieC1Ev+0x209>
  4031b6:	48 89 c3             	mov    %rax,%rbx
  4031b9:	48 8b 45 d8          	mov    -0x28(%rbp),%rax
  4031bd:	48 83 c0 30          	add    $0x30,%rax
  4031c1:	48 89 c7             	mov    %rax,%rdi
  4031c4:	e8 f3 17 00 00       	callq  4049bc <_ZNSt6vectorI4areaSaIS0_EED1Ev>
  4031c9:	eb 03                	jmp    4031ce <_ZN6DatrieC1Ev+0x21e>
  4031cb:	48 89 c3             	mov    %rax,%rbx
  4031ce:	48 8b 45 d8          	mov    -0x28(%rbp),%rax
  4031d2:	48 83 c0 18          	add    $0x18,%rax
  4031d6:	48 89 c7             	mov    %rax,%rdi
  4031d9:	e8 de 17 00 00       	callq  4049bc <_ZNSt6vectorI4areaSaIS0_EED1Ev>
  4031de:	48 89 d8             	mov    %rbx,%rax
  4031e1:	48 89 c7             	mov    %rax,%rdi
  4031e4:	e8 a7 df ff ff       	callq  401190 <_Unwind_Resume@plt>
  4031e9:	48 83 c4 20          	add    $0x20,%rsp
  4031ed:	5b                   	pop    %rbx
  4031ee:	41 5c                	pop    %r12
  4031f0:	5d                   	pop    %rbp
  4031f1:	c3                   	retq   

00000000004031f2 <_ZN6Datrie5queryESs>:
  4031f2:	55                   	push   %rbp
  4031f3:	48 89 e5             	mov    %rsp,%rbp
  4031f6:	48 83 ec 40          	sub    $0x40,%rsp
  4031fa:	48 89 7d c8          	mov    %rdi,-0x38(%rbp)
  4031fe:	48 89 75 c0          	mov    %rsi,-0x40(%rbp)
  403202:	c7 45 d4 00 00 00 00 	movl   $0x0,-0x2c(%rbp)
  403209:	48 8b 45 c0          	mov    -0x40(%rbp),%rax
  40320d:	48 89 45 f8          	mov    %rax,-0x8(%rbp)
  403211:	48 8b 45 f8          	mov    -0x8(%rbp),%rax
  403215:	48 89 c7             	mov    %rax,%rdi
  403218:	e8 53 df ff ff       	callq  401170 <_ZNSs5beginEv@plt>
  40321d:	48 89 45 e0          	mov    %rax,-0x20(%rbp)
  403221:	48 8b 45 f8          	mov    -0x8(%rbp),%rax
  403225:	48 89 c7             	mov    %rax,%rdi
  403228:	e8 23 de ff ff       	callq  401050 <_ZNSs3endEv@plt>
  40322d:	48 89 45 f0          	mov    %rax,-0x10(%rbp)
  403231:	e9 83 00 00 00       	jmpq   4032b9 <_ZN6Datrie5queryESs+0xc7>
  403236:	48 8d 45 e0          	lea    -0x20(%rbp),%rax
  40323a:	48 89 c7             	mov    %rax,%rdi
  40323d:	e8 50 16 00 00       	callq  404892 <_ZNK9__gnu_cxx17__normal_iteratorIPcSsEdeEv>
  403242:	0f b6 00             	movzbl (%rax),%eax
  403245:	88 45 d3             	mov    %al,-0x2d(%rbp)
  403248:	0f be 45 d3          	movsbl -0x2d(%rbp),%eax
  40324c:	89 c7                	mov    %eax,%edi
  40324e:	e8 15 f9 ff ff       	callq  402b68 <_Z4hashc>
  403253:	89 45 d8             	mov    %eax,-0x28(%rbp)
  403256:	8b 45 d4             	mov    -0x2c(%rbp),%eax
  403259:	48 98                	cltq   
  40325b:	48 8b 55 c8          	mov    -0x38(%rbp),%rdx
  40325f:	48 83 c2 48          	add    $0x48,%rdx
  403263:	48 89 c6             	mov    %rax,%rsi
  403266:	48 89 d7             	mov    %rdx,%rdi
  403269:	e8 36 16 00 00       	callq  4048a4 <_ZNSt6vectorI4nodeSaIS0_EEixEm>
  40326e:	8b 10                	mov    (%rax),%edx
  403270:	8b 45 d8             	mov    -0x28(%rbp),%eax
  403273:	01 d0                	add    %edx,%eax
  403275:	89 45 dc             	mov    %eax,-0x24(%rbp)
  403278:	8b 45 dc             	mov    -0x24(%rbp),%eax
  40327b:	48 98                	cltq   
  40327d:	48 8b 55 c8          	mov    -0x38(%rbp),%rdx
  403281:	48 83 c2 60          	add    $0x60,%rdx
  403285:	48 89 c6             	mov    %rax,%rsi
  403288:	48 89 d7             	mov    %rdx,%rdi
  40328b:	e8 34 16 00 00       	callq  4048c4 <_ZNSt6vectorIiSaIiEEixEm>
  403290:	8b 00                	mov    (%rax),%eax
  403292:	3b 45 d4             	cmp    -0x2c(%rbp),%eax
  403295:	0f 94 c0             	sete   %al
  403298:	84 c0                	test   %al,%al
  40329a:	74 14                	je     4032b0 <_ZN6Datrie5queryESs+0xbe>
  40329c:	8b 45 dc             	mov    -0x24(%rbp),%eax
  40329f:	89 45 d4             	mov    %eax,-0x2c(%rbp)
  4032a2:	48 8d 45 e0          	lea    -0x20(%rbp),%rax
  4032a6:	48 89 c7             	mov    %rax,%rdi
  4032a9:	e8 c4 15 00 00       	callq  404872 <_ZN9__gnu_cxx17__normal_iteratorIPcSsEppEv>
  4032ae:	eb 09                	jmp    4032b9 <_ZN6Datrie5queryESs+0xc7>
  4032b0:	48 8b 45 c8          	mov    -0x38(%rbp),%rax
  4032b4:	8b 40 0c             	mov    0xc(%rax),%eax
  4032b7:	eb 36                	jmp    4032ef <_ZN6Datrie5queryESs+0xfd>
  4032b9:	48 8d 55 f0          	lea    -0x10(%rbp),%rdx
  4032bd:	48 8d 45 e0          	lea    -0x20(%rbp),%rax
  4032c1:	48 89 d6             	mov    %rdx,%rsi
  4032c4:	48 89 c7             	mov    %rax,%rdi
  4032c7:	e8 6a 15 00 00       	callq  404836 <_ZN9__gnu_cxxneIPcSsEEbRKNS_17__normal_iteratorIT_T0_EES7_>
  4032cc:	84 c0                	test   %al,%al
  4032ce:	0f 85 62 ff ff ff    	jne    403236 <_ZN6Datrie5queryESs+0x44>
  4032d4:	8b 45 d4             	mov    -0x2c(%rbp),%eax
  4032d7:	48 98                	cltq   
  4032d9:	48 8b 55 c8          	mov    -0x38(%rbp),%rdx
  4032dd:	48 83 c2 48          	add    $0x48,%rdx
  4032e1:	48 89 c6             	mov    %rax,%rsi
  4032e4:	48 89 d7             	mov    %rdx,%rdi
  4032e7:	e8 b8 15 00 00       	callq  4048a4 <_ZNSt6vectorI4nodeSaIS0_EEixEm>
  4032ec:	8b 40 04             	mov    0x4(%rax),%eax
  4032ef:	c9                   	leaveq 
  4032f0:	c3                   	retq   
  4032f1:	90                   	nop

00000000004032f2 <_ZN6Datrie6insertESsi>:
  4032f2:	55                   	push   %rbp
  4032f3:	48 89 e5             	mov    %rsp,%rbp
  4032f6:	53                   	push   %rbx
  4032f7:	48 83 ec 68          	sub    $0x68,%rsp
  4032fb:	48 89 7d a8          	mov    %rdi,-0x58(%rbp)
  4032ff:	48 89 75 a0          	mov    %rsi,-0x60(%rbp)
  403303:	89 55 9c             	mov    %edx,-0x64(%rbp)
  403306:	48 8b 45 a0          	mov    -0x60(%rbp),%rax
  40330a:	48 89 c7             	mov    %rax,%rdi
  40330d:	e8 9e dc ff ff       	callq  400fb0 <_ZNKSs5c_strEv@plt>
  403312:	48 89 c6             	mov    %rax,%rsi
  403315:	bf 31 96 40 00       	mov    $0x409631,%edi
  40331a:	b8 00 00 00 00       	mov    $0x0,%eax
  40331f:	e8 2c dc ff ff       	callq  400f50 <printf@plt>
  403324:	c7 45 b4 00 00 00 00 	movl   $0x0,-0x4c(%rbp)
  40332b:	48 8b 45 a0          	mov    -0x60(%rbp),%rax
  40332f:	48 89 45 d8          	mov    %rax,-0x28(%rbp)
  403333:	48 8b 45 d8          	mov    -0x28(%rbp),%rax
  403337:	48 89 c7             	mov    %rax,%rdi
  40333a:	e8 31 de ff ff       	callq  401170 <_ZNSs5beginEv@plt>
  40333f:	48 89 45 c0          	mov    %rax,-0x40(%rbp)
  403343:	48 8b 45 d8          	mov    -0x28(%rbp),%rax
  403347:	48 89 c7             	mov    %rax,%rdi
  40334a:	e8 01 dd ff ff       	callq  401050 <_ZNSs3endEv@plt>
  40334f:	48 89 45 d0          	mov    %rax,-0x30(%rbp)
  403353:	e9 73 01 00 00       	jmpq   4034cb <_ZN6Datrie6insertESsi+0x1d9>
  403358:	48 8d 45 c0          	lea    -0x40(%rbp),%rax
  40335c:	48 89 c7             	mov    %rax,%rdi
  40335f:	e8 2e 15 00 00       	callq  404892 <_ZNK9__gnu_cxx17__normal_iteratorIPcSsEdeEv>
  403364:	0f b6 00             	movzbl (%rax),%eax
  403367:	88 45 b3             	mov    %al,-0x4d(%rbp)
  40336a:	0f be 45 b3          	movsbl -0x4d(%rbp),%eax
  40336e:	89 c7                	mov    %eax,%edi
  403370:	e8 f3 f7 ff ff       	callq  402b68 <_Z4hashc>
  403375:	89 45 b8             	mov    %eax,-0x48(%rbp)
  403378:	8b 45 b8             	mov    -0x48(%rbp),%eax
  40337b:	89 c6                	mov    %eax,%esi
  40337d:	bf 3d 96 40 00       	mov    $0x40963d,%edi
  403382:	b8 00 00 00 00       	mov    $0x0,%eax
  403387:	e8 c4 db ff ff       	callq  400f50 <printf@plt>
  40338c:	8b 45 b4             	mov    -0x4c(%rbp),%eax
  40338f:	48 98                	cltq   
  403391:	48 8b 55 a8          	mov    -0x58(%rbp),%rdx
  403395:	48 83 c2 48          	add    $0x48,%rdx
  403399:	48 89 c6             	mov    %rax,%rsi
  40339c:	48 89 d7             	mov    %rdx,%rdi
  40339f:	e8 00 15 00 00       	callq  4048a4 <_ZNSt6vectorI4nodeSaIS0_EEixEm>
  4033a4:	8b 10                	mov    (%rax),%edx
  4033a6:	8b 45 b8             	mov    -0x48(%rbp),%eax
  4033a9:	01 d0                	add    %edx,%eax
  4033ab:	89 45 bc             	mov    %eax,-0x44(%rbp)
  4033ae:	eb 0c                	jmp    4033bc <_ZN6Datrie6insertESsi+0xca>
  4033b0:	48 8b 45 a8          	mov    -0x58(%rbp),%rax
  4033b4:	48 89 c7             	mov    %rax,%rdi
  4033b7:	e8 70 01 00 00       	callq  40352c <_ZN6Datrie11double_sizeEv>
  4033bc:	48 8b 45 a8          	mov    -0x58(%rbp),%rax
  4033c0:	8b 40 78             	mov    0x78(%rax),%eax
  4033c3:	3b 45 bc             	cmp    -0x44(%rbp),%eax
  4033c6:	7e e8                	jle    4033b0 <_ZN6Datrie6insertESsi+0xbe>
  4033c8:	8b 45 bc             	mov    -0x44(%rbp),%eax
  4033cb:	48 98                	cltq   
  4033cd:	48 8b 55 a8          	mov    -0x58(%rbp),%rdx
  4033d1:	48 83 c2 60          	add    $0x60,%rdx
  4033d5:	48 89 c6             	mov    %rax,%rsi
  4033d8:	48 89 d7             	mov    %rdx,%rdi
  4033db:	e8 e4 14 00 00       	callq  4048c4 <_ZNSt6vectorIiSaIiEEixEm>
  4033e0:	8b 00                	mov    (%rax),%eax
  4033e2:	83 f8 ff             	cmp    $0xffffffff,%eax
  4033e5:	0f 94 c0             	sete   %al
  4033e8:	84 c0                	test   %al,%al
  4033ea:	0f 84 8c 00 00 00    	je     40347c <_ZN6Datrie6insertESsi+0x18a>
  4033f0:	8b 75 bc             	mov    -0x44(%rbp),%esi
  4033f3:	48 8d 45 e0          	lea    -0x20(%rbp),%rax
  4033f7:	b9 00 00 00 00       	mov    $0x0,%ecx
  4033fc:	ba 00 00 00 00       	mov    $0x0,%edx
  403401:	48 89 c7             	mov    %rax,%rdi
  403404:	e8 0b 13 00 00       	callq  404714 <_ZN4areaC1Eiii>
  403409:	48 8b 45 a8          	mov    -0x58(%rbp),%rax
  40340d:	48 8b 40 10          	mov    0x10(%rax),%rax
  403411:	48 8d 55 e0          	lea    -0x20(%rbp),%rdx
  403415:	48 89 d6             	mov    %rdx,%rsi
  403418:	48 89 c7             	mov    %rax,%rdi
  40341b:	e8 8e 0d 00 00       	callq  4041ae <_ZN13AreaContainer8get_areaE4area>
  403420:	8b 45 bc             	mov    -0x44(%rbp),%eax
  403423:	48 98                	cltq   
  403425:	48 8b 55 a8          	mov    -0x58(%rbp),%rdx
  403429:	48 83 c2 60          	add    $0x60,%rdx
  40342d:	48 89 c6             	mov    %rax,%rsi
  403430:	48 89 d7             	mov    %rdx,%rdi
  403433:	e8 8c 14 00 00       	callq  4048c4 <_ZNSt6vectorIiSaIiEEixEm>
  403438:	8b 55 b4             	mov    -0x4c(%rbp),%edx
  40343b:	89 10                	mov    %edx,(%rax)
  40343d:	8b 45 bc             	mov    -0x44(%rbp),%eax
  403440:	48 98                	cltq   
  403442:	48 8b 55 a8          	mov    -0x58(%rbp),%rdx
  403446:	48 83 c2 48          	add    $0x48,%rdx
  40344a:	48 89 c6             	mov    %rax,%rsi
  40344d:	48 89 d7             	mov    %rdx,%rdi
  403450:	e8 4f 14 00 00       	callq  4048a4 <_ZNSt6vectorI4nodeSaIS0_EEixEm>
  403455:	48 89 c3             	mov    %rax,%rbx
  403458:	8b 45 b4             	mov    -0x4c(%rbp),%eax
  40345b:	48 98                	cltq   
  40345d:	48 8b 55 a8          	mov    -0x58(%rbp),%rdx
  403461:	48 83 c2 48          	add    $0x48,%rdx
  403465:	48 89 c6             	mov    %rax,%rsi
  403468:	48 89 d7             	mov    %rdx,%rdi
  40346b:	e8 34 14 00 00       	callq  4048a4 <_ZNSt6vectorI4nodeSaIS0_EEixEm>
  403470:	8b 00                	mov    (%rax),%eax
  403472:	89 03                	mov    %eax,(%rbx)
  403474:	8b 45 bc             	mov    -0x44(%rbp),%eax
  403477:	89 45 b4             	mov    %eax,-0x4c(%rbp)
  40347a:	eb 43                	jmp    4034bf <_ZN6Datrie6insertESsi+0x1cd>
  40347c:	8b 45 bc             	mov    -0x44(%rbp),%eax
  40347f:	48 98                	cltq   
  403481:	48 8b 55 a8          	mov    -0x58(%rbp),%rdx
  403485:	48 83 c2 60          	add    $0x60,%rdx
  403489:	48 89 c6             	mov    %rax,%rsi
  40348c:	48 89 d7             	mov    %rdx,%rdi
  40348f:	e8 30 14 00 00       	callq  4048c4 <_ZNSt6vectorIiSaIiEEixEm>
  403494:	8b 00                	mov    (%rax),%eax
  403496:	3b 45 b4             	cmp    -0x4c(%rbp),%eax
  403499:	0f 95 c0             	setne  %al
  40349c:	84 c0                	test   %al,%al
  40349e:	74 19                	je     4034b9 <_ZN6Datrie6insertESsi+0x1c7>
  4034a0:	8b 55 bc             	mov    -0x44(%rbp),%edx
  4034a3:	8b 4d b4             	mov    -0x4c(%rbp),%ecx
  4034a6:	48 8b 45 a8          	mov    -0x58(%rbp),%rax
  4034aa:	89 ce                	mov    %ecx,%esi
  4034ac:	48 89 c7             	mov    %rax,%rdi
  4034af:	e8 e6 03 00 00       	callq  40389a <_ZN6Datrie15solve_collisionEii>
  4034b4:	89 45 b4             	mov    %eax,-0x4c(%rbp)
  4034b7:	eb 06                	jmp    4034bf <_ZN6Datrie6insertESsi+0x1cd>
  4034b9:	8b 45 bc             	mov    -0x44(%rbp),%eax
  4034bc:	89 45 b4             	mov    %eax,-0x4c(%rbp)
  4034bf:	48 8d 45 c0          	lea    -0x40(%rbp),%rax
  4034c3:	48 89 c7             	mov    %rax,%rdi
  4034c6:	e8 a7 13 00 00       	callq  404872 <_ZN9__gnu_cxx17__normal_iteratorIPcSsEppEv>
  4034cb:	48 8d 55 d0          	lea    -0x30(%rbp),%rdx
  4034cf:	48 8d 45 c0          	lea    -0x40(%rbp),%rax
  4034d3:	48 89 d6             	mov    %rdx,%rsi
  4034d6:	48 89 c7             	mov    %rax,%rdi
  4034d9:	e8 58 13 00 00       	callq  404836 <_ZN9__gnu_cxxneIPcSsEEbRKNS_17__normal_iteratorIT_T0_EES7_>
  4034de:	84 c0                	test   %al,%al
  4034e0:	0f 85 72 fe ff ff    	jne    403358 <_ZN6Datrie6insertESsi+0x66>
  4034e6:	bf 0a 00 00 00       	mov    $0xa,%edi
  4034eb:	e8 10 db ff ff       	callq  401000 <putchar@plt>
  4034f0:	8b 45 b4             	mov    -0x4c(%rbp),%eax
  4034f3:	48 98                	cltq   
  4034f5:	48 8b 55 a8          	mov    -0x58(%rbp),%rdx
  4034f9:	48 83 c2 48          	add    $0x48,%rdx
  4034fd:	48 89 c6             	mov    %rax,%rsi
  403500:	48 89 d7             	mov    %rdx,%rdi
  403503:	e8 9c 13 00 00       	callq  4048a4 <_ZNSt6vectorI4nodeSaIS0_EEixEm>
  403508:	8b 55 9c             	mov    -0x64(%rbp),%edx
  40350b:	89 50 04             	mov    %edx,0x4(%rax)
  40350e:	48 8b 45 a8          	mov    -0x58(%rbp),%rax
  403512:	8b 40 7c             	mov    0x7c(%rax),%eax
  403515:	3b 45 b4             	cmp    -0x4c(%rbp),%eax
  403518:	7d 0a                	jge    403524 <_ZN6Datrie6insertESsi+0x232>
  40351a:	48 8b 45 a8          	mov    -0x58(%rbp),%rax
  40351e:	8b 55 b4             	mov    -0x4c(%rbp),%edx
  403521:	89 50 7c             	mov    %edx,0x7c(%rax)
  403524:	48 83 c4 68          	add    $0x68,%rsp
  403528:	5b                   	pop    %rbx
  403529:	5d                   	pop    %rbp
  40352a:	c3                   	retq   
  40352b:	90                   	nop

000000000040352c <_ZN6Datrie11double_sizeEv>:
  40352c:	55                   	push   %rbp
  40352d:	48 89 e5             	mov    %rsp,%rbp
  403530:	41 55                	push   %r13
  403532:	41 54                	push   %r12
  403534:	53                   	push   %rbx
  403535:	48 83 ec 58          	sub    $0x58,%rsp
  403539:	48 89 7d 98          	mov    %rdi,-0x68(%rbp)
  40353d:	48 8b 45 98          	mov    -0x68(%rbp),%rax
  403541:	8b 40 78             	mov    0x78(%rax),%eax
  403544:	3d ff e0 f5 05       	cmp    $0x5f5e0ff,%eax
  403549:	7e 0a                	jle    403555 <_ZN6Datrie11double_sizeEv+0x29>
  40354b:	bf 00 00 00 00       	mov    $0x0,%edi
  403550:	e8 7b da ff ff       	callq  400fd0 <exit@plt>
  403555:	48 8b 55 98          	mov    -0x68(%rbp),%rdx
  403559:	48 8b 45 98          	mov    -0x68(%rbp),%rax
  40355d:	8b 40 78             	mov    0x78(%rax),%eax
  403560:	01 c0                	add    %eax,%eax
  403562:	48 98                	cltq   
  403564:	48 8b 4d 98          	mov    -0x68(%rbp),%rcx
  403568:	48 83 c1 60          	add    $0x60,%rcx
  40356c:	48 89 c6             	mov    %rax,%rsi
  40356f:	48 89 cf             	mov    %rcx,%rdi
  403572:	e8 a5 16 00 00       	callq  404c1c <_ZNSt6vectorIiSaIiEE6resizeEmRKi>
  403577:	48 8b 45 98          	mov    -0x68(%rbp),%rax
  40357b:	8b 10                	mov    (%rax),%edx
  40357d:	48 8b 45 98          	mov    -0x68(%rbp),%rax
  403581:	8b 08                	mov    (%rax),%ecx
  403583:	48 8d 45 d0          	lea    -0x30(%rbp),%rax
  403587:	89 ce                	mov    %ecx,%esi
  403589:	48 89 c7             	mov    %rax,%rdi
  40358c:	e8 5f 11 00 00       	callq  4046f0 <_ZN4nodeC1Eii>
  403591:	48 8b 45 98          	mov    -0x68(%rbp),%rax
  403595:	8b 40 78             	mov    0x78(%rax),%eax
  403598:	01 c0                	add    %eax,%eax
  40359a:	48 98                	cltq   
  40359c:	48 8b 55 98          	mov    -0x68(%rbp),%rdx
  4035a0:	48 8d 4a 48          	lea    0x48(%rdx),%rcx
  4035a4:	48 8d 55 d0          	lea    -0x30(%rbp),%rdx
  4035a8:	48 89 c6             	mov    %rax,%rsi
  4035ab:	48 89 cf             	mov    %rcx,%rdi
  4035ae:	e8 47 15 00 00       	callq  404afa <_ZNSt6vectorI4nodeSaIS0_EE6resizeEmRKS0_>
  4035b3:	48 8b 45 98          	mov    -0x68(%rbp),%rax
  4035b7:	48 8b 40 10          	mov    0x10(%rax),%rax
  4035bb:	48 89 c7             	mov    %rax,%rdi
  4035be:	e8 47 13 00 00       	callq  40490a <_ZNSt6vectorI4areaSaIS0_EE3endEv>
  4035c3:	48 89 45 a0          	mov    %rax,-0x60(%rbp)
  4035c7:	48 c7 45 b0 00 00 00 	movq   $0x0,-0x50(%rbp)
  4035ce:	00 
  4035cf:	48 c7 45 d0 01 00 00 	movq   $0x1,-0x30(%rbp)
  4035d6:	00 
  4035d7:	48 8d 55 d0          	lea    -0x30(%rbp),%rdx
  4035db:	48 8d 45 a0          	lea    -0x60(%rbp),%rax
  4035df:	48 89 d6             	mov    %rdx,%rsi
  4035e2:	48 89 c7             	mov    %rax,%rdi
  4035e5:	e8 18 17 00 00       	callq  404d02 <_ZNK9__gnu_cxx17__normal_iteratorIP4areaSt6vectorIS1_SaIS1_EEEmiERKl>
  4035ea:	48 89 45 c0          	mov    %rax,-0x40(%rbp)
  4035ee:	48 8d 45 c0          	lea    -0x40(%rbp),%rax
  4035f2:	48 89 c7             	mov    %rax,%rdi
  4035f5:	e8 96 13 00 00       	callq  404990 <_ZNK9__gnu_cxx17__normal_iteratorIP4areaSt6vectorIS1_SaIS1_EEEdeEv>
  4035fa:	8b 50 04             	mov    0x4(%rax),%edx
  4035fd:	48 8b 45 98          	mov    -0x68(%rbp),%rax
  403601:	8b 40 78             	mov    0x78(%rax),%eax
  403604:	39 c2                	cmp    %eax,%edx
  403606:	0f 94 c0             	sete   %al
  403609:	84 c0                	test   %al,%al
  40360b:	0f 84 b6 01 00 00    	je     4037c7 <_ZN6Datrie11double_sizeEv+0x29b>
  403611:	48 c7 45 d0 01 00 00 	movq   $0x1,-0x30(%rbp)
  403618:	00 
  403619:	48 8d 55 d0          	lea    -0x30(%rbp),%rdx
  40361d:	48 8d 45 a0          	lea    -0x60(%rbp),%rax
  403621:	48 89 d6             	mov    %rdx,%rsi
  403624:	48 89 c7             	mov    %rax,%rdi
  403627:	e8 d6 16 00 00       	callq  404d02 <_ZNK9__gnu_cxx17__normal_iteratorIP4areaSt6vectorIS1_SaIS1_EEEmiERKl>
  40362c:	48 89 45 c0          	mov    %rax,-0x40(%rbp)
  403630:	48 8d 45 c0          	lea    -0x40(%rbp),%rax
  403634:	48 89 c7             	mov    %rax,%rdi
  403637:	e8 54 13 00 00       	callq  404990 <_ZNK9__gnu_cxx17__normal_iteratorIP4areaSt6vectorIS1_SaIS1_EEEdeEv>
  40363c:	48 8b 55 98          	mov    -0x68(%rbp),%rdx
  403640:	8b 52 78             	mov    0x78(%rdx),%edx
  403643:	01 d2                	add    %edx,%edx
  403645:	89 50 04             	mov    %edx,0x4(%rax)
  403648:	48 c7 45 d0 01 00 00 	movq   $0x1,-0x30(%rbp)
  40364f:	00 
  403650:	48 8d 55 d0          	lea    -0x30(%rbp),%rdx
  403654:	48 8d 45 a0          	lea    -0x60(%rbp),%rax
  403658:	48 89 d6             	mov    %rdx,%rsi
  40365b:	48 89 c7             	mov    %rax,%rdi
  40365e:	e8 9f 16 00 00       	callq  404d02 <_ZNK9__gnu_cxx17__normal_iteratorIP4areaSt6vectorIS1_SaIS1_EEEmiERKl>
  403663:	48 89 45 c0          	mov    %rax,-0x40(%rbp)
  403667:	48 8d 45 c0          	lea    -0x40(%rbp),%rax
  40366b:	48 89 c7             	mov    %rax,%rdi
  40366e:	e8 1d 13 00 00       	callq  404990 <_ZNK9__gnu_cxx17__normal_iteratorIP4areaSt6vectorIS1_SaIS1_EEEdeEv>
  403673:	48 89 c3             	mov    %rax,%rbx
  403676:	48 8b 45 98          	mov    -0x68(%rbp),%rax
  40367a:	48 8b 40 10          	mov    0x10(%rax),%rax
  40367e:	48 83 c0 18          	add    $0x18,%rax
  403682:	48 89 c7             	mov    %rax,%rdi
  403685:	e8 80 12 00 00       	callq  40490a <_ZNSt6vectorI4areaSaIS0_EE3endEv>
  40368a:	48 8b 55 98          	mov    -0x68(%rbp),%rdx
  40368e:	48 8b 52 10          	mov    0x10(%rdx),%rdx
  403692:	48 8d 4a 18          	lea    0x18(%rdx),%rcx
  403696:	48 89 da             	mov    %rbx,%rdx
  403699:	48 89 c6             	mov    %rax,%rsi
  40369c:	48 89 cf             	mov    %rcx,%rdi
  40369f:	e8 be 16 00 00       	callq  404d62 <_ZNSt6vectorI4areaSaIS0_EE6insertEN9__gnu_cxx17__normal_iteratorIPS0_S2_EERKS0_>
  4036a4:	48 c7 45 d0 01 00 00 	movq   $0x1,-0x30(%rbp)
  4036ab:	00 
  4036ac:	48 8d 55 d0          	lea    -0x30(%rbp),%rdx
  4036b0:	48 8d 45 a0          	lea    -0x60(%rbp),%rax
  4036b4:	48 89 d6             	mov    %rdx,%rsi
  4036b7:	48 89 c7             	mov    %rax,%rdi
  4036ba:	e8 43 16 00 00       	callq  404d02 <_ZNK9__gnu_cxx17__normal_iteratorIP4areaSt6vectorIS1_SaIS1_EEEmiERKl>
  4036bf:	48 89 45 c0          	mov    %rax,-0x40(%rbp)
  4036c3:	48 8d 45 c0          	lea    -0x40(%rbp),%rax
  4036c7:	48 89 c7             	mov    %rax,%rdi
  4036ca:	e8 c1 12 00 00       	callq  404990 <_ZNK9__gnu_cxx17__normal_iteratorIP4areaSt6vectorIS1_SaIS1_EEEdeEv>
  4036cf:	49 89 c4             	mov    %rax,%r12
  4036d2:	48 8b 45 98          	mov    -0x68(%rbp),%rax
  4036d6:	48 8b 40 10          	mov    0x10(%rax),%rax
  4036da:	48 83 c0 18          	add    $0x18,%rax
  4036de:	48 89 c7             	mov    %rax,%rdi
  4036e1:	e8 24 12 00 00       	callq  40490a <_ZNSt6vectorI4areaSaIS0_EE3endEv>
  4036e6:	48 89 c3             	mov    %rax,%rbx
  4036e9:	48 8b 45 98          	mov    -0x68(%rbp),%rax
  4036ed:	48 8b 40 10          	mov    0x10(%rax),%rax
  4036f1:	48 83 c0 18          	add    $0x18,%rax
  4036f5:	48 89 c7             	mov    %rax,%rdi
  4036f8:	e8 e7 11 00 00       	callq  4048e4 <_ZNSt6vectorI4areaSaIS0_EE5beginEv>
  4036fd:	b9 de 47 40 00       	mov    $0x4047de,%ecx
  403702:	4c 89 e2             	mov    %r12,%rdx
  403705:	48 89 de             	mov    %rbx,%rsi
  403708:	48 89 c7             	mov    %rax,%rdi
  40370b:	e8 b7 17 00 00       	callq  404ec7 <_ZSt11upper_boundIN9__gnu_cxx17__normal_iteratorIP4areaSt6vectorIS2_SaIS2_EEEES2_PFbS2_S2_EET_SA_SA_RKT0_T1_>
  403710:	48 89 45 b0          	mov    %rax,-0x50(%rbp)
  403714:	eb 0c                	jmp    403722 <_ZN6Datrie11double_sizeEv+0x1f6>
  403716:	48 8d 45 b0          	lea    -0x50(%rbp),%rax
  40371a:	48 89 c7             	mov    %rax,%rdi
  40371d:	e8 8e 18 00 00       	callq  404fb0 <_ZN9__gnu_cxx17__normal_iteratorIP4areaSt6vectorIS1_SaIS1_EEEmmEv>
  403722:	41 bc 00 00 00 00    	mov    $0x0,%r12d
  403728:	48 8d 45 b0          	lea    -0x50(%rbp),%rax
  40372c:	48 89 c7             	mov    %rax,%rdi
  40372f:	e8 5c 12 00 00       	callq  404990 <_ZNK9__gnu_cxx17__normal_iteratorIP4areaSt6vectorIS1_SaIS1_EEEdeEv>
  403734:	44 8b 28             	mov    (%rax),%r13d
  403737:	48 c7 45 d0 01 00 00 	movq   $0x1,-0x30(%rbp)
  40373e:	00 
  40373f:	bb 01 00 00 00       	mov    $0x1,%ebx
  403744:	48 8d 55 d0          	lea    -0x30(%rbp),%rdx
  403748:	48 8d 45 a0          	lea    -0x60(%rbp),%rax
  40374c:	48 89 d6             	mov    %rdx,%rsi
  40374f:	48 89 c7             	mov    %rax,%rdi
  403752:	e8 ab 15 00 00       	callq  404d02 <_ZNK9__gnu_cxx17__normal_iteratorIP4areaSt6vectorIS1_SaIS1_EEEmiERKl>
  403757:	48 89 45 c0          	mov    %rax,-0x40(%rbp)
  40375b:	41 bc 01 00 00 00    	mov    $0x1,%r12d
  403761:	48 8d 45 c0          	lea    -0x40(%rbp),%rax
  403765:	48 89 c7             	mov    %rax,%rdi
  403768:	e8 23 12 00 00       	callq  404990 <_ZNK9__gnu_cxx17__normal_iteratorIP4areaSt6vectorIS1_SaIS1_EEEdeEv>
  40376d:	8b 00                	mov    (%rax),%eax
  40376f:	41 39 c5             	cmp    %eax,%r13d
  403772:	75 1a                	jne    40378e <_ZN6Datrie11double_sizeEv+0x262>
  403774:	48 8d 45 b0          	lea    -0x50(%rbp),%rax
  403778:	48 89 c7             	mov    %rax,%rdi
  40377b:	e8 10 12 00 00       	callq  404990 <_ZNK9__gnu_cxx17__normal_iteratorIP4areaSt6vectorIS1_SaIS1_EEEdeEv>
  403780:	8b 50 04             	mov    0x4(%rax),%edx
  403783:	48 8b 45 98          	mov    -0x68(%rbp),%rax
  403787:	8b 40 78             	mov    0x78(%rax),%eax
  40378a:	39 c2                	cmp    %eax,%edx
  40378c:	74 07                	je     403795 <_ZN6Datrie11double_sizeEv+0x269>
  40378e:	b8 01 00 00 00       	mov    $0x1,%eax
  403793:	eb 05                	jmp    40379a <_ZN6Datrie11double_sizeEv+0x26e>
  403795:	b8 00 00 00 00       	mov    $0x0,%eax
  40379a:	45 84 e4             	test   %r12b,%r12b
  40379d:	84 db                	test   %bl,%bl
  40379f:	84 c0                	test   %al,%al
  4037a1:	0f 85 6f ff ff ff    	jne    403716 <_ZN6Datrie11double_sizeEv+0x1ea>
  4037a7:	48 8b 45 98          	mov    -0x68(%rbp),%rax
  4037ab:	48 8b 40 10          	mov    0x10(%rax),%rax
  4037af:	48 8d 50 18          	lea    0x18(%rax),%rdx
  4037b3:	48 8b 45 b0          	mov    -0x50(%rbp),%rax
  4037b7:	48 89 c6             	mov    %rax,%rsi
  4037ba:	48 89 d7             	mov    %rdx,%rdi
  4037bd:	e8 0e 18 00 00       	callq  404fd0 <_ZNSt6vectorI4areaSaIS0_EE5eraseEN9__gnu_cxx17__normal_iteratorIPS0_S2_EE>
  4037c2:	e9 8e 00 00 00       	jmpq   403855 <_ZN6Datrie11double_sizeEv+0x329>
  4037c7:	48 8b 45 98          	mov    -0x68(%rbp),%rax
  4037cb:	8b 40 78             	mov    0x78(%rax),%eax
  4037ce:	8d 14 00             	lea    (%rax,%rax,1),%edx
  4037d1:	48 8b 45 98          	mov    -0x68(%rbp),%rax
  4037d5:	8b 70 78             	mov    0x78(%rax),%esi
  4037d8:	48 8d 45 d0          	lea    -0x30(%rbp),%rax
  4037dc:	b9 00 00 00 00       	mov    $0x0,%ecx
  4037e1:	48 89 c7             	mov    %rax,%rdi
  4037e4:	e8 2b 0f 00 00       	callq  404714 <_ZN4areaC1Eiii>
  4037e9:	48 8b 45 98          	mov    -0x68(%rbp),%rax
  4037ed:	48 8b 40 10          	mov    0x10(%rax),%rax
  4037f1:	48 8d 55 d0          	lea    -0x30(%rbp),%rdx
  4037f5:	48 8b 4d a0          	mov    -0x60(%rbp),%rcx
  4037f9:	48 89 ce             	mov    %rcx,%rsi
  4037fc:	48 89 c7             	mov    %rax,%rdi
  4037ff:	e8 92 18 00 00       	callq  405096 <_ZNSt6vectorI4areaSaIS0_EE6insertEN9__gnu_cxx17__normal_iteratorIPS0_S2_EEOS0_>
  403804:	48 8b 45 98          	mov    -0x68(%rbp),%rax
  403808:	8b 40 78             	mov    0x78(%rax),%eax
  40380b:	8d 14 00             	lea    (%rax,%rax,1),%edx
  40380e:	48 8b 45 98          	mov    -0x68(%rbp),%rax
  403812:	8b 70 78             	mov    0x78(%rax),%esi
  403815:	48 8d 45 d0          	lea    -0x30(%rbp),%rax
  403819:	b9 00 00 00 00       	mov    $0x0,%ecx
  40381e:	48 89 c7             	mov    %rax,%rdi
  403821:	e8 ee 0e 00 00       	callq  404714 <_ZN4areaC1Eiii>
  403826:	48 8b 45 98          	mov    -0x68(%rbp),%rax
  40382a:	48 8b 40 10          	mov    0x10(%rax),%rax
  40382e:	48 83 c0 18          	add    $0x18,%rax
  403832:	48 89 c7             	mov    %rax,%rdi
  403835:	e8 d0 10 00 00       	callq  40490a <_ZNSt6vectorI4areaSaIS0_EE3endEv>
  40383a:	48 8b 55 98          	mov    -0x68(%rbp),%rdx
  40383e:	48 8b 52 10          	mov    0x10(%rdx),%rdx
  403842:	48 8d 4a 18          	lea    0x18(%rdx),%rcx
  403846:	48 8d 55 d0          	lea    -0x30(%rbp),%rdx
  40384a:	48 89 c6             	mov    %rax,%rsi
  40384d:	48 89 cf             	mov    %rcx,%rdi
  403850:	e8 41 18 00 00       	callq  405096 <_ZNSt6vectorI4areaSaIS0_EE6insertEN9__gnu_cxx17__normal_iteratorIPS0_S2_EEOS0_>
  403855:	48 8b 45 98          	mov    -0x68(%rbp),%rax
  403859:	8b 40 78             	mov    0x78(%rax),%eax
  40385c:	8d 14 00             	lea    (%rax,%rax,1),%edx
  40385f:	48 8b 45 98          	mov    -0x68(%rbp),%rax
  403863:	89 50 78             	mov    %edx,0x78(%rax)
  403866:	48 8b 45 98          	mov    -0x68(%rbp),%rax
  40386a:	8b 40 78             	mov    0x78(%rax),%eax
  40386d:	89 c6                	mov    %eax,%esi
  40386f:	bf 41 96 40 00       	mov    $0x409641,%edi
  403874:	b8 00 00 00 00       	mov    $0x0,%eax
  403879:	e8 d2 d6 ff ff       	callq  400f50 <printf@plt>
  40387e:	eb 0e                	jmp    40388e <_ZN6Datrie11double_sizeEv+0x362>
  403880:	45 84 e4             	test   %r12b,%r12b
  403883:	84 db                	test   %bl,%bl
  403885:	90                   	nop
  403886:	48 89 c7             	mov    %rax,%rdi
  403889:	e8 02 d9 ff ff       	callq  401190 <_Unwind_Resume@plt>
  40388e:	48 83 c4 58          	add    $0x58,%rsp
  403892:	5b                   	pop    %rbx
  403893:	41 5c                	pop    %r12
  403895:	41 5d                	pop    %r13
  403897:	5d                   	pop    %rbp
  403898:	c3                   	retq   
  403899:	90                   	nop

000000000040389a <_ZN6Datrie15solve_collisionEii>:
  40389a:	55                   	push   %rbp
  40389b:	48 89 e5             	mov    %rsp,%rbp
  40389e:	53                   	push   %rbx
  40389f:	48 81 ec b8 00 00 00 	sub    $0xb8,%rsp
  4038a6:	48 89 bd 48 ff ff ff 	mov    %rdi,-0xb8(%rbp)
  4038ad:	89 b5 44 ff ff ff    	mov    %esi,-0xbc(%rbp)
  4038b3:	89 95 40 ff ff ff    	mov    %edx,-0xc0(%rbp)
  4038b9:	48 8d 45 d0          	lea    -0x30(%rbp),%rax
  4038bd:	48 89 c7             	mov    %rax,%rdi
  4038c0:	e8 99 11 00 00       	callq  404a5e <_ZNSt6vectorIiSaIiEEC1Ev>
  4038c5:	8b 85 44 ff ff ff    	mov    -0xbc(%rbp),%eax
  4038cb:	48 98                	cltq   
  4038cd:	48 8b 95 48 ff ff ff 	mov    -0xb8(%rbp),%rdx
  4038d4:	48 83 c2 48          	add    $0x48,%rdx
  4038d8:	48 89 c6             	mov    %rax,%rsi
  4038db:	48 89 d7             	mov    %rdx,%rdi
  4038de:	e8 c1 0f 00 00       	callq  4048a4 <_ZNSt6vectorI4nodeSaIS0_EEixEm>
  4038e3:	8b 00                	mov    (%rax),%eax
  4038e5:	89 85 68 ff ff ff    	mov    %eax,-0x98(%rbp)
  4038eb:	8b 85 68 ff ff ff    	mov    -0x98(%rbp),%eax
  4038f1:	8b 95 40 ff ff ff    	mov    -0xc0(%rbp),%edx
  4038f7:	29 c2                	sub    %eax,%edx
  4038f9:	89 d0                	mov    %edx,%eax
  4038fb:	89 85 54 ff ff ff    	mov    %eax,-0xac(%rbp)
  403901:	8b 85 68 ff ff ff    	mov    -0x98(%rbp),%eax
  403907:	89 85 60 ff ff ff    	mov    %eax,-0xa0(%rbp)
  40390d:	eb 5a                	jmp    403969 <_ZN6Datrie15solve_collisionEii+0xcf>
  40390f:	8b 85 60 ff ff ff    	mov    -0xa0(%rbp),%eax
  403915:	48 98                	cltq   
  403917:	48 8b 95 48 ff ff ff 	mov    -0xb8(%rbp),%rdx
  40391e:	48 83 c2 60          	add    $0x60,%rdx
  403922:	48 89 c6             	mov    %rax,%rsi
  403925:	48 89 d7             	mov    %rdx,%rdi
  403928:	e8 97 0f 00 00       	callq  4048c4 <_ZNSt6vectorIiSaIiEEixEm>
  40392d:	8b 00                	mov    (%rax),%eax
  40392f:	3b 85 44 ff ff ff    	cmp    -0xbc(%rbp),%eax
  403935:	0f 94 c0             	sete   %al
  403938:	84 c0                	test   %al,%al
  40393a:	74 26                	je     403962 <_ZN6Datrie15solve_collisionEii+0xc8>
  40393c:	8b 85 68 ff ff ff    	mov    -0x98(%rbp),%eax
  403942:	8b 95 60 ff ff ff    	mov    -0xa0(%rbp),%edx
  403948:	29 c2                	sub    %eax,%edx
  40394a:	89 d0                	mov    %edx,%eax
  40394c:	89 45 c0             	mov    %eax,-0x40(%rbp)
  40394f:	48 8d 55 c0          	lea    -0x40(%rbp),%rdx
  403953:	48 8d 45 d0          	lea    -0x30(%rbp),%rax
  403957:	48 89 d6             	mov    %rdx,%rsi
  40395a:	48 89 c7             	mov    %rax,%rdi
  40395d:	e8 7a 17 00 00       	callq  4050dc <_ZNSt6vectorIiSaIiEE9push_backEOi>
  403962:	83 85 60 ff ff ff 01 	addl   $0x1,-0xa0(%rbp)
  403969:	8b 85 68 ff ff ff    	mov    -0x98(%rbp),%eax
  40396f:	83 c0 3a             	add    $0x3a,%eax
  403972:	3b 85 60 ff ff ff    	cmp    -0xa0(%rbp),%eax
  403978:	7d 95                	jge    40390f <_ZN6Datrie15solve_collisionEii+0x75>
  40397a:	48 8d 45 d0          	lea    -0x30(%rbp),%rax
  40397e:	48 89 c7             	mov    %rax,%rdi
  403981:	e8 86 17 00 00       	callq  40510c <_ZNKSt6vectorIiSaIiEE4sizeEv>
  403986:	48 85 c0             	test   %rax,%rax
  403989:	0f 94 c0             	sete   %al
  40398c:	84 c0                	test   %al,%al
  40398e:	74 1b                	je     4039ab <_ZN6Datrie15solve_collisionEii+0x111>
  403990:	c7 85 58 ff ff ff 01 	movl   $0x1,-0xa8(%rbp)
  403997:	00 00 00 
  40399a:	8b 85 54 ff ff ff    	mov    -0xac(%rbp),%eax
  4039a0:	89 85 5c ff ff ff    	mov    %eax,-0xa4(%rbp)
  4039a6:	e9 c8 00 00 00       	jmpq   403a73 <_ZN6Datrie15solve_collisionEii+0x1d9>
  4039ab:	48 c7 45 c0 01 00 00 	movq   $0x1,-0x40(%rbp)
  4039b2:	00 
  4039b3:	48 8d 45 d0          	lea    -0x30(%rbp),%rax
  4039b7:	48 89 c7             	mov    %rax,%rdi
  4039ba:	e8 73 17 00 00       	callq  405132 <_ZNSt6vectorIiSaIiEE3endEv>
  4039bf:	48 89 45 80          	mov    %rax,-0x80(%rbp)
  4039c3:	48 8d 55 c0          	lea    -0x40(%rbp),%rdx
  4039c7:	48 8d 45 80          	lea    -0x80(%rbp),%rax
  4039cb:	48 89 d6             	mov    %rdx,%rsi
  4039ce:	48 89 c7             	mov    %rax,%rdi
  4039d1:	e8 86 17 00 00       	callq  40515c <_ZNK9__gnu_cxx17__normal_iteratorIPiSt6vectorIiSaIiEEEmiERKl>
  4039d6:	48 89 45 90          	mov    %rax,-0x70(%rbp)
  4039da:	48 8d 45 90          	lea    -0x70(%rbp),%rax
  4039de:	48 89 c7             	mov    %rax,%rdi
  4039e1:	e8 bc 17 00 00       	callq  4051a2 <_ZNK9__gnu_cxx17__normal_iteratorIPiSt6vectorIiSaIiEEEdeEv>
  4039e6:	48 8d 95 54 ff ff ff 	lea    -0xac(%rbp),%rdx
  4039ed:	48 89 d6             	mov    %rdx,%rsi
  4039f0:	48 89 c7             	mov    %rax,%rdi
  4039f3:	e8 bb 17 00 00       	callq  4051b3 <_ZSt3maxIiERKT_S2_S2_>
  4039f8:	8b 18                	mov    (%rax),%ebx
  4039fa:	48 8d 45 d0          	lea    -0x30(%rbp),%rax
  4039fe:	48 89 c7             	mov    %rax,%rdi
  403a01:	e8 d6 17 00 00       	callq  4051dc <_ZNSt6vectorIiSaIiEE5beginEv>
  403a06:	48 89 45 a0          	mov    %rax,-0x60(%rbp)
  403a0a:	48 8d 45 a0          	lea    -0x60(%rbp),%rax
  403a0e:	48 89 c7             	mov    %rax,%rdi
  403a11:	e8 8c 17 00 00       	callq  4051a2 <_ZNK9__gnu_cxx17__normal_iteratorIPiSt6vectorIiSaIiEEEdeEv>
  403a16:	48 89 c2             	mov    %rax,%rdx
  403a19:	48 8d 85 54 ff ff ff 	lea    -0xac(%rbp),%rax
  403a20:	48 89 d6             	mov    %rdx,%rsi
  403a23:	48 89 c7             	mov    %rax,%rdi
  403a26:	e8 d6 17 00 00       	callq  405201 <_ZSt3minIiERKT_S2_S2_>
  403a2b:	8b 00                	mov    (%rax),%eax
  403a2d:	29 c3                	sub    %eax,%ebx
  403a2f:	89 d8                	mov    %ebx,%eax
  403a31:	83 c0 01             	add    $0x1,%eax
  403a34:	89 85 58 ff ff ff    	mov    %eax,-0xa8(%rbp)
  403a3a:	48 8d 45 d0          	lea    -0x30(%rbp),%rax
  403a3e:	48 89 c7             	mov    %rax,%rdi
  403a41:	e8 96 17 00 00       	callq  4051dc <_ZNSt6vectorIiSaIiEE5beginEv>
  403a46:	48 89 45 c0          	mov    %rax,-0x40(%rbp)
  403a4a:	48 8d 45 c0          	lea    -0x40(%rbp),%rax
  403a4e:	48 89 c7             	mov    %rax,%rdi
  403a51:	e8 4c 17 00 00       	callq  4051a2 <_ZNK9__gnu_cxx17__normal_iteratorIPiSt6vectorIiSaIiEEEdeEv>
  403a56:	48 89 c2             	mov    %rax,%rdx
  403a59:	48 8d 85 54 ff ff ff 	lea    -0xac(%rbp),%rax
  403a60:	48 89 d6             	mov    %rdx,%rsi
  403a63:	48 89 c7             	mov    %rax,%rdi
  403a66:	e8 96 17 00 00       	callq  405201 <_ZSt3minIiERKT_S2_S2_>
  403a6b:	8b 00                	mov    (%rax),%eax
  403a6d:	89 85 5c ff ff ff    	mov    %eax,-0xa4(%rbp)
  403a73:	48 8d 95 54 ff ff ff 	lea    -0xac(%rbp),%rdx
  403a7a:	48 8d 45 d0          	lea    -0x30(%rbp),%rax
  403a7e:	48 89 d6             	mov    %rdx,%rsi
  403a81:	48 89 c7             	mov    %rax,%rdi
  403a84:	e8 27 11 00 00       	callq  404bb0 <_ZNSt6vectorIiSaIiEE9push_backERKi>
  403a89:	48 8b 85 48 ff ff ff 	mov    -0xb8(%rbp),%rax
  403a90:	48 8b 40 10          	mov    0x10(%rax),%rax
  403a94:	8b 95 58 ff ff ff    	mov    -0xa8(%rbp),%edx
  403a9a:	89 d6                	mov    %edx,%esi
  403a9c:	48 89 c7             	mov    %rax,%rdi
  403a9f:	e8 38 06 00 00       	callq  4040dc <_ZN13AreaContainer8get_baseEi>
  403aa4:	2b 85 5c ff ff ff    	sub    -0xa4(%rbp),%eax
  403aaa:	89 85 6c ff ff ff    	mov    %eax,-0x94(%rbp)
  403ab0:	8b 85 6c ff ff ff    	mov    -0x94(%rbp),%eax
  403ab6:	89 c6                	mov    %eax,%esi
  403ab8:	bf 4d 96 40 00       	mov    $0x40964d,%edi
  403abd:	b8 00 00 00 00       	mov    $0x0,%eax
  403ac2:	e8 89 d4 ff ff       	callq  400f50 <printf@plt>
  403ac7:	48 8d 45 d0          	lea    -0x30(%rbp),%rax
  403acb:	48 89 45 b0          	mov    %rax,-0x50(%rbp)
  403acf:	48 8b 45 b0          	mov    -0x50(%rbp),%rax
  403ad3:	48 89 c7             	mov    %rax,%rdi
  403ad6:	e8 01 17 00 00       	callq  4051dc <_ZNSt6vectorIiSaIiEE5beginEv>
  403adb:	48 89 45 a0          	mov    %rax,-0x60(%rbp)
  403adf:	48 8b 45 b0          	mov    -0x50(%rbp),%rax
  403ae3:	48 89 c7             	mov    %rax,%rdi
  403ae6:	e8 47 16 00 00       	callq  405132 <_ZNSt6vectorIiSaIiEE3endEv>
  403aeb:	48 89 45 c0          	mov    %rax,-0x40(%rbp)
  403aef:	eb 37                	jmp    403b28 <_ZN6Datrie15solve_collisionEii+0x28e>
  403af1:	48 8d 45 a0          	lea    -0x60(%rbp),%rax
  403af5:	48 89 c7             	mov    %rax,%rdi
  403af8:	e8 a5 16 00 00       	callq  4051a2 <_ZNK9__gnu_cxx17__normal_iteratorIPiSt6vectorIiSaIiEEEdeEv>
  403afd:	8b 00                	mov    (%rax),%eax
  403aff:	89 85 70 ff ff ff    	mov    %eax,-0x90(%rbp)
  403b05:	8b 85 70 ff ff ff    	mov    -0x90(%rbp),%eax
  403b0b:	89 c6                	mov    %eax,%esi
  403b0d:	bf 63 96 40 00       	mov    $0x409663,%edi
  403b12:	b8 00 00 00 00       	mov    $0x0,%eax
  403b17:	e8 34 d4 ff ff       	callq  400f50 <printf@plt>
  403b1c:	48 8d 45 a0          	lea    -0x60(%rbp),%rax
  403b20:	48 89 c7             	mov    %rax,%rdi
  403b23:	e8 3e 17 00 00       	callq  405266 <_ZN9__gnu_cxx17__normal_iteratorIPiSt6vectorIiSaIiEEEppEv>
  403b28:	48 8d 55 c0          	lea    -0x40(%rbp),%rdx
  403b2c:	48 8d 45 a0          	lea    -0x60(%rbp),%rax
  403b30:	48 89 d6             	mov    %rdx,%rsi
  403b33:	48 89 c7             	mov    %rax,%rdi
  403b36:	e8 ee 16 00 00       	callq  405229 <_ZN9__gnu_cxxneIPiSt6vectorIiSaIiEEEEbRKNS_17__normal_iteratorIT_T0_EESA_>
  403b3b:	84 c0                	test   %al,%al
  403b3d:	75 b2                	jne    403af1 <_ZN6Datrie15solve_collisionEii+0x257>
  403b3f:	bf 0a 00 00 00       	mov    $0xa,%edi
  403b44:	e8 b7 d4 ff ff       	callq  401000 <putchar@plt>
  403b49:	8b 85 44 ff ff ff    	mov    -0xbc(%rbp),%eax
  403b4f:	48 98                	cltq   
  403b51:	48 8b 95 48 ff ff ff 	mov    -0xb8(%rbp),%rdx
  403b58:	48 83 c2 48          	add    $0x48,%rdx
  403b5c:	48 89 c6             	mov    %rax,%rsi
  403b5f:	48 89 d7             	mov    %rdx,%rdi
  403b62:	e8 3d 0d 00 00       	callq  4048a4 <_ZNSt6vectorI4nodeSaIS0_EEixEm>
  403b67:	8b 95 6c ff ff ff    	mov    -0x94(%rbp),%edx
  403b6d:	89 10                	mov    %edx,(%rax)
  403b6f:	48 8d 45 d0          	lea    -0x30(%rbp),%rax
  403b73:	48 89 c7             	mov    %rax,%rdi
  403b76:	e8 0b 17 00 00       	callq  405286 <_ZNSt6vectorIiSaIiEE8pop_backEv>
  403b7b:	8b 85 6c ff ff ff    	mov    -0x94(%rbp),%eax
  403b81:	89 c6                	mov    %eax,%esi
  403b83:	bf 67 96 40 00       	mov    $0x409667,%edi
  403b88:	b8 00 00 00 00       	mov    $0x0,%eax
  403b8d:	e8 be d3 ff ff       	callq  400f50 <printf@plt>
  403b92:	48 8d 45 d0          	lea    -0x30(%rbp),%rax
  403b96:	48 89 45 b8          	mov    %rax,-0x48(%rbp)
  403b9a:	48 8b 45 b8          	mov    -0x48(%rbp),%rax
  403b9e:	48 89 c7             	mov    %rax,%rdi
  403ba1:	e8 36 16 00 00       	callq  4051dc <_ZNSt6vectorIiSaIiEE5beginEv>
  403ba6:	48 89 45 90          	mov    %rax,-0x70(%rbp)
  403baa:	48 8b 45 b8          	mov    -0x48(%rbp),%rax
  403bae:	48 89 c7             	mov    %rax,%rdi
  403bb1:	e8 7c 15 00 00       	callq  405132 <_ZNSt6vectorIiSaIiEE3endEv>
  403bb6:	48 89 45 a0          	mov    %rax,-0x60(%rbp)
  403bba:	e9 9f 01 00 00       	jmpq   403d5e <_ZN6Datrie15solve_collisionEii+0x4c4>
  403bbf:	48 8d 45 90          	lea    -0x70(%rbp),%rax
  403bc3:	48 89 c7             	mov    %rax,%rdi
  403bc6:	e8 d7 15 00 00       	callq  4051a2 <_ZNK9__gnu_cxx17__normal_iteratorIPiSt6vectorIiSaIiEEEdeEv>
  403bcb:	8b 00                	mov    (%rax),%eax
  403bcd:	89 85 74 ff ff ff    	mov    %eax,-0x8c(%rbp)
  403bd3:	8b 85 74 ff ff ff    	mov    -0x8c(%rbp),%eax
  403bd9:	89 c6                	mov    %eax,%esi
  403bdb:	bf 75 96 40 00       	mov    $0x409675,%edi
  403be0:	b8 00 00 00 00       	mov    $0x0,%eax
  403be5:	e8 66 d3 ff ff       	callq  400f50 <printf@plt>
  403bea:	8b 85 74 ff ff ff    	mov    -0x8c(%rbp),%eax
  403bf0:	8b 95 6c ff ff ff    	mov    -0x94(%rbp),%edx
  403bf6:	01 d0                	add    %edx,%eax
  403bf8:	89 85 78 ff ff ff    	mov    %eax,-0x88(%rbp)
  403bfe:	8b 85 74 ff ff ff    	mov    -0x8c(%rbp),%eax
  403c04:	8b 95 68 ff ff ff    	mov    -0x98(%rbp),%edx
  403c0a:	01 d0                	add    %edx,%eax
  403c0c:	89 85 7c ff ff ff    	mov    %eax,-0x84(%rbp)
  403c12:	eb 0f                	jmp    403c23 <_ZN6Datrie15solve_collisionEii+0x389>
  403c14:	48 8b 85 48 ff ff ff 	mov    -0xb8(%rbp),%rax
  403c1b:	48 89 c7             	mov    %rax,%rdi
  403c1e:	e8 09 f9 ff ff       	callq  40352c <_ZN6Datrie11double_sizeEv>
  403c23:	48 8b 85 48 ff ff ff 	mov    -0xb8(%rbp),%rax
  403c2a:	8b 40 78             	mov    0x78(%rax),%eax
  403c2d:	3b 85 78 ff ff ff    	cmp    -0x88(%rbp),%eax
  403c33:	7e df                	jle    403c14 <_ZN6Datrie15solve_collisionEii+0x37a>
  403c35:	8b 85 78 ff ff ff    	mov    -0x88(%rbp),%eax
  403c3b:	48 98                	cltq   
  403c3d:	48 8b 95 48 ff ff ff 	mov    -0xb8(%rbp),%rdx
  403c44:	48 83 c2 60          	add    $0x60,%rdx
  403c48:	48 89 c6             	mov    %rax,%rsi
  403c4b:	48 89 d7             	mov    %rdx,%rdi
  403c4e:	e8 71 0c 00 00       	callq  4048c4 <_ZNSt6vectorIiSaIiEEixEm>
  403c53:	8b 95 44 ff ff ff    	mov    -0xbc(%rbp),%edx
  403c59:	89 10                	mov    %edx,(%rax)
  403c5b:	8b 85 78 ff ff ff    	mov    -0x88(%rbp),%eax
  403c61:	48 98                	cltq   
  403c63:	48 8b 95 48 ff ff ff 	mov    -0xb8(%rbp),%rdx
  403c6a:	48 83 c2 48          	add    $0x48,%rdx
  403c6e:	48 89 c6             	mov    %rax,%rsi
  403c71:	48 89 d7             	mov    %rdx,%rdi
  403c74:	e8 2b 0c 00 00       	callq  4048a4 <_ZNSt6vectorI4nodeSaIS0_EEixEm>
  403c79:	48 89 c3             	mov    %rax,%rbx
  403c7c:	8b 85 7c ff ff ff    	mov    -0x84(%rbp),%eax
  403c82:	48 98                	cltq   
  403c84:	48 8b 95 48 ff ff ff 	mov    -0xb8(%rbp),%rdx
  403c8b:	48 83 c2 48          	add    $0x48,%rdx
  403c8f:	48 89 c6             	mov    %rax,%rsi
  403c92:	48 89 d7             	mov    %rdx,%rdi
  403c95:	e8 0a 0c 00 00       	callq  4048a4 <_ZNSt6vectorI4nodeSaIS0_EEixEm>
  403c9a:	48 8b 00             	mov    (%rax),%rax
  403c9d:	48 89 03             	mov    %rax,(%rbx)
  403ca0:	8b 85 7c ff ff ff    	mov    -0x84(%rbp),%eax
  403ca6:	48 98                	cltq   
  403ca8:	48 8b 95 48 ff ff ff 	mov    -0xb8(%rbp),%rdx
  403caf:	48 83 c2 60          	add    $0x60,%rdx
  403cb3:	48 89 c6             	mov    %rax,%rsi
  403cb6:	48 89 d7             	mov    %rdx,%rdi
  403cb9:	e8 06 0c 00 00       	callq  4048c4 <_ZNSt6vectorIiSaIiEEixEm>
  403cbe:	48 8b 95 48 ff ff ff 	mov    -0xb8(%rbp),%rdx
  403cc5:	8b 12                	mov    (%rdx),%edx
  403cc7:	89 10                	mov    %edx,(%rax)
  403cc9:	8b 85 7c ff ff ff    	mov    -0x84(%rbp),%eax
  403ccf:	48 98                	cltq   
  403cd1:	48 8b 95 48 ff ff ff 	mov    -0xb8(%rbp),%rdx
  403cd8:	48 83 c2 48          	add    $0x48,%rdx
  403cdc:	48 89 c6             	mov    %rax,%rsi
  403cdf:	48 89 d7             	mov    %rdx,%rdi
  403ce2:	e8 bd 0b 00 00       	callq  4048a4 <_ZNSt6vectorI4nodeSaIS0_EEixEm>
  403ce7:	48 8b 95 48 ff ff ff 	mov    -0xb8(%rbp),%rdx
  403cee:	8b 12                	mov    (%rdx),%edx
  403cf0:	89 10                	mov    %edx,(%rax)
  403cf2:	8b 85 7c ff ff ff    	mov    -0x84(%rbp),%eax
  403cf8:	48 98                	cltq   
  403cfa:	48 8b 95 48 ff ff ff 	mov    -0xb8(%rbp),%rdx
  403d01:	48 83 c2 48          	add    $0x48,%rdx
  403d05:	48 89 c6             	mov    %rax,%rsi
  403d08:	48 89 d7             	mov    %rdx,%rdi
  403d0b:	e8 94 0b 00 00       	callq  4048a4 <_ZNSt6vectorI4nodeSaIS0_EEixEm>
  403d10:	48 8b 95 48 ff ff ff 	mov    -0xb8(%rbp),%rdx
  403d17:	8b 12                	mov    (%rdx),%edx
  403d19:	89 50 04             	mov    %edx,0x4(%rax)
  403d1c:	8b b5 78 ff ff ff    	mov    -0x88(%rbp),%esi
  403d22:	48 8d 45 c0          	lea    -0x40(%rbp),%rax
  403d26:	b9 00 00 00 00       	mov    $0x0,%ecx
  403d2b:	ba 00 00 00 00       	mov    $0x0,%edx
  403d30:	48 89 c7             	mov    %rax,%rdi
  403d33:	e8 dc 09 00 00       	callq  404714 <_ZN4areaC1Eiii>
  403d38:	48 8b 85 48 ff ff ff 	mov    -0xb8(%rbp),%rax
  403d3f:	48 8b 40 10          	mov    0x10(%rax),%rax
  403d43:	48 8d 55 c0          	lea    -0x40(%rbp),%rdx
  403d47:	48 89 d6             	mov    %rdx,%rsi
  403d4a:	48 89 c7             	mov    %rax,%rdi
  403d4d:	e8 5c 04 00 00       	callq  4041ae <_ZN13AreaContainer8get_areaE4area>
  403d52:	48 8d 45 90          	lea    -0x70(%rbp),%rax
  403d56:	48 89 c7             	mov    %rax,%rdi
  403d59:	e8 08 15 00 00       	callq  405266 <_ZN9__gnu_cxx17__normal_iteratorIPiSt6vectorIiSaIiEEEppEv>
  403d5e:	48 8d 55 a0          	lea    -0x60(%rbp),%rdx
  403d62:	48 8d 45 90          	lea    -0x70(%rbp),%rax
  403d66:	48 89 d6             	mov    %rdx,%rsi
  403d69:	48 89 c7             	mov    %rax,%rdi
  403d6c:	e8 b8 14 00 00       	callq  405229 <_ZN9__gnu_cxxneIPiSt6vectorIiSaIiEEEEbRKNS_17__normal_iteratorIT_T0_EESA_>
  403d71:	84 c0                	test   %al,%al
  403d73:	0f 85 46 fe ff ff    	jne    403bbf <_ZN6Datrie15solve_collisionEii+0x325>
  403d79:	8b 95 54 ff ff ff    	mov    -0xac(%rbp),%edx
  403d7f:	8b 85 6c ff ff ff    	mov    -0x94(%rbp),%eax
  403d85:	01 d0                	add    %edx,%eax
  403d87:	48 98                	cltq   
  403d89:	48 8b 95 48 ff ff ff 	mov    -0xb8(%rbp),%rdx
  403d90:	48 83 c2 48          	add    $0x48,%rdx
  403d94:	48 89 c6             	mov    %rax,%rsi
  403d97:	48 89 d7             	mov    %rdx,%rdi
  403d9a:	e8 05 0b 00 00       	callq  4048a4 <_ZNSt6vectorI4nodeSaIS0_EEixEm>
  403d9f:	8b 95 6c ff ff ff    	mov    -0x94(%rbp),%edx
  403da5:	89 10                	mov    %edx,(%rax)
  403da7:	8b 95 54 ff ff ff    	mov    -0xac(%rbp),%edx
  403dad:	8b 85 6c ff ff ff    	mov    -0x94(%rbp),%eax
  403db3:	01 d0                	add    %edx,%eax
  403db5:	48 98                	cltq   
  403db7:	48 8b 95 48 ff ff ff 	mov    -0xb8(%rbp),%rdx
  403dbe:	48 83 c2 60          	add    $0x60,%rdx
  403dc2:	48 89 c6             	mov    %rax,%rsi
  403dc5:	48 89 d7             	mov    %rdx,%rdi
  403dc8:	e8 f7 0a 00 00       	callq  4048c4 <_ZNSt6vectorIiSaIiEEixEm>
  403dcd:	8b 95 44 ff ff ff    	mov    -0xbc(%rbp),%edx
  403dd3:	89 10                	mov    %edx,(%rax)
  403dd5:	8b 95 54 ff ff ff    	mov    -0xac(%rbp),%edx
  403ddb:	8b 85 6c ff ff ff    	mov    -0x94(%rbp),%eax
  403de1:	8d 34 02             	lea    (%rdx,%rax,1),%esi
  403de4:	48 8d 45 c0          	lea    -0x40(%rbp),%rax
  403de8:	b9 00 00 00 00       	mov    $0x0,%ecx
  403ded:	ba 00 00 00 00       	mov    $0x0,%edx
  403df2:	48 89 c7             	mov    %rax,%rdi
  403df5:	e8 1a 09 00 00       	callq  404714 <_ZN4areaC1Eiii>
  403dfa:	48 8b 85 48 ff ff ff 	mov    -0xb8(%rbp),%rax
  403e01:	48 8b 40 10          	mov    0x10(%rax),%rax
  403e05:	48 8d 55 c0          	lea    -0x40(%rbp),%rdx
  403e09:	48 89 d6             	mov    %rdx,%rsi
  403e0c:	48 89 c7             	mov    %rax,%rdi
  403e0f:	e8 9a 03 00 00       	callq  4041ae <_ZN13AreaContainer8get_areaE4area>
  403e14:	c7 85 64 ff ff ff 00 	movl   $0x0,-0x9c(%rbp)
  403e1b:	00 00 00 
  403e1e:	e9 b9 00 00 00       	jmpq   403edc <_ZN6Datrie15solve_collisionEii+0x642>
  403e23:	8b 85 64 ff ff ff    	mov    -0x9c(%rbp),%eax
  403e29:	48 98                	cltq   
  403e2b:	48 8b 95 48 ff ff ff 	mov    -0xb8(%rbp),%rdx
  403e32:	48 83 c2 60          	add    $0x60,%rdx
  403e36:	48 89 c6             	mov    %rax,%rsi
  403e39:	48 89 d7             	mov    %rdx,%rdi
  403e3c:	e8 83 0a 00 00       	callq  4048c4 <_ZNSt6vectorIiSaIiEEixEm>
  403e41:	8b 00                	mov    (%rax),%eax
  403e43:	2b 85 68 ff ff ff    	sub    -0x98(%rbp),%eax
  403e49:	89 45 c0             	mov    %eax,-0x40(%rbp)
  403e4c:	48 8d 45 d0          	lea    -0x30(%rbp),%rax
  403e50:	48 89 c7             	mov    %rax,%rdi
  403e53:	e8 da 12 00 00       	callq  405132 <_ZNSt6vectorIiSaIiEE3endEv>
  403e58:	48 89 c3             	mov    %rax,%rbx
  403e5b:	48 8d 45 d0          	lea    -0x30(%rbp),%rax
  403e5f:	48 89 c7             	mov    %rax,%rdi
  403e62:	e8 75 13 00 00       	callq  4051dc <_ZNSt6vectorIiSaIiEE5beginEv>
  403e67:	48 8d 55 c0          	lea    -0x40(%rbp),%rdx
  403e6b:	48 89 de             	mov    %rbx,%rsi
  403e6e:	48 89 c7             	mov    %rax,%rdi
  403e71:	e8 49 14 00 00       	callq  4052bf <_ZSt4findIN9__gnu_cxx17__normal_iteratorIPiSt6vectorIiSaIiEEEEiET_S7_S7_RKT0_>
  403e76:	48 89 45 a0          	mov    %rax,-0x60(%rbp)
  403e7a:	48 8d 45 d0          	lea    -0x30(%rbp),%rax
  403e7e:	48 89 c7             	mov    %rax,%rdi
  403e81:	e8 ac 12 00 00       	callq  405132 <_ZNSt6vectorIiSaIiEE3endEv>
  403e86:	48 89 45 c0          	mov    %rax,-0x40(%rbp)
  403e8a:	48 8d 55 c0          	lea    -0x40(%rbp),%rdx
  403e8e:	48 8d 45 a0          	lea    -0x60(%rbp),%rax
  403e92:	48 89 d6             	mov    %rdx,%rsi
  403e95:	48 89 c7             	mov    %rax,%rdi
  403e98:	e8 8c 13 00 00       	callq  405229 <_ZN9__gnu_cxxneIPiSt6vectorIiSaIiEEEEbRKNS_17__normal_iteratorIT_T0_EESA_>
  403e9d:	84 c0                	test   %al,%al
  403e9f:	74 34                	je     403ed5 <_ZN6Datrie15solve_collisionEii+0x63b>
  403ea1:	8b 85 64 ff ff ff    	mov    -0x9c(%rbp),%eax
  403ea7:	48 98                	cltq   
  403ea9:	48 8b 95 48 ff ff ff 	mov    -0xb8(%rbp),%rdx
  403eb0:	48 83 c2 60          	add    $0x60,%rdx
  403eb4:	48 89 c6             	mov    %rax,%rsi
  403eb7:	48 89 d7             	mov    %rdx,%rdi
  403eba:	e8 05 0a 00 00       	callq  4048c4 <_ZNSt6vectorIiSaIiEEixEm>
  403ebf:	8b 10                	mov    (%rax),%edx
  403ec1:	8b 8d 68 ff ff ff    	mov    -0x98(%rbp),%ecx
  403ec7:	8b b5 6c ff ff ff    	mov    -0x94(%rbp),%esi
  403ecd:	29 ce                	sub    %ecx,%esi
  403ecf:	89 f1                	mov    %esi,%ecx
  403ed1:	01 ca                	add    %ecx,%edx
  403ed3:	89 10                	mov    %edx,(%rax)
  403ed5:	83 85 64 ff ff ff 01 	addl   $0x1,-0x9c(%rbp)
  403edc:	48 8b 85 48 ff ff ff 	mov    -0xb8(%rbp),%rax
  403ee3:	8b 40 78             	mov    0x78(%rax),%eax
  403ee6:	3b 85 64 ff ff ff    	cmp    -0x9c(%rbp),%eax
  403eec:	0f 8f 31 ff ff ff    	jg     403e23 <_ZN6Datrie15solve_collisionEii+0x589>
  403ef2:	8b 95 54 ff ff ff    	mov    -0xac(%rbp),%edx
  403ef8:	8b 85 6c ff ff ff    	mov    -0x94(%rbp),%eax
  403efe:	8d 1c 02             	lea    (%rdx,%rax,1),%ebx
  403f01:	48 8d 45 d0          	lea    -0x30(%rbp),%rax
  403f05:	48 89 c7             	mov    %rax,%rdi
  403f08:	e8 6b 0b 00 00       	callq  404a78 <_ZNSt6vectorIiSaIiEED1Ev>
  403f0d:	89 d8                	mov    %ebx,%eax
  403f0f:	eb 1a                	jmp    403f2b <_ZN6Datrie15solve_collisionEii+0x691>
  403f11:	48 89 c3             	mov    %rax,%rbx
  403f14:	48 8d 45 d0          	lea    -0x30(%rbp),%rax
  403f18:	48 89 c7             	mov    %rax,%rdi
  403f1b:	e8 58 0b 00 00       	callq  404a78 <_ZNSt6vectorIiSaIiEED1Ev>
  403f20:	48 89 d8             	mov    %rbx,%rax
  403f23:	48 89 c7             	mov    %rax,%rdi
  403f26:	e8 65 d2 ff ff       	callq  401190 <_Unwind_Resume@plt>
  403f2b:	48 81 c4 b8 00 00 00 	add    $0xb8,%rsp
  403f32:	5b                   	pop    %rbx
  403f33:	5d                   	pop    %rbp
  403f34:	c3                   	retq   
  403f35:	90                   	nop

0000000000403f36 <_ZN6Datrie11check_validEii>:
  403f36:	55                   	push   %rbp
  403f37:	48 89 e5             	mov    %rsp,%rbp
  403f3a:	53                   	push   %rbx
  403f3b:	48 83 ec 48          	sub    $0x48,%rsp
  403f3f:	48 89 7d b8          	mov    %rdi,-0x48(%rbp)
  403f43:	89 75 b4             	mov    %esi,-0x4c(%rbp)
  403f46:	89 55 b0             	mov    %edx,-0x50(%rbp)
  403f49:	48 8b 45 b8          	mov    -0x48(%rbp),%rax
  403f4d:	48 83 c0 30          	add    $0x30,%rax
  403f51:	48 89 c7             	mov    %rax,%rdi
  403f54:	e8 a9 13 00 00       	callq  405302 <_ZNKSt6vectorI4areaSaIS0_EE4sizeEv>
  403f59:	48 85 c0             	test   %rax,%rax
  403f5c:	0f 94 c0             	sete   %al
  403f5f:	84 c0                	test   %al,%al
  403f61:	74 0a                	je     403f6d <_ZN6Datrie11check_validEii+0x37>
  403f63:	b8 01 00 00 00       	mov    $0x1,%eax
  403f68:	e9 0b 01 00 00       	jmpq   404078 <_ZN6Datrie11check_validEii+0x142>
  403f6d:	8b 45 b4             	mov    -0x4c(%rbp),%eax
  403f70:	8d 78 01             	lea    0x1(%rax),%edi
  403f73:	8b 55 b0             	mov    -0x50(%rbp),%edx
  403f76:	8b 75 b4             	mov    -0x4c(%rbp),%esi
  403f79:	48 8d 45 e0          	lea    -0x20(%rbp),%rax
  403f7d:	89 d1                	mov    %edx,%ecx
  403f7f:	89 fa                	mov    %edi,%edx
  403f81:	48 89 c7             	mov    %rax,%rdi
  403f84:	e8 8b 07 00 00       	callq  404714 <_ZN4areaC1Eiii>
  403f89:	48 8b 45 b8          	mov    -0x48(%rbp),%rax
  403f8d:	48 83 c0 30          	add    $0x30,%rax
  403f91:	48 89 c7             	mov    %rax,%rdi
  403f94:	e8 71 09 00 00       	callq  40490a <_ZNSt6vectorI4areaSaIS0_EE3endEv>
  403f99:	48 89 c3             	mov    %rax,%rbx
  403f9c:	48 8b 45 b8          	mov    -0x48(%rbp),%rax
  403fa0:	48 83 c0 30          	add    $0x30,%rax
  403fa4:	48 89 c7             	mov    %rax,%rdi
  403fa7:	e8 38 09 00 00       	callq  4048e4 <_ZNSt6vectorI4areaSaIS0_EE5beginEv>
  403fac:	48 8d 55 e0          	lea    -0x20(%rbp),%rdx
  403fb0:	b9 bf 47 40 00       	mov    $0x4047bf,%ecx
  403fb5:	48 89 de             	mov    %rbx,%rsi
  403fb8:	48 89 c7             	mov    %rax,%rdi
  403fbb:	e8 07 0f 00 00       	callq  404ec7 <_ZSt11upper_boundIN9__gnu_cxx17__normal_iteratorIP4areaSt6vectorIS2_SaIS2_EEEES2_PFbS2_S2_EET_SA_SA_RKT0_T1_>
  403fc0:	48 89 45 c0          	mov    %rax,-0x40(%rbp)
  403fc4:	48 8b 45 b8          	mov    -0x48(%rbp),%rax
  403fc8:	48 83 c0 30          	add    $0x30,%rax
  403fcc:	48 89 c7             	mov    %rax,%rdi
  403fcf:	e8 10 09 00 00       	callq  4048e4 <_ZNSt6vectorI4areaSaIS0_EE5beginEv>
  403fd4:	48 89 45 e0          	mov    %rax,-0x20(%rbp)
  403fd8:	48 8d 55 e0          	lea    -0x20(%rbp),%rdx
  403fdc:	48 8d 45 c0          	lea    -0x40(%rbp),%rax
  403fe0:	48 89 d6             	mov    %rdx,%rsi
  403fe3:	48 89 c7             	mov    %rax,%rdi
  403fe6:	e8 48 09 00 00       	callq  404933 <_ZN9__gnu_cxxneIP4areaSt6vectorIS1_SaIS1_EEEEbRKNS_17__normal_iteratorIT_T0_EESB_>
  403feb:	84 c0                	test   %al,%al
  403fed:	0f 84 80 00 00 00    	je     404073 <_ZN6Datrie11check_validEii+0x13d>
  403ff3:	48 c7 45 e0 01 00 00 	movq   $0x1,-0x20(%rbp)
  403ffa:	00 
  403ffb:	48 8d 55 e0          	lea    -0x20(%rbp),%rdx
  403fff:	48 8d 45 c0          	lea    -0x40(%rbp),%rax
  404003:	48 89 d6             	mov    %rdx,%rsi
  404006:	48 89 c7             	mov    %rax,%rdi
  404009:	e8 f4 0c 00 00       	callq  404d02 <_ZNK9__gnu_cxx17__normal_iteratorIP4areaSt6vectorIS1_SaIS1_EEEmiERKl>
  40400e:	48 89 45 d0          	mov    %rax,-0x30(%rbp)
  404012:	48 8d 45 d0          	lea    -0x30(%rbp),%rax
  404016:	48 89 c7             	mov    %rax,%rdi
  404019:	e8 72 09 00 00       	callq  404990 <_ZNK9__gnu_cxx17__normal_iteratorIP4areaSt6vectorIS1_SaIS1_EEEdeEv>
  40401e:	8b 40 04             	mov    0x4(%rax),%eax
  404021:	3b 45 b4             	cmp    -0x4c(%rbp),%eax
  404024:	0f 9e c0             	setle  %al
  404027:	84 c0                	test   %al,%al
  404029:	74 07                	je     404032 <_ZN6Datrie11check_validEii+0xfc>
  40402b:	b8 01 00 00 00       	mov    $0x1,%eax
  404030:	eb 46                	jmp    404078 <_ZN6Datrie11check_validEii+0x142>
  404032:	48 c7 45 e0 01 00 00 	movq   $0x1,-0x20(%rbp)
  404039:	00 
  40403a:	48 8d 55 e0          	lea    -0x20(%rbp),%rdx
  40403e:	48 8d 45 c0          	lea    -0x40(%rbp),%rax
  404042:	48 89 d6             	mov    %rdx,%rsi
  404045:	48 89 c7             	mov    %rax,%rdi
  404048:	e8 b5 0c 00 00       	callq  404d02 <_ZNK9__gnu_cxx17__normal_iteratorIP4areaSt6vectorIS1_SaIS1_EEEmiERKl>
  40404d:	48 89 45 d0          	mov    %rax,-0x30(%rbp)
  404051:	48 8d 45 d0          	lea    -0x30(%rbp),%rax
  404055:	48 89 c7             	mov    %rax,%rdi
  404058:	e8 33 09 00 00       	callq  404990 <_ZNK9__gnu_cxx17__normal_iteratorIP4areaSt6vectorIS1_SaIS1_EEEdeEv>
  40405d:	8b 40 08             	mov    0x8(%rax),%eax
  404060:	3b 45 b0             	cmp    -0x50(%rbp),%eax
  404063:	75 07                	jne    40406c <_ZN6Datrie11check_validEii+0x136>
  404065:	b8 02 00 00 00       	mov    $0x2,%eax
  40406a:	eb 0c                	jmp    404078 <_ZN6Datrie11check_validEii+0x142>
  40406c:	b8 00 00 00 00       	mov    $0x0,%eax
  404071:	eb 05                	jmp    404078 <_ZN6Datrie11check_validEii+0x142>
  404073:	b8 01 00 00 00       	mov    $0x1,%eax
  404078:	48 83 c4 48          	add    $0x48,%rsp
  40407c:	5b                   	pop    %rbx
  40407d:	5d                   	pop    %rbp
  40407e:	c3                   	retq   
  40407f:	90                   	nop

0000000000404080 <_ZN13AreaContainerC1EP6Datrie>:
  404080:	55                   	push   %rbp
  404081:	48 89 e5             	mov    %rsp,%rbp
  404084:	53                   	push   %rbx
  404085:	48 83 ec 18          	sub    $0x18,%rsp
  404089:	48 89 7d e8          	mov    %rdi,-0x18(%rbp)
  40408d:	48 89 75 e0          	mov    %rsi,-0x20(%rbp)
  404091:	48 8b 45 e8          	mov    -0x18(%rbp),%rax
  404095:	48 89 c7             	mov    %rax,%rdi
  404098:	e8 05 09 00 00       	callq  4049a2 <_ZNSt6vectorI4areaSaIS0_EEC1Ev>
  40409d:	48 8b 45 e8          	mov    -0x18(%rbp),%rax
  4040a1:	48 83 c0 18          	add    $0x18,%rax
  4040a5:	48 89 c7             	mov    %rax,%rdi
  4040a8:	e8 f5 08 00 00       	callq  4049a2 <_ZNSt6vectorI4areaSaIS0_EEC1Ev>
  4040ad:	48 8b 45 e8          	mov    -0x18(%rbp),%rax
  4040b1:	48 8b 55 e0          	mov    -0x20(%rbp),%rdx
  4040b5:	48 89 50 30          	mov    %rdx,0x30(%rax)
  4040b9:	eb 1a                	jmp    4040d5 <_ZN13AreaContainerC1EP6Datrie+0x55>
  4040bb:	48 89 c3             	mov    %rax,%rbx
  4040be:	48 8b 45 e8          	mov    -0x18(%rbp),%rax
  4040c2:	48 89 c7             	mov    %rax,%rdi
  4040c5:	e8 f2 08 00 00       	callq  4049bc <_ZNSt6vectorI4areaSaIS0_EED1Ev>
  4040ca:	48 89 d8             	mov    %rbx,%rax
  4040cd:	48 89 c7             	mov    %rax,%rdi
  4040d0:	e8 bb d0 ff ff       	callq  401190 <_Unwind_Resume@plt>
  4040d5:	48 83 c4 18          	add    $0x18,%rsp
  4040d9:	5b                   	pop    %rbx
  4040da:	5d                   	pop    %rbp
  4040db:	c3                   	retq   

00000000004040dc <_ZN13AreaContainer8get_baseEi>:
  4040dc:	55                   	push   %rbp
  4040dd:	48 89 e5             	mov    %rsp,%rbp
  4040e0:	53                   	push   %rbx
  4040e1:	48 83 ec 38          	sub    $0x38,%rsp
  4040e5:	48 89 7d c8          	mov    %rdi,-0x38(%rbp)
  4040e9:	89 75 c4             	mov    %esi,-0x3c(%rbp)
  4040ec:	8b 55 c4             	mov    -0x3c(%rbp),%edx
  4040ef:	48 8d 45 e0          	lea    -0x20(%rbp),%rax
  4040f3:	b9 00 00 00 00       	mov    $0x0,%ecx
  4040f8:	be 00 00 00 00       	mov    $0x0,%esi
  4040fd:	48 89 c7             	mov    %rax,%rdi
  404100:	e8 0f 06 00 00       	callq  404714 <_ZN4areaC1Eiii>
  404105:	48 8b 45 c8          	mov    -0x38(%rbp),%rax
  404109:	48 83 c0 18          	add    $0x18,%rax
  40410d:	48 89 c7             	mov    %rax,%rdi
  404110:	e8 f5 07 00 00       	callq  40490a <_ZNSt6vectorI4areaSaIS0_EE3endEv>
  404115:	48 89 c3             	mov    %rax,%rbx
  404118:	48 8b 45 c8          	mov    -0x38(%rbp),%rax
  40411c:	48 83 c0 18          	add    $0x18,%rax
  404120:	48 89 c7             	mov    %rax,%rdi
  404123:	e8 bc 07 00 00       	callq  4048e4 <_ZNSt6vectorI4areaSaIS0_EE5beginEv>
  404128:	48 8d 55 e0          	lea    -0x20(%rbp),%rdx
  40412c:	b9 de 47 40 00       	mov    $0x4047de,%ecx
  404131:	48 89 de             	mov    %rbx,%rsi
  404134:	48 89 c7             	mov    %rax,%rdi
  404137:	e8 fd 11 00 00       	callq  405339 <_ZSt11lower_boundIN9__gnu_cxx17__normal_iteratorIP4areaSt6vectorIS2_SaIS2_EEEES2_PFbS2_S2_EET_SA_SA_RKT0_T1_>
  40413c:	48 89 45 d0          	mov    %rax,-0x30(%rbp)
  404140:	48 8b 45 c8          	mov    -0x38(%rbp),%rax
  404144:	48 83 c0 18          	add    $0x18,%rax
  404148:	48 89 c7             	mov    %rax,%rdi
  40414b:	e8 ba 07 00 00       	callq  40490a <_ZNSt6vectorI4areaSaIS0_EE3endEv>
  404150:	48 89 45 e0          	mov    %rax,-0x20(%rbp)
  404154:	48 8d 55 e0          	lea    -0x20(%rbp),%rdx
  404158:	48 8d 45 d0          	lea    -0x30(%rbp),%rax
  40415c:	48 89 d6             	mov    %rdx,%rsi
  40415f:	48 89 c7             	mov    %rax,%rdi
  404162:	e8 cc 07 00 00       	callq  404933 <_ZN9__gnu_cxxneIP4areaSt6vectorIS1_SaIS1_EEEEbRKNS_17__normal_iteratorIT_T0_EESB_>
  404167:	84 c0                	test   %al,%al
  404169:	74 10                	je     40417b <_ZN13AreaContainer8get_baseEi+0x9f>
  40416b:	48 8d 45 d0          	lea    -0x30(%rbp),%rax
  40416f:	48 89 c7             	mov    %rax,%rdi
  404172:	e8 19 08 00 00       	callq  404990 <_ZNK9__gnu_cxx17__normal_iteratorIP4areaSt6vectorIS1_SaIS1_EEEdeEv>
  404177:	8b 00                	mov    (%rax),%eax
  404179:	eb 2b                	jmp    4041a6 <_ZN13AreaContainer8get_baseEi+0xca>
  40417b:	bf 7e 96 40 00       	mov    $0x40967e,%edi
  404180:	e8 1b ce ff ff       	callq  400fa0 <puts@plt>
  404185:	48 8b 45 c8          	mov    -0x38(%rbp),%rax
  404189:	48 8b 40 30          	mov    0x30(%rax),%rax
  40418d:	48 89 c7             	mov    %rax,%rdi
  404190:	e8 97 f3 ff ff       	callq  40352c <_ZN6Datrie11double_sizeEv>
  404195:	8b 55 c4             	mov    -0x3c(%rbp),%edx
  404198:	48 8b 45 c8          	mov    -0x38(%rbp),%rax
  40419c:	89 d6                	mov    %edx,%esi
  40419e:	48 89 c7             	mov    %rax,%rdi
  4041a1:	e8 36 ff ff ff       	callq  4040dc <_ZN13AreaContainer8get_baseEi>
  4041a6:	48 83 c4 38          	add    $0x38,%rsp
  4041aa:	5b                   	pop    %rbx
  4041ab:	5d                   	pop    %rbp
  4041ac:	c3                   	retq   
  4041ad:	90                   	nop

00000000004041ae <_ZN13AreaContainer8get_areaE4area>:
  4041ae:	55                   	push   %rbp
  4041af:	48 89 e5             	mov    %rsp,%rbp
  4041b2:	41 57                	push   %r15
  4041b4:	41 56                	push   %r14
  4041b6:	41 55                	push   %r13
  4041b8:	41 54                	push   %r12
  4041ba:	53                   	push   %rbx
  4041bb:	48 81 ec a8 00 00 00 	sub    $0xa8,%rsp
  4041c2:	48 89 bd 38 ff ff ff 	mov    %rdi,-0xc8(%rbp)
  4041c9:	48 89 b5 30 ff ff ff 	mov    %rsi,-0xd0(%rbp)
  4041d0:	48 8b 85 30 ff ff ff 	mov    -0xd0(%rbp),%rax
  4041d7:	48 89 c7             	mov    %rax,%rdi
  4041da:	e8 c5 05 00 00       	callq  4047a4 <_ZN4area4sizeEv>
  4041df:	85 c0                	test   %eax,%eax
  4041e1:	0f 9e c0             	setle  %al
  4041e4:	84 c0                	test   %al,%al
  4041e6:	74 05                	je     4041ed <_ZN13AreaContainer8get_areaE4area+0x3f>
  4041e8:	e9 e3 04 00 00       	jmpq   4046d0 <_ZN13AreaContainer8get_areaE4area+0x522>
  4041ed:	48 8b 85 30 ff ff ff 	mov    -0xd0(%rbp),%rax
  4041f4:	8b 50 04             	mov    0x4(%rax),%edx
  4041f7:	48 8b 85 30 ff ff ff 	mov    -0xd0(%rbp),%rax
  4041fe:	8b 00                	mov    (%rax),%eax
  404200:	89 c6                	mov    %eax,%esi
  404202:	bf 94 96 40 00       	mov    $0x409694,%edi
  404207:	b8 00 00 00 00       	mov    $0x0,%eax
  40420c:	e8 3f cd ff ff       	callq  400f50 <printf@plt>
  404211:	48 8b 85 38 ff ff ff 	mov    -0xc8(%rbp),%rax
  404218:	48 89 c7             	mov    %rax,%rdi
  40421b:	e8 ea 06 00 00       	callq  40490a <_ZNSt6vectorI4areaSaIS0_EE3endEv>
  404220:	48 89 c3             	mov    %rax,%rbx
  404223:	48 8b 85 38 ff ff ff 	mov    -0xc8(%rbp),%rax
  40422a:	48 89 c7             	mov    %rax,%rdi
  40422d:	e8 b2 06 00 00       	callq  4048e4 <_ZNSt6vectorI4areaSaIS0_EE5beginEv>
  404232:	48 8b 95 30 ff ff ff 	mov    -0xd0(%rbp),%rdx
  404239:	b9 bf 47 40 00       	mov    $0x4047bf,%ecx
  40423e:	48 89 de             	mov    %rbx,%rsi
  404241:	48 89 c7             	mov    %rax,%rdi
  404244:	e8 7e 0c 00 00       	callq  404ec7 <_ZSt11upper_boundIN9__gnu_cxx17__normal_iteratorIP4areaSt6vectorIS2_SaIS2_EEEES2_PFbS2_S2_EET_SA_SA_RKT0_T1_>
  404249:	48 89 85 50 ff ff ff 	mov    %rax,-0xb0(%rbp)
  404250:	bf 04 00 00 00       	mov    $0x4,%edi
  404255:	e8 bb 05 00 00       	callq  404815 <_Z1di>
  40425a:	48 8b 85 38 ff ff ff 	mov    -0xc8(%rbp),%rax
  404261:	48 89 c7             	mov    %rax,%rdi
  404264:	e8 7b 06 00 00       	callq  4048e4 <_ZNSt6vectorI4areaSaIS0_EE5beginEv>
  404269:	48 89 45 c0          	mov    %rax,-0x40(%rbp)
  40426d:	48 8d 55 c0          	lea    -0x40(%rbp),%rdx
  404271:	48 8d 85 50 ff ff ff 	lea    -0xb0(%rbp),%rax
  404278:	48 89 d6             	mov    %rdx,%rsi
  40427b:	48 89 c7             	mov    %rax,%rdi
  40427e:	e8 b0 06 00 00       	callq  404933 <_ZN9__gnu_cxxneIP4areaSt6vectorIS1_SaIS1_EEEEbRKNS_17__normal_iteratorIT_T0_EESB_>
  404283:	84 c0                	test   %al,%al
  404285:	0f 84 2f 04 00 00    	je     4046ba <_ZN13AreaContainer8get_areaE4area+0x50c>
  40428b:	48 c7 45 c0 01 00 00 	movq   $0x1,-0x40(%rbp)
  404292:	00 
  404293:	48 8d 55 c0          	lea    -0x40(%rbp),%rdx
  404297:	48 8d 85 50 ff ff ff 	lea    -0xb0(%rbp),%rax
  40429e:	48 89 d6             	mov    %rdx,%rsi
  4042a1:	48 89 c7             	mov    %rax,%rdi
  4042a4:	e8 59 0a 00 00       	callq  404d02 <_ZNK9__gnu_cxx17__normal_iteratorIP4areaSt6vectorIS1_SaIS1_EEEmiERKl>
  4042a9:	48 89 45 b0          	mov    %rax,-0x50(%rbp)
  4042ad:	48 8d 45 b0          	lea    -0x50(%rbp),%rax
  4042b1:	48 89 c7             	mov    %rax,%rdi
  4042b4:	e8 d7 06 00 00       	callq  404990 <_ZNK9__gnu_cxx17__normal_iteratorIP4areaSt6vectorIS1_SaIS1_EEEdeEv>
  4042b9:	49 89 c4             	mov    %rax,%r12
  4042bc:	48 8b 85 38 ff ff ff 	mov    -0xc8(%rbp),%rax
  4042c3:	48 83 c0 18          	add    $0x18,%rax
  4042c7:	48 89 c7             	mov    %rax,%rdi
  4042ca:	e8 3b 06 00 00       	callq  40490a <_ZNSt6vectorI4areaSaIS0_EE3endEv>
  4042cf:	48 89 c3             	mov    %rax,%rbx
  4042d2:	48 8b 85 38 ff ff ff 	mov    -0xc8(%rbp),%rax
  4042d9:	48 83 c0 18          	add    $0x18,%rax
  4042dd:	48 89 c7             	mov    %rax,%rdi
  4042e0:	e8 ff 05 00 00       	callq  4048e4 <_ZNSt6vectorI4areaSaIS0_EE5beginEv>
  4042e5:	b9 de 47 40 00       	mov    $0x4047de,%ecx
  4042ea:	4c 89 e2             	mov    %r12,%rdx
  4042ed:	48 89 de             	mov    %rbx,%rsi
  4042f0:	48 89 c7             	mov    %rax,%rdi
  4042f3:	e8 cf 0b 00 00       	callq  404ec7 <_ZSt11upper_boundIN9__gnu_cxx17__normal_iteratorIP4areaSt6vectorIS2_SaIS2_EEEES2_PFbS2_S2_EET_SA_SA_RKT0_T1_>
  4042f8:	48 89 85 60 ff ff ff 	mov    %rax,-0xa0(%rbp)
  4042ff:	eb 0f                	jmp    404310 <_ZN13AreaContainer8get_areaE4area+0x162>
  404301:	48 8d 85 60 ff ff ff 	lea    -0xa0(%rbp),%rax
  404308:	48 89 c7             	mov    %rax,%rdi
  40430b:	e8 a0 0c 00 00       	callq  404fb0 <_ZN9__gnu_cxx17__normal_iteratorIP4areaSt6vectorIS1_SaIS1_EEEmmEv>
  404310:	bb 00 00 00 00       	mov    $0x0,%ebx
  404315:	41 bc 00 00 00 00    	mov    $0x0,%r12d
  40431b:	41 bd 00 00 00 00    	mov    $0x0,%r13d
  404321:	48 8d 85 60 ff ff ff 	lea    -0xa0(%rbp),%rax
  404328:	48 89 c7             	mov    %rax,%rdi
  40432b:	e8 60 06 00 00       	callq  404990 <_ZNK9__gnu_cxx17__normal_iteratorIP4areaSt6vectorIS1_SaIS1_EEEdeEv>
  404330:	44 8b 38             	mov    (%rax),%r15d
  404333:	48 c7 45 a0 01 00 00 	movq   $0x1,-0x60(%rbp)
  40433a:	00 
  40433b:	41 be 01 00 00 00    	mov    $0x1,%r14d
  404341:	48 8d 55 a0          	lea    -0x60(%rbp),%rdx
  404345:	48 8d 85 50 ff ff ff 	lea    -0xb0(%rbp),%rax
  40434c:	48 89 d6             	mov    %rdx,%rsi
  40434f:	48 89 c7             	mov    %rax,%rdi
  404352:	e8 ab 09 00 00       	callq  404d02 <_ZNK9__gnu_cxx17__normal_iteratorIP4areaSt6vectorIS1_SaIS1_EEEmiERKl>
  404357:	48 89 85 70 ff ff ff 	mov    %rax,-0x90(%rbp)
  40435e:	bb 01 00 00 00       	mov    $0x1,%ebx
  404363:	48 8d 85 70 ff ff ff 	lea    -0x90(%rbp),%rax
  40436a:	48 89 c7             	mov    %rax,%rdi
  40436d:	e8 1e 06 00 00       	callq  404990 <_ZNK9__gnu_cxx17__normal_iteratorIP4areaSt6vectorIS1_SaIS1_EEEdeEv>
  404372:	8b 00                	mov    (%rax),%eax
  404374:	41 39 c7             	cmp    %eax,%r15d
  404377:	75 55                	jne    4043ce <_ZN13AreaContainer8get_areaE4area+0x220>
  404379:	48 8d 85 60 ff ff ff 	lea    -0xa0(%rbp),%rax
  404380:	48 89 c7             	mov    %rax,%rdi
  404383:	e8 08 06 00 00       	callq  404990 <_ZNK9__gnu_cxx17__normal_iteratorIP4areaSt6vectorIS1_SaIS1_EEEdeEv>
  404388:	44 8b 78 04          	mov    0x4(%rax),%r15d
  40438c:	48 c7 45 a8 01 00 00 	movq   $0x1,-0x58(%rbp)
  404393:	00 
  404394:	41 bc 01 00 00 00    	mov    $0x1,%r12d
  40439a:	48 8d 55 a8          	lea    -0x58(%rbp),%rdx
  40439e:	48 8d 85 50 ff ff ff 	lea    -0xb0(%rbp),%rax
  4043a5:	48 89 d6             	mov    %rdx,%rsi
  4043a8:	48 89 c7             	mov    %rax,%rdi
  4043ab:	e8 52 09 00 00       	callq  404d02 <_ZNK9__gnu_cxx17__normal_iteratorIP4areaSt6vectorIS1_SaIS1_EEEmiERKl>
  4043b0:	48 89 45 80          	mov    %rax,-0x80(%rbp)
  4043b4:	41 bd 01 00 00 00    	mov    $0x1,%r13d
  4043ba:	48 8d 45 80          	lea    -0x80(%rbp),%rax
  4043be:	48 89 c7             	mov    %rax,%rdi
  4043c1:	e8 ca 05 00 00       	callq  404990 <_ZNK9__gnu_cxx17__normal_iteratorIP4areaSt6vectorIS1_SaIS1_EEEdeEv>
  4043c6:	8b 40 04             	mov    0x4(%rax),%eax
  4043c9:	41 39 c7             	cmp    %eax,%r15d
  4043cc:	74 07                	je     4043d5 <_ZN13AreaContainer8get_areaE4area+0x227>
  4043ce:	b8 01 00 00 00       	mov    $0x1,%eax
  4043d3:	eb 05                	jmp    4043da <_ZN13AreaContainer8get_areaE4area+0x22c>
  4043d5:	b8 00 00 00 00       	mov    $0x0,%eax
  4043da:	45 84 ed             	test   %r13b,%r13b
  4043dd:	45 84 e4             	test   %r12b,%r12b
  4043e0:	84 db                	test   %bl,%bl
  4043e2:	45 84 f6             	test   %r14b,%r14b
  4043e5:	84 c0                	test   %al,%al
  4043e7:	0f 85 14 ff ff ff    	jne    404301 <_ZN13AreaContainer8get_areaE4area+0x153>
  4043ed:	bf 03 00 00 00       	mov    $0x3,%edi
  4043f2:	e8 1e 04 00 00       	callq  404815 <_Z1di>
  4043f7:	48 c7 45 c0 01 00 00 	movq   $0x1,-0x40(%rbp)
  4043fe:	00 
  4043ff:	48 8d 55 c0          	lea    -0x40(%rbp),%rdx
  404403:	48 8d 85 50 ff ff ff 	lea    -0xb0(%rbp),%rax
  40440a:	48 89 d6             	mov    %rdx,%rsi
  40440d:	48 89 c7             	mov    %rax,%rdi
  404410:	e8 ed 08 00 00       	callq  404d02 <_ZNK9__gnu_cxx17__normal_iteratorIP4areaSt6vectorIS1_SaIS1_EEEmiERKl>
  404415:	48 89 45 b0          	mov    %rax,-0x50(%rbp)
  404419:	48 8d 45 b0          	lea    -0x50(%rbp),%rax
  40441d:	48 89 c7             	mov    %rax,%rdi
  404420:	e8 6b 05 00 00       	callq  404990 <_ZNK9__gnu_cxx17__normal_iteratorIP4areaSt6vectorIS1_SaIS1_EEEdeEv>
  404425:	8b 50 04             	mov    0x4(%rax),%edx
  404428:	48 8b 85 30 ff ff ff 	mov    -0xd0(%rbp),%rax
  40442f:	8b 40 04             	mov    0x4(%rax),%eax
  404432:	39 c2                	cmp    %eax,%edx
  404434:	0f 9d c0             	setge  %al
  404437:	84 c0                	test   %al,%al
  404439:	0f 84 7b 02 00 00    	je     4046ba <_ZN13AreaContainer8get_areaE4area+0x50c>
  40443f:	48 8b 85 38 ff ff ff 	mov    -0xc8(%rbp),%rax
  404446:	48 8d 50 18          	lea    0x18(%rax),%rdx
  40444a:	48 8b 85 60 ff ff ff 	mov    -0xa0(%rbp),%rax
  404451:	48 89 c6             	mov    %rax,%rsi
  404454:	48 89 d7             	mov    %rdx,%rdi
  404457:	e8 74 0b 00 00       	callq  404fd0 <_ZNSt6vectorI4areaSaIS0_EE5eraseEN9__gnu_cxx17__normal_iteratorIPS0_S2_EE>
  40445c:	48 c7 45 c0 01 00 00 	movq   $0x1,-0x40(%rbp)
  404463:	00 
  404464:	48 8d 55 c0          	lea    -0x40(%rbp),%rdx
  404468:	48 8d 85 50 ff ff ff 	lea    -0xb0(%rbp),%rax
  40446f:	48 89 d6             	mov    %rdx,%rsi
  404472:	48 89 c7             	mov    %rax,%rdi
  404475:	e8 88 08 00 00       	callq  404d02 <_ZNK9__gnu_cxx17__normal_iteratorIP4areaSt6vectorIS1_SaIS1_EEEmiERKl>
  40447a:	48 89 45 b0          	mov    %rax,-0x50(%rbp)
  40447e:	48 8d 45 b0          	lea    -0x50(%rbp),%rax
  404482:	48 89 c7             	mov    %rax,%rdi
  404485:	e8 06 05 00 00       	callq  404990 <_ZNK9__gnu_cxx17__normal_iteratorIP4areaSt6vectorIS1_SaIS1_EEEdeEv>
  40448a:	8b 40 04             	mov    0x4(%rax),%eax
  40448d:	89 85 4c ff ff ff    	mov    %eax,-0xb4(%rbp)
  404493:	48 c7 45 c0 01 00 00 	movq   $0x1,-0x40(%rbp)
  40449a:	00 
  40449b:	48 8d 55 c0          	lea    -0x40(%rbp),%rdx
  40449f:	48 8d 85 50 ff ff ff 	lea    -0xb0(%rbp),%rax
  4044a6:	48 89 d6             	mov    %rdx,%rsi
  4044a9:	48 89 c7             	mov    %rax,%rdi
  4044ac:	e8 51 08 00 00       	callq  404d02 <_ZNK9__gnu_cxx17__normal_iteratorIP4areaSt6vectorIS1_SaIS1_EEEmiERKl>
  4044b1:	48 89 45 b0          	mov    %rax,-0x50(%rbp)
  4044b5:	48 8d 45 b0          	lea    -0x50(%rbp),%rax
  4044b9:	48 89 c7             	mov    %rax,%rdi
  4044bc:	e8 cf 04 00 00       	callq  404990 <_ZNK9__gnu_cxx17__normal_iteratorIP4areaSt6vectorIS1_SaIS1_EEEdeEv>
  4044c1:	48 8b 95 30 ff ff ff 	mov    -0xd0(%rbp),%rdx
  4044c8:	8b 12                	mov    (%rdx),%edx
  4044ca:	89 50 04             	mov    %edx,0x4(%rax)
  4044cd:	48 c7 45 c0 01 00 00 	movq   $0x1,-0x40(%rbp)
  4044d4:	00 
  4044d5:	48 8d 55 c0          	lea    -0x40(%rbp),%rdx
  4044d9:	48 8d 85 50 ff ff ff 	lea    -0xb0(%rbp),%rax
  4044e0:	48 89 d6             	mov    %rdx,%rsi
  4044e3:	48 89 c7             	mov    %rax,%rdi
  4044e6:	e8 17 08 00 00       	callq  404d02 <_ZNK9__gnu_cxx17__normal_iteratorIP4areaSt6vectorIS1_SaIS1_EEEmiERKl>
  4044eb:	48 89 45 90          	mov    %rax,-0x70(%rbp)
  4044ef:	48 8d 45 90          	lea    -0x70(%rbp),%rax
  4044f3:	48 89 c7             	mov    %rax,%rdi
  4044f6:	e8 95 04 00 00       	callq  404990 <_ZNK9__gnu_cxx17__normal_iteratorIP4areaSt6vectorIS1_SaIS1_EEEdeEv>
  4044fb:	48 89 c2             	mov    %rax,%rdx
  4044fe:	48 8d 45 b0          	lea    -0x50(%rbp),%rax
  404502:	48 89 d6             	mov    %rdx,%rsi
  404505:	48 89 c7             	mov    %rax,%rdi
  404508:	e8 61 02 00 00       	callq  40476e <_ZN4areaC1ERKS_>
  40450d:	48 8b 85 30 ff ff ff 	mov    -0xd0(%rbp),%rax
  404514:	8b 40 04             	mov    0x4(%rax),%eax
  404517:	3b 85 4c ff ff ff    	cmp    -0xb4(%rbp),%eax
  40451d:	0f 8d b4 00 00 00    	jge    4045d7 <_ZN13AreaContainer8get_areaE4area+0x429>
  404523:	48 8b 85 30 ff ff ff 	mov    -0xd0(%rbp),%rax
  40452a:	8b 70 04             	mov    0x4(%rax),%esi
  40452d:	8b 95 4c ff ff ff    	mov    -0xb4(%rbp),%edx
  404533:	48 8d 45 c0          	lea    -0x40(%rbp),%rax
  404537:	b9 00 00 00 00       	mov    $0x0,%ecx
  40453c:	48 89 c7             	mov    %rax,%rdi
  40453f:	e8 d0 01 00 00       	callq  404714 <_ZN4areaC1Eiii>
  404544:	48 8b 85 38 ff ff ff 	mov    -0xc8(%rbp),%rax
  40454b:	48 8d 55 c0          	lea    -0x40(%rbp),%rdx
  40454f:	48 8b 8d 50 ff ff ff 	mov    -0xb0(%rbp),%rcx
  404556:	48 89 ce             	mov    %rcx,%rsi
  404559:	48 89 c7             	mov    %rax,%rdi
  40455c:	e8 01 08 00 00       	callq  404d62 <_ZNSt6vectorI4areaSaIS0_EE6insertEN9__gnu_cxx17__normal_iteratorIPS0_S2_EERKS0_>
  404561:	48 89 85 50 ff ff ff 	mov    %rax,-0xb0(%rbp)
  404568:	48 8b 85 38 ff ff ff 	mov    -0xc8(%rbp),%rax
  40456f:	48 83 c0 18          	add    $0x18,%rax
  404573:	48 89 c7             	mov    %rax,%rdi
  404576:	e8 8f 03 00 00       	callq  40490a <_ZNSt6vectorI4areaSaIS0_EE3endEv>
  40457b:	48 89 c3             	mov    %rax,%rbx
  40457e:	48 8b 85 38 ff ff ff 	mov    -0xc8(%rbp),%rax
  404585:	48 83 c0 18          	add    $0x18,%rax
  404589:	48 89 c7             	mov    %rax,%rdi
  40458c:	e8 53 03 00 00       	callq  4048e4 <_ZNSt6vectorI4areaSaIS0_EE5beginEv>
  404591:	48 8d 55 c0          	lea    -0x40(%rbp),%rdx
  404595:	b9 de 47 40 00       	mov    $0x4047de,%ecx
  40459a:	48 89 de             	mov    %rbx,%rsi
  40459d:	48 89 c7             	mov    %rax,%rdi
  4045a0:	e8 22 09 00 00       	callq  404ec7 <_ZSt11upper_boundIN9__gnu_cxx17__normal_iteratorIP4areaSt6vectorIS2_SaIS2_EEEES2_PFbS2_S2_EET_SA_SA_RKT0_T1_>
  4045a5:	48 89 85 60 ff ff ff 	mov    %rax,-0xa0(%rbp)
  4045ac:	bf 01 00 00 00       	mov    $0x1,%edi
  4045b1:	e8 5f 02 00 00       	callq  404815 <_Z1di>
  4045b6:	48 8b 85 38 ff ff ff 	mov    -0xc8(%rbp),%rax
  4045bd:	48 8d 48 18          	lea    0x18(%rax),%rcx
  4045c1:	48 8d 55 c0          	lea    -0x40(%rbp),%rdx
  4045c5:	48 8b 85 60 ff ff ff 	mov    -0xa0(%rbp),%rax
  4045cc:	48 89 c6             	mov    %rax,%rsi
  4045cf:	48 89 cf             	mov    %rcx,%rdi
  4045d2:	e8 8b 07 00 00       	callq  404d62 <_ZNSt6vectorI4areaSaIS0_EE6insertEN9__gnu_cxx17__normal_iteratorIPS0_S2_EERKS0_>
  4045d7:	48 c7 45 c0 01 00 00 	movq   $0x1,-0x40(%rbp)
  4045de:	00 
  4045df:	48 8d 55 c0          	lea    -0x40(%rbp),%rdx
  4045e3:	48 8d 85 50 ff ff ff 	lea    -0xb0(%rbp),%rax
  4045ea:	48 89 d6             	mov    %rdx,%rsi
  4045ed:	48 89 c7             	mov    %rax,%rdi
  4045f0:	e8 0d 07 00 00       	callq  404d02 <_ZNK9__gnu_cxx17__normal_iteratorIP4areaSt6vectorIS1_SaIS1_EEEmiERKl>
  4045f5:	48 89 45 90          	mov    %rax,-0x70(%rbp)
  4045f9:	48 8d 45 90          	lea    -0x70(%rbp),%rax
  4045fd:	48 89 c7             	mov    %rax,%rdi
  404600:	e8 8b 03 00 00       	callq  404990 <_ZNK9__gnu_cxx17__normal_iteratorIP4areaSt6vectorIS1_SaIS1_EEEdeEv>
  404605:	48 89 c7             	mov    %rax,%rdi
  404608:	e8 97 01 00 00       	callq  4047a4 <_ZN4area4sizeEv>
  40460d:	85 c0                	test   %eax,%eax
  40460f:	0f 95 c0             	setne  %al
  404612:	84 c0                	test   %al,%al
  404614:	74 71                	je     404687 <_ZN13AreaContainer8get_areaE4area+0x4d9>
  404616:	bf 02 00 00 00       	mov    $0x2,%edi
  40461b:	e8 f5 01 00 00       	callq  404815 <_Z1di>
  404620:	48 8b 85 38 ff ff ff 	mov    -0xc8(%rbp),%rax
  404627:	48 83 c0 18          	add    $0x18,%rax
  40462b:	48 89 c7             	mov    %rax,%rdi
  40462e:	e8 d7 02 00 00       	callq  40490a <_ZNSt6vectorI4areaSaIS0_EE3endEv>
  404633:	48 89 c3             	mov    %rax,%rbx
  404636:	48 8b 85 38 ff ff ff 	mov    -0xc8(%rbp),%rax
  40463d:	48 83 c0 18          	add    $0x18,%rax
  404641:	48 89 c7             	mov    %rax,%rdi
  404644:	e8 9b 02 00 00       	callq  4048e4 <_ZNSt6vectorI4areaSaIS0_EE5beginEv>
  404649:	48 8d 55 b0          	lea    -0x50(%rbp),%rdx
  40464d:	b9 de 47 40 00       	mov    $0x4047de,%ecx
  404652:	48 89 de             	mov    %rbx,%rsi
  404655:	48 89 c7             	mov    %rax,%rdi
  404658:	e8 6a 08 00 00       	callq  404ec7 <_ZSt11upper_boundIN9__gnu_cxx17__normal_iteratorIP4areaSt6vectorIS2_SaIS2_EEEES2_PFbS2_S2_EET_SA_SA_RKT0_T1_>
  40465d:	48 89 85 60 ff ff ff 	mov    %rax,-0xa0(%rbp)
  404664:	48 8b 85 38 ff ff ff 	mov    -0xc8(%rbp),%rax
  40466b:	48 8d 48 18          	lea    0x18(%rax),%rcx
  40466f:	48 8d 55 b0          	lea    -0x50(%rbp),%rdx
  404673:	48 8b 85 60 ff ff ff 	mov    -0xa0(%rbp),%rax
  40467a:	48 89 c6             	mov    %rax,%rsi
  40467d:	48 89 cf             	mov    %rcx,%rdi
  404680:	e8 dd 06 00 00       	callq  404d62 <_ZNSt6vectorI4areaSaIS0_EE6insertEN9__gnu_cxx17__normal_iteratorIPS0_S2_EERKS0_>
  404685:	eb 33                	jmp    4046ba <_ZN13AreaContainer8get_areaE4area+0x50c>
  404687:	48 c7 45 c0 01 00 00 	movq   $0x1,-0x40(%rbp)
  40468e:	00 
  40468f:	48 8d 55 c0          	lea    -0x40(%rbp),%rdx
  404693:	48 8d 85 50 ff ff ff 	lea    -0xb0(%rbp),%rax
  40469a:	48 89 d6             	mov    %rdx,%rsi
  40469d:	48 89 c7             	mov    %rax,%rdi
  4046a0:	e8 5d 06 00 00       	callq  404d02 <_ZNK9__gnu_cxx17__normal_iteratorIP4areaSt6vectorIS1_SaIS1_EEEmiERKl>
  4046a5:	48 89 c2             	mov    %rax,%rdx
  4046a8:	48 8b 85 38 ff ff ff 	mov    -0xc8(%rbp),%rax
  4046af:	48 89 d6             	mov    %rdx,%rsi
  4046b2:	48 89 c7             	mov    %rax,%rdi
  4046b5:	e8 16 09 00 00       	callq  404fd0 <_ZNSt6vectorI4areaSaIS0_EE5eraseEN9__gnu_cxx17__normal_iteratorIPS0_S2_EE>
  4046ba:	eb 14                	jmp    4046d0 <_ZN13AreaContainer8get_areaE4area+0x522>
  4046bc:	45 84 ed             	test   %r13b,%r13b
  4046bf:	45 84 e4             	test   %r12b,%r12b
  4046c2:	84 db                	test   %bl,%bl
  4046c4:	45 84 f6             	test   %r14b,%r14b
  4046c7:	90                   	nop
  4046c8:	48 89 c7             	mov    %rax,%rdi
  4046cb:	e8 c0 ca ff ff       	callq  401190 <_Unwind_Resume@plt>
  4046d0:	48 81 c4 a8 00 00 00 	add    $0xa8,%rsp
  4046d7:	5b                   	pop    %rbx
  4046d8:	41 5c                	pop    %r12
  4046da:	41 5d                	pop    %r13
  4046dc:	41 5e                	pop    %r14
  4046de:	41 5f                	pop    %r15
  4046e0:	5d                   	pop    %rbp
  4046e1:	c3                   	retq   

00000000004046e2 <_ZN13AreaContainer8ret_areaE4area>:
  4046e2:	55                   	push   %rbp
  4046e3:	48 89 e5             	mov    %rsp,%rbp
  4046e6:	48 89 7d f8          	mov    %rdi,-0x8(%rbp)
  4046ea:	48 89 75 f0          	mov    %rsi,-0x10(%rbp)
  4046ee:	5d                   	pop    %rbp
  4046ef:	c3                   	retq   

00000000004046f0 <_ZN4nodeC1Eii>:
  4046f0:	55                   	push   %rbp
  4046f1:	48 89 e5             	mov    %rsp,%rbp
  4046f4:	48 89 7d f8          	mov    %rdi,-0x8(%rbp)
  4046f8:	89 75 f4             	mov    %esi,-0xc(%rbp)
  4046fb:	89 55 f0             	mov    %edx,-0x10(%rbp)
  4046fe:	48 8b 45 f8          	mov    -0x8(%rbp),%rax
  404702:	8b 55 f4             	mov    -0xc(%rbp),%edx
  404705:	89 10                	mov    %edx,(%rax)
  404707:	48 8b 45 f8          	mov    -0x8(%rbp),%rax
  40470b:	8b 55 f0             	mov    -0x10(%rbp),%edx
  40470e:	89 50 04             	mov    %edx,0x4(%rax)
  404711:	5d                   	pop    %rbp
  404712:	c3                   	retq   
  404713:	90                   	nop

0000000000404714 <_ZN4areaC1Eiii>:
  404714:	55                   	push   %rbp
  404715:	48 89 e5             	mov    %rsp,%rbp
  404718:	48 89 7d f8          	mov    %rdi,-0x8(%rbp)
  40471c:	89 75 f4             	mov    %esi,-0xc(%rbp)
  40471f:	89 55 f0             	mov    %edx,-0x10(%rbp)
  404722:	89 4d ec             	mov    %ecx,-0x14(%rbp)
  404725:	83 7d f0 00          	cmpl   $0x0,-0x10(%rbp)
  404729:	75 23                	jne    40474e <_ZN4areaC1Eiii+0x3a>
  40472b:	48 8b 45 f8          	mov    -0x8(%rbp),%rax
  40472f:	8b 55 f4             	mov    -0xc(%rbp),%edx
  404732:	89 10                	mov    %edx,(%rax)
  404734:	48 8b 45 f8          	mov    -0x8(%rbp),%rax
  404738:	c7 40 08 00 00 00 00 	movl   $0x0,0x8(%rax)
  40473f:	8b 45 f4             	mov    -0xc(%rbp),%eax
  404742:	8d 50 01             	lea    0x1(%rax),%edx
  404745:	48 8b 45 f8          	mov    -0x8(%rbp),%rax
  404749:	89 50 04             	mov    %edx,0x4(%rax)
  40474c:	eb 1d                	jmp    40476b <_ZN4areaC1Eiii+0x57>
  40474e:	48 8b 45 f8          	mov    -0x8(%rbp),%rax
  404752:	8b 55 f4             	mov    -0xc(%rbp),%edx
  404755:	89 10                	mov    %edx,(%rax)
  404757:	48 8b 45 f8          	mov    -0x8(%rbp),%rax
  40475b:	8b 55 f0             	mov    -0x10(%rbp),%edx
  40475e:	89 50 04             	mov    %edx,0x4(%rax)
  404761:	48 8b 45 f8          	mov    -0x8(%rbp),%rax
  404765:	8b 55 ec             	mov    -0x14(%rbp),%edx
  404768:	89 50 08             	mov    %edx,0x8(%rax)
  40476b:	5d                   	pop    %rbp
  40476c:	c3                   	retq   
  40476d:	90                   	nop

000000000040476e <_ZN4areaC1ERKS_>:
  40476e:	55                   	push   %rbp
  40476f:	48 89 e5             	mov    %rsp,%rbp
  404772:	48 89 7d f8          	mov    %rdi,-0x8(%rbp)
  404776:	48 89 75 f0          	mov    %rsi,-0x10(%rbp)
  40477a:	48 8b 45 f0          	mov    -0x10(%rbp),%rax
  40477e:	8b 10                	mov    (%rax),%edx
  404780:	48 8b 45 f8          	mov    -0x8(%rbp),%rax
  404784:	89 10                	mov    %edx,(%rax)
  404786:	48 8b 45 f0          	mov    -0x10(%rbp),%rax
  40478a:	8b 50 04             	mov    0x4(%rax),%edx
  40478d:	48 8b 45 f8          	mov    -0x8(%rbp),%rax
  404791:	89 50 04             	mov    %edx,0x4(%rax)
  404794:	48 8b 45 f0          	mov    -0x10(%rbp),%rax
  404798:	8b 50 08             	mov    0x8(%rax),%edx
  40479b:	48 8b 45 f8          	mov    -0x8(%rbp),%rax
  40479f:	89 50 08             	mov    %edx,0x8(%rax)
  4047a2:	5d                   	pop    %rbp
  4047a3:	c3                   	retq   

00000000004047a4 <_ZN4area4sizeEv>:
  4047a4:	55                   	push   %rbp
  4047a5:	48 89 e5             	mov    %rsp,%rbp
  4047a8:	48 89 7d f8          	mov    %rdi,-0x8(%rbp)
  4047ac:	48 8b 45 f8          	mov    -0x8(%rbp),%rax
  4047b0:	8b 50 04             	mov    0x4(%rax),%edx
  4047b3:	48 8b 45 f8          	mov    -0x8(%rbp),%rax
  4047b7:	8b 00                	mov    (%rax),%eax
  4047b9:	29 c2                	sub    %eax,%edx
  4047bb:	89 d0                	mov    %edx,%eax
  4047bd:	5d                   	pop    %rbp
  4047be:	c3                   	retq   

00000000004047bf <_Z8area_cmp4areaS_>:
  4047bf:	55                   	push   %rbp
  4047c0:	48 89 e5             	mov    %rsp,%rbp
  4047c3:	48 89 7d f8          	mov    %rdi,-0x8(%rbp)
  4047c7:	48 89 75 f0          	mov    %rsi,-0x10(%rbp)
  4047cb:	48 8b 45 f8          	mov    -0x8(%rbp),%rax
  4047cf:	8b 10                	mov    (%rax),%edx
  4047d1:	48 8b 45 f0          	mov    -0x10(%rbp),%rax
  4047d5:	8b 00                	mov    (%rax),%eax
  4047d7:	39 c2                	cmp    %eax,%edx
  4047d9:	0f 9c c0             	setl   %al
  4047dc:	5d                   	pop    %rbp
  4047dd:	c3                   	retq   

00000000004047de <_Z9block_cmp4areaS_>:
  4047de:	55                   	push   %rbp
  4047df:	48 89 e5             	mov    %rsp,%rbp
  4047e2:	53                   	push   %rbx
  4047e3:	48 83 ec 18          	sub    $0x18,%rsp
  4047e7:	48 89 7d e8          	mov    %rdi,-0x18(%rbp)
  4047eb:	48 89 75 e0          	mov    %rsi,-0x20(%rbp)
  4047ef:	48 8b 45 e8          	mov    -0x18(%rbp),%rax
  4047f3:	48 89 c7             	mov    %rax,%rdi
  4047f6:	e8 a9 ff ff ff       	callq  4047a4 <_ZN4area4sizeEv>
  4047fb:	89 c3                	mov    %eax,%ebx
  4047fd:	48 8b 45 e0          	mov    -0x20(%rbp),%rax
  404801:	48 89 c7             	mov    %rax,%rdi
  404804:	e8 9b ff ff ff       	callq  4047a4 <_ZN4area4sizeEv>
  404809:	39 c3                	cmp    %eax,%ebx
  40480b:	0f 9c c0             	setl   %al
  40480e:	48 83 c4 18          	add    $0x18,%rsp
  404812:	5b                   	pop    %rbx
  404813:	5d                   	pop    %rbp
  404814:	c3                   	retq   

0000000000404815 <_Z1di>:
  404815:	55                   	push   %rbp
  404816:	48 89 e5             	mov    %rsp,%rbp
  404819:	48 83 ec 10          	sub    $0x10,%rsp
  40481d:	89 7d fc             	mov    %edi,-0x4(%rbp)
  404820:	8b 45 fc             	mov    -0x4(%rbp),%eax
  404823:	89 c6                	mov    %eax,%esi
  404825:	bf c3 95 40 00       	mov    $0x4095c3,%edi
  40482a:	b8 00 00 00 00       	mov    $0x0,%eax
  40482f:	e8 1c c7 ff ff       	callq  400f50 <printf@plt>
  404834:	c9                   	leaveq 
  404835:	c3                   	retq   

0000000000404836 <_ZN9__gnu_cxxneIPcSsEEbRKNS_17__normal_iteratorIT_T0_EES7_>:
  404836:	55                   	push   %rbp
  404837:	48 89 e5             	mov    %rsp,%rbp
  40483a:	53                   	push   %rbx
  40483b:	48 83 ec 18          	sub    $0x18,%rsp
  40483f:	48 89 7d e8          	mov    %rdi,-0x18(%rbp)
  404843:	48 89 75 e0          	mov    %rsi,-0x20(%rbp)
  404847:	48 8b 45 e8          	mov    -0x18(%rbp),%rax
  40484b:	48 89 c7             	mov    %rax,%rdi
  40484e:	e8 cf 0b 00 00       	callq  405422 <_ZNK9__gnu_cxx17__normal_iteratorIPcSsE4baseEv>
  404853:	48 8b 18             	mov    (%rax),%rbx
  404856:	48 8b 45 e0          	mov    -0x20(%rbp),%rax
  40485a:	48 89 c7             	mov    %rax,%rdi
  40485d:	e8 c0 0b 00 00       	callq  405422 <_ZNK9__gnu_cxx17__normal_iteratorIPcSsE4baseEv>
  404862:	48 8b 00             	mov    (%rax),%rax
  404865:	48 39 c3             	cmp    %rax,%rbx
  404868:	0f 95 c0             	setne  %al
  40486b:	48 83 c4 18          	add    $0x18,%rsp
  40486f:	5b                   	pop    %rbx
  404870:	5d                   	pop    %rbp
  404871:	c3                   	retq   

0000000000404872 <_ZN9__gnu_cxx17__normal_iteratorIPcSsEppEv>:
  404872:	55                   	push   %rbp
  404873:	48 89 e5             	mov    %rsp,%rbp
  404876:	48 89 7d f8          	mov    %rdi,-0x8(%rbp)
  40487a:	48 8b 45 f8          	mov    -0x8(%rbp),%rax
  40487e:	48 8b 00             	mov    (%rax),%rax
  404881:	48 8d 50 01          	lea    0x1(%rax),%rdx
  404885:	48 8b 45 f8          	mov    -0x8(%rbp),%rax
  404889:	48 89 10             	mov    %rdx,(%rax)
  40488c:	48 8b 45 f8          	mov    -0x8(%rbp),%rax
  404890:	5d                   	pop    %rbp
  404891:	c3                   	retq   

0000000000404892 <_ZNK9__gnu_cxx17__normal_iteratorIPcSsEdeEv>:
  404892:	55                   	push   %rbp
  404893:	48 89 e5             	mov    %rsp,%rbp
  404896:	48 89 7d f8          	mov    %rdi,-0x8(%rbp)
  40489a:	48 8b 45 f8          	mov    -0x8(%rbp),%rax
  40489e:	48 8b 00             	mov    (%rax),%rax
  4048a1:	5d                   	pop    %rbp
  4048a2:	c3                   	retq   
  4048a3:	90                   	nop

00000000004048a4 <_ZNSt6vectorI4nodeSaIS0_EEixEm>:
  4048a4:	55                   	push   %rbp
  4048a5:	48 89 e5             	mov    %rsp,%rbp
  4048a8:	48 89 7d f8          	mov    %rdi,-0x8(%rbp)
  4048ac:	48 89 75 f0          	mov    %rsi,-0x10(%rbp)
  4048b0:	48 8b 45 f8          	mov    -0x8(%rbp),%rax
  4048b4:	48 8b 00             	mov    (%rax),%rax
  4048b7:	48 8b 55 f0          	mov    -0x10(%rbp),%rdx
  4048bb:	48 c1 e2 03          	shl    $0x3,%rdx
  4048bf:	48 01 d0             	add    %rdx,%rax
  4048c2:	5d                   	pop    %rbp
  4048c3:	c3                   	retq   

00000000004048c4 <_ZNSt6vectorIiSaIiEEixEm>:
  4048c4:	55                   	push   %rbp
  4048c5:	48 89 e5             	mov    %rsp,%rbp
  4048c8:	48 89 7d f8          	mov    %rdi,-0x8(%rbp)
  4048cc:	48 89 75 f0          	mov    %rsi,-0x10(%rbp)
  4048d0:	48 8b 45 f8          	mov    -0x8(%rbp),%rax
  4048d4:	48 8b 00             	mov    (%rax),%rax
  4048d7:	48 8b 55 f0          	mov    -0x10(%rbp),%rdx
  4048db:	48 c1 e2 02          	shl    $0x2,%rdx
  4048df:	48 01 d0             	add    %rdx,%rax
  4048e2:	5d                   	pop    %rbp
  4048e3:	c3                   	retq   

00000000004048e4 <_ZNSt6vectorI4areaSaIS0_EE5beginEv>:
  4048e4:	55                   	push   %rbp
  4048e5:	48 89 e5             	mov    %rsp,%rbp
  4048e8:	48 83 ec 20          	sub    $0x20,%rsp
  4048ec:	48 89 7d e8          	mov    %rdi,-0x18(%rbp)
  4048f0:	48 8b 55 e8          	mov    -0x18(%rbp),%rdx
  4048f4:	48 8d 45 f0          	lea    -0x10(%rbp),%rax
  4048f8:	48 89 d6             	mov    %rdx,%rsi
  4048fb:	48 89 c7             	mov    %rax,%rdi
  4048fe:	e8 2d 0b 00 00       	callq  405430 <_ZN9__gnu_cxx17__normal_iteratorIP4areaSt6vectorIS1_SaIS1_EEEC1ERKS2_>
  404903:	48 8b 45 f0          	mov    -0x10(%rbp),%rax
  404907:	c9                   	leaveq 
  404908:	c3                   	retq   
  404909:	90                   	nop

000000000040490a <_ZNSt6vectorI4areaSaIS0_EE3endEv>:
  40490a:	55                   	push   %rbp
  40490b:	48 89 e5             	mov    %rsp,%rbp
  40490e:	48 83 ec 20          	sub    $0x20,%rsp
  404912:	48 89 7d e8          	mov    %rdi,-0x18(%rbp)
  404916:	48 8b 45 e8          	mov    -0x18(%rbp),%rax
  40491a:	48 8d 50 08          	lea    0x8(%rax),%rdx
  40491e:	48 8d 45 f0          	lea    -0x10(%rbp),%rax
  404922:	48 89 d6             	mov    %rdx,%rsi
  404925:	48 89 c7             	mov    %rax,%rdi
  404928:	e8 03 0b 00 00       	callq  405430 <_ZN9__gnu_cxx17__normal_iteratorIP4areaSt6vectorIS1_SaIS1_EEEC1ERKS2_>
  40492d:	48 8b 45 f0          	mov    -0x10(%rbp),%rax
  404931:	c9                   	leaveq 
  404932:	c3                   	retq   

0000000000404933 <_ZN9__gnu_cxxneIP4areaSt6vectorIS1_SaIS1_EEEEbRKNS_17__normal_iteratorIT_T0_EESB_>:
  404933:	55                   	push   %rbp
  404934:	48 89 e5             	mov    %rsp,%rbp
  404937:	53                   	push   %rbx
  404938:	48 83 ec 18          	sub    $0x18,%rsp
  40493c:	48 89 7d e8          	mov    %rdi,-0x18(%rbp)
  404940:	48 89 75 e0          	mov    %rsi,-0x20(%rbp)
  404944:	48 8b 45 e8          	mov    -0x18(%rbp),%rax
  404948:	48 89 c7             	mov    %rax,%rdi
  40494b:	e8 fc 0a 00 00       	callq  40544c <_ZNK9__gnu_cxx17__normal_iteratorIP4areaSt6vectorIS1_SaIS1_EEE4baseEv>
  404950:	48 8b 18             	mov    (%rax),%rbx
  404953:	48 8b 45 e0          	mov    -0x20(%rbp),%rax
  404957:	48 89 c7             	mov    %rax,%rdi
  40495a:	e8 ed 0a 00 00       	callq  40544c <_ZNK9__gnu_cxx17__normal_iteratorIP4areaSt6vectorIS1_SaIS1_EEE4baseEv>
  40495f:	48 8b 00             	mov    (%rax),%rax
  404962:	48 39 c3             	cmp    %rax,%rbx
  404965:	0f 95 c0             	setne  %al
  404968:	48 83 c4 18          	add    $0x18,%rsp
  40496c:	5b                   	pop    %rbx
  40496d:	5d                   	pop    %rbp
  40496e:	c3                   	retq   
  40496f:	90                   	nop

0000000000404970 <_ZN9__gnu_cxx17__normal_iteratorIP4areaSt6vectorIS1_SaIS1_EEEppEv>:
  404970:	55                   	push   %rbp
  404971:	48 89 e5             	mov    %rsp,%rbp
  404974:	48 89 7d f8          	mov    %rdi,-0x8(%rbp)
  404978:	48 8b 45 f8          	mov    -0x8(%rbp),%rax
  40497c:	48 8b 00             	mov    (%rax),%rax
  40497f:	48 8d 50 0c          	lea    0xc(%rax),%rdx
  404983:	48 8b 45 f8          	mov    -0x8(%rbp),%rax
  404987:	48 89 10             	mov    %rdx,(%rax)
  40498a:	48 8b 45 f8          	mov    -0x8(%rbp),%rax
  40498e:	5d                   	pop    %rbp
  40498f:	c3                   	retq   

0000000000404990 <_ZNK9__gnu_cxx17__normal_iteratorIP4areaSt6vectorIS1_SaIS1_EEEdeEv>:
  404990:	55                   	push   %rbp
  404991:	48 89 e5             	mov    %rsp,%rbp
  404994:	48 89 7d f8          	mov    %rdi,-0x8(%rbp)
  404998:	48 8b 45 f8          	mov    -0x8(%rbp),%rax
  40499c:	48 8b 00             	mov    (%rax),%rax
  40499f:	5d                   	pop    %rbp
  4049a0:	c3                   	retq   
  4049a1:	90                   	nop

00000000004049a2 <_ZNSt6vectorI4areaSaIS0_EEC1Ev>:
  4049a2:	55                   	push   %rbp
  4049a3:	48 89 e5             	mov    %rsp,%rbp
  4049a6:	48 83 ec 10          	sub    $0x10,%rsp
  4049aa:	48 89 7d f8          	mov    %rdi,-0x8(%rbp)
  4049ae:	48 8b 45 f8          	mov    -0x8(%rbp),%rax
  4049b2:	48 89 c7             	mov    %rax,%rdi
  4049b5:	e8 ba 0a 00 00       	callq  405474 <_ZNSt12_Vector_baseI4areaSaIS0_EEC1Ev>
  4049ba:	c9                   	leaveq 
  4049bb:	c3                   	retq   

00000000004049bc <_ZNSt6vectorI4areaSaIS0_EED1Ev>:
  4049bc:	55                   	push   %rbp
  4049bd:	48 89 e5             	mov    %rsp,%rbp
  4049c0:	48 83 ec 10          	sub    $0x10,%rsp
  4049c4:	48 89 7d f8          	mov    %rdi,-0x8(%rbp)
  4049c8:	48 8b 45 f8          	mov    -0x8(%rbp),%rax
  4049cc:	48 89 c7             	mov    %rax,%rdi
  4049cf:	e8 1a 0b 00 00       	callq  4054ee <_ZNSt12_Vector_baseI4areaSaIS0_EE19_M_get_Tp_allocatorEv>
  4049d4:	48 89 c2             	mov    %rax,%rdx
  4049d7:	48 8b 45 f8          	mov    -0x8(%rbp),%rax
  4049db:	48 8b 48 08          	mov    0x8(%rax),%rcx
  4049df:	48 8b 45 f8          	mov    -0x8(%rbp),%rax
  4049e3:	48 8b 00             	mov    (%rax),%rax
  4049e6:	48 89 ce             	mov    %rcx,%rsi
  4049e9:	48 89 c7             	mov    %rax,%rdi
  4049ec:	e8 0b 0b 00 00       	callq  4054fc <_ZSt8_DestroyIP4areaS0_EvT_S2_RSaIT0_E>
  4049f1:	48 8b 45 f8          	mov    -0x8(%rbp),%rax
  4049f5:	48 89 c7             	mov    %rax,%rdi
  4049f8:	e8 91 0a 00 00       	callq  40548e <_ZNSt12_Vector_baseI4areaSaIS0_EED1Ev>
  4049fd:	c9                   	leaveq 
  4049fe:	c3                   	retq   
  4049ff:	90                   	nop

0000000000404a00 <_ZNSt6vectorI4nodeSaIS0_EEC1Ev>:
  404a00:	55                   	push   %rbp
  404a01:	48 89 e5             	mov    %rsp,%rbp
  404a04:	48 83 ec 10          	sub    $0x10,%rsp
  404a08:	48 89 7d f8          	mov    %rdi,-0x8(%rbp)
  404a0c:	48 8b 45 f8          	mov    -0x8(%rbp),%rax
  404a10:	48 89 c7             	mov    %rax,%rdi
  404a13:	e8 28 0b 00 00       	callq  405540 <_ZNSt12_Vector_baseI4nodeSaIS0_EEC1Ev>
  404a18:	c9                   	leaveq 
  404a19:	c3                   	retq   

0000000000404a1a <_ZNSt6vectorI4nodeSaIS0_EED1Ev>:
  404a1a:	55                   	push   %rbp
  404a1b:	48 89 e5             	mov    %rsp,%rbp
  404a1e:	48 83 ec 10          	sub    $0x10,%rsp
  404a22:	48 89 7d f8          	mov    %rdi,-0x8(%rbp)
  404a26:	48 8b 45 f8          	mov    -0x8(%rbp),%rax
  404a2a:	48 89 c7             	mov    %rax,%rdi
  404a2d:	e8 78 0b 00 00       	callq  4055aa <_ZNSt12_Vector_baseI4nodeSaIS0_EE19_M_get_Tp_allocatorEv>
  404a32:	48 89 c2             	mov    %rax,%rdx
  404a35:	48 8b 45 f8          	mov    -0x8(%rbp),%rax
  404a39:	48 8b 48 08          	mov    0x8(%rax),%rcx
  404a3d:	48 8b 45 f8          	mov    -0x8(%rbp),%rax
  404a41:	48 8b 00             	mov    (%rax),%rax
  404a44:	48 89 ce             	mov    %rcx,%rsi
  404a47:	48 89 c7             	mov    %rax,%rdi
  404a4a:	e8 69 0b 00 00       	callq  4055b8 <_ZSt8_DestroyIP4nodeS0_EvT_S2_RSaIT0_E>
  404a4f:	48 8b 45 f8          	mov    -0x8(%rbp),%rax
  404a53:	48 89 c7             	mov    %rax,%rdi
  404a56:	e8 ff 0a 00 00       	callq  40555a <_ZNSt12_Vector_baseI4nodeSaIS0_EED1Ev>
  404a5b:	c9                   	leaveq 
  404a5c:	c3                   	retq   
  404a5d:	90                   	nop

0000000000404a5e <_ZNSt6vectorIiSaIiEEC1Ev>:
  404a5e:	55                   	push   %rbp
  404a5f:	48 89 e5             	mov    %rsp,%rbp
  404a62:	48 83 ec 10          	sub    $0x10,%rsp
  404a66:	48 89 7d f8          	mov    %rdi,-0x8(%rbp)
  404a6a:	48 8b 45 f8          	mov    -0x8(%rbp),%rax
  404a6e:	48 89 c7             	mov    %rax,%rdi
  404a71:	e8 86 0b 00 00       	callq  4055fc <_ZNSt12_Vector_baseIiSaIiEEC1Ev>
  404a76:	c9                   	leaveq 
  404a77:	c3                   	retq   

0000000000404a78 <_ZNSt6vectorIiSaIiEED1Ev>:
  404a78:	55                   	push   %rbp
  404a79:	48 89 e5             	mov    %rsp,%rbp
  404a7c:	48 83 ec 10          	sub    $0x10,%rsp
  404a80:	48 89 7d f8          	mov    %rdi,-0x8(%rbp)
  404a84:	48 8b 45 f8          	mov    -0x8(%rbp),%rax
  404a88:	48 89 c7             	mov    %rax,%rdi
  404a8b:	e8 d6 0b 00 00       	callq  405666 <_ZNSt12_Vector_baseIiSaIiEE19_M_get_Tp_allocatorEv>
  404a90:	48 89 c2             	mov    %rax,%rdx
  404a93:	48 8b 45 f8          	mov    -0x8(%rbp),%rax
  404a97:	48 8b 48 08          	mov    0x8(%rax),%rcx
  404a9b:	48 8b 45 f8          	mov    -0x8(%rbp),%rax
  404a9f:	48 8b 00             	mov    (%rax),%rax
  404aa2:	48 89 ce             	mov    %rcx,%rsi
  404aa5:	48 89 c7             	mov    %rax,%rdi
  404aa8:	e8 c7 0b 00 00       	callq  405674 <_ZSt8_DestroyIPiiEvT_S1_RSaIT0_E>
  404aad:	48 8b 45 f8          	mov    -0x8(%rbp),%rax
  404ab1:	48 89 c7             	mov    %rax,%rdi
  404ab4:	e8 5d 0b 00 00       	callq  405616 <_ZNSt12_Vector_baseIiSaIiEED1Ev>
  404ab9:	c9                   	leaveq 
  404aba:	c3                   	retq   

0000000000404abb <_ZSt4moveIR4nodeEONSt16remove_referenceIT_E4typeEOS3_>:
  404abb:	55                   	push   %rbp
  404abc:	48 89 e5             	mov    %rsp,%rbp
  404abf:	48 89 7d f8          	mov    %rdi,-0x8(%rbp)
  404ac3:	48 8b 45 f8          	mov    -0x8(%rbp),%rax
  404ac7:	5d                   	pop    %rbp
  404ac8:	c3                   	retq   
  404ac9:	90                   	nop

0000000000404aca <_ZNSt6vectorI4nodeSaIS0_EE9push_backEOS0_>:
  404aca:	55                   	push   %rbp
  404acb:	48 89 e5             	mov    %rsp,%rbp
  404ace:	48 83 ec 10          	sub    $0x10,%rsp
  404ad2:	48 89 7d f8          	mov    %rdi,-0x8(%rbp)
  404ad6:	48 89 75 f0          	mov    %rsi,-0x10(%rbp)
  404ada:	48 8b 45 f0          	mov    -0x10(%rbp),%rax
  404ade:	48 89 c7             	mov    %rax,%rdi
  404ae1:	e8 d5 ff ff ff       	callq  404abb <_ZSt4moveIR4nodeEONSt16remove_referenceIT_E4typeEOS3_>
  404ae6:	48 89 c2             	mov    %rax,%rdx
  404ae9:	48 8b 45 f8          	mov    -0x8(%rbp),%rax
  404aed:	48 89 d6             	mov    %rdx,%rsi
  404af0:	48 89 c7             	mov    %rax,%rdi
  404af3:	e8 b4 0b 00 00       	callq  4056ac <_ZNSt6vectorI4nodeSaIS0_EE12emplace_backIIS0_EEEvDpOT_>
  404af8:	c9                   	leaveq 
  404af9:	c3                   	retq   

0000000000404afa <_ZNSt6vectorI4nodeSaIS0_EE6resizeEmRKS0_>:
  404afa:	55                   	push   %rbp
  404afb:	48 89 e5             	mov    %rsp,%rbp
  404afe:	53                   	push   %rbx
  404aff:	48 83 ec 28          	sub    $0x28,%rsp
  404b03:	48 89 7d e8          	mov    %rdi,-0x18(%rbp)
  404b07:	48 89 75 e0          	mov    %rsi,-0x20(%rbp)
  404b0b:	48 89 55 d8          	mov    %rdx,-0x28(%rbp)
  404b0f:	48 8b 45 e8          	mov    -0x18(%rbp),%rax
  404b13:	48 89 c7             	mov    %rax,%rdi
  404b16:	e8 13 0c 00 00       	callq  40572e <_ZNKSt6vectorI4nodeSaIS0_EE4sizeEv>
  404b1b:	48 3b 45 e0          	cmp    -0x20(%rbp),%rax
  404b1f:	0f 92 c0             	setb   %al
  404b22:	84 c0                	test   %al,%al
  404b24:	74 3d                	je     404b63 <_ZNSt6vectorI4nodeSaIS0_EE6resizeEmRKS0_+0x69>
  404b26:	48 8b 45 e8          	mov    -0x18(%rbp),%rax
  404b2a:	48 89 c7             	mov    %rax,%rdi
  404b2d:	e8 fc 0b 00 00       	callq  40572e <_ZNKSt6vectorI4nodeSaIS0_EE4sizeEv>
  404b32:	48 8b 55 e0          	mov    -0x20(%rbp),%rdx
  404b36:	48 89 d3             	mov    %rdx,%rbx
  404b39:	48 29 c3             	sub    %rax,%rbx
  404b3c:	48 8b 45 e8          	mov    -0x18(%rbp),%rax
  404b40:	48 89 c7             	mov    %rax,%rdi
  404b43:	e8 0c 0c 00 00       	callq  405754 <_ZNSt6vectorI4nodeSaIS0_EE3endEv>
  404b48:	48 89 c6             	mov    %rax,%rsi
  404b4b:	48 8b 55 d8          	mov    -0x28(%rbp),%rdx
  404b4f:	48 8b 45 e8          	mov    -0x18(%rbp),%rax
  404b53:	48 89 d1             	mov    %rdx,%rcx
  404b56:	48 89 da             	mov    %rbx,%rdx
  404b59:	48 89 c7             	mov    %rax,%rdi
  404b5c:	e8 1d 0c 00 00       	callq  40577e <_ZNSt6vectorI4nodeSaIS0_EE6insertEN9__gnu_cxx17__normal_iteratorIPS0_S2_EEmRKS0_>
  404b61:	eb 38                	jmp    404b9b <_ZNSt6vectorI4nodeSaIS0_EE6resizeEmRKS0_+0xa1>
  404b63:	48 8b 45 e8          	mov    -0x18(%rbp),%rax
  404b67:	48 89 c7             	mov    %rax,%rdi
  404b6a:	e8 bf 0b 00 00       	callq  40572e <_ZNKSt6vectorI4nodeSaIS0_EE4sizeEv>
  404b6f:	48 3b 45 e0          	cmp    -0x20(%rbp),%rax
  404b73:	0f 97 c0             	seta   %al
  404b76:	84 c0                	test   %al,%al
  404b78:	74 21                	je     404b9b <_ZNSt6vectorI4nodeSaIS0_EE6resizeEmRKS0_+0xa1>
  404b7a:	48 8b 45 e8          	mov    -0x18(%rbp),%rax
  404b7e:	48 8b 00             	mov    (%rax),%rax
  404b81:	48 8b 55 e0          	mov    -0x20(%rbp),%rdx
  404b85:	48 c1 e2 03          	shl    $0x3,%rdx
  404b89:	48 01 c2             	add    %rax,%rdx
  404b8c:	48 8b 45 e8          	mov    -0x18(%rbp),%rax
  404b90:	48 89 d6             	mov    %rdx,%rsi
  404b93:	48 89 c7             	mov    %rax,%rdi
  404b96:	e8 15 0c 00 00       	callq  4057b0 <_ZNSt6vectorI4nodeSaIS0_EE15_M_erase_at_endEPS0_>
  404b9b:	48 83 c4 28          	add    $0x28,%rsp
  404b9f:	5b                   	pop    %rbx
  404ba0:	5d                   	pop    %rbp
  404ba1:	c3                   	retq   

0000000000404ba2 <_ZSt7forwardIRKiEOT_RNSt16remove_referenceIS2_E4typeE>:
  404ba2:	55                   	push   %rbp
  404ba3:	48 89 e5             	mov    %rsp,%rbp
  404ba6:	48 89 7d f8          	mov    %rdi,-0x8(%rbp)
  404baa:	48 8b 45 f8          	mov    -0x8(%rbp),%rax
  404bae:	5d                   	pop    %rbp
  404baf:	c3                   	retq   

0000000000404bb0 <_ZNSt6vectorIiSaIiEE9push_backERKi>:
  404bb0:	55                   	push   %rbp
  404bb1:	48 89 e5             	mov    %rsp,%rbp
  404bb4:	48 83 ec 10          	sub    $0x10,%rsp
  404bb8:	48 89 7d f8          	mov    %rdi,-0x8(%rbp)
  404bbc:	48 89 75 f0          	mov    %rsi,-0x10(%rbp)
  404bc0:	48 8b 45 f8          	mov    -0x8(%rbp),%rax
  404bc4:	48 8b 50 08          	mov    0x8(%rax),%rdx
  404bc8:	48 8b 45 f8          	mov    -0x8(%rbp),%rax
  404bcc:	48 8b 40 10          	mov    0x10(%rax),%rax
  404bd0:	48 39 c2             	cmp    %rax,%rdx
  404bd3:	74 31                	je     404c06 <_ZNSt6vectorIiSaIiEE9push_backERKi+0x56>
  404bd5:	48 8b 45 f8          	mov    -0x8(%rbp),%rax
  404bd9:	48 8b 48 08          	mov    0x8(%rax),%rcx
  404bdd:	48 8b 45 f8          	mov    -0x8(%rbp),%rax
  404be1:	48 8b 55 f0          	mov    -0x10(%rbp),%rdx
  404be5:	48 89 ce             	mov    %rcx,%rsi
  404be8:	48 89 c7             	mov    %rax,%rdi
  404beb:	e8 04 0c 00 00       	callq  4057f4 <_ZNSt16allocator_traitsISaIiEE9constructIiIRKiEEEDTcl12_S_constructfp_fp0_spcl7forwardIT0_Efp1_EEERS0_PT_DpOS5_>
  404bf0:	48 8b 45 f8          	mov    -0x8(%rbp),%rax
  404bf4:	48 8b 40 08          	mov    0x8(%rax),%rax
  404bf8:	48 8d 50 04          	lea    0x4(%rax),%rdx
  404bfc:	48 8b 45 f8          	mov    -0x8(%rbp),%rax
  404c00:	48 89 50 08          	mov    %rdx,0x8(%rax)
  404c04:	eb 13                	jmp    404c19 <_ZNSt6vectorIiSaIiEE9push_backERKi+0x69>
  404c06:	48 8b 55 f0          	mov    -0x10(%rbp),%rdx
  404c0a:	48 8b 45 f8          	mov    -0x8(%rbp),%rax
  404c0e:	48 89 d6             	mov    %rdx,%rsi
  404c11:	48 89 c7             	mov    %rax,%rdi
  404c14:	e8 13 0c 00 00       	callq  40582c <_ZNSt6vectorIiSaIiEE19_M_emplace_back_auxIIRKiEEEvDpOT_>
  404c19:	c9                   	leaveq 
  404c1a:	c3                   	retq   
  404c1b:	90                   	nop

0000000000404c1c <_ZNSt6vectorIiSaIiEE6resizeEmRKi>:
  404c1c:	55                   	push   %rbp
  404c1d:	48 89 e5             	mov    %rsp,%rbp
  404c20:	53                   	push   %rbx
  404c21:	48 83 ec 28          	sub    $0x28,%rsp
  404c25:	48 89 7d e8          	mov    %rdi,-0x18(%rbp)
  404c29:	48 89 75 e0          	mov    %rsi,-0x20(%rbp)
  404c2d:	48 89 55 d8          	mov    %rdx,-0x28(%rbp)
  404c31:	48 8b 45 e8          	mov    -0x18(%rbp),%rax
  404c35:	48 89 c7             	mov    %rax,%rdi
  404c38:	e8 cf 04 00 00       	callq  40510c <_ZNKSt6vectorIiSaIiEE4sizeEv>
  404c3d:	48 3b 45 e0          	cmp    -0x20(%rbp),%rax
  404c41:	0f 92 c0             	setb   %al
  404c44:	84 c0                	test   %al,%al
  404c46:	74 3d                	je     404c85 <_ZNSt6vectorIiSaIiEE6resizeEmRKi+0x69>
  404c48:	48 8b 45 e8          	mov    -0x18(%rbp),%rax
  404c4c:	48 89 c7             	mov    %rax,%rdi
  404c4f:	e8 b8 04 00 00       	callq  40510c <_ZNKSt6vectorIiSaIiEE4sizeEv>
  404c54:	48 8b 55 e0          	mov    -0x20(%rbp),%rdx
  404c58:	48 89 d3             	mov    %rdx,%rbx
  404c5b:	48 29 c3             	sub    %rax,%rbx
  404c5e:	48 8b 45 e8          	mov    -0x18(%rbp),%rax
  404c62:	48 89 c7             	mov    %rax,%rdi
  404c65:	e8 c8 04 00 00       	callq  405132 <_ZNSt6vectorIiSaIiEE3endEv>
  404c6a:	48 89 c6             	mov    %rax,%rsi
  404c6d:	48 8b 55 d8          	mov    -0x28(%rbp),%rdx
  404c71:	48 8b 45 e8          	mov    -0x18(%rbp),%rax
  404c75:	48 89 d1             	mov    %rdx,%rcx
  404c78:	48 89 da             	mov    %rbx,%rdx
  404c7b:	48 89 c7             	mov    %rax,%rdi
  404c7e:	e8 93 0d 00 00       	callq  405a16 <_ZNSt6vectorIiSaIiEE6insertEN9__gnu_cxx17__normal_iteratorIPiS1_EEmRKi>
  404c83:	eb 38                	jmp    404cbd <_ZNSt6vectorIiSaIiEE6resizeEmRKi+0xa1>
  404c85:	48 8b 45 e8          	mov    -0x18(%rbp),%rax
  404c89:	48 89 c7             	mov    %rax,%rdi
  404c8c:	e8 7b 04 00 00       	callq  40510c <_ZNKSt6vectorIiSaIiEE4sizeEv>
  404c91:	48 3b 45 e0          	cmp    -0x20(%rbp),%rax
  404c95:	0f 97 c0             	seta   %al
  404c98:	84 c0                	test   %al,%al
  404c9a:	74 21                	je     404cbd <_ZNSt6vectorIiSaIiEE6resizeEmRKi+0xa1>
  404c9c:	48 8b 45 e8          	mov    -0x18(%rbp),%rax
  404ca0:	48 8b 00             	mov    (%rax),%rax
  404ca3:	48 8b 55 e0          	mov    -0x20(%rbp),%rdx
  404ca7:	48 c1 e2 02          	shl    $0x2,%rdx
  404cab:	48 01 c2             	add    %rax,%rdx
  404cae:	48 8b 45 e8          	mov    -0x18(%rbp),%rax
  404cb2:	48 89 d6             	mov    %rdx,%rsi
  404cb5:	48 89 c7             	mov    %rax,%rdi
  404cb8:	e8 8b 0d 00 00       	callq  405a48 <_ZNSt6vectorIiSaIiEE15_M_erase_at_endEPi>
  404cbd:	48 83 c4 28          	add    $0x28,%rsp
  404cc1:	5b                   	pop    %rbx
  404cc2:	5d                   	pop    %rbp
  404cc3:	c3                   	retq   

0000000000404cc4 <_ZSt4moveIR4areaEONSt16remove_referenceIT_E4typeEOS3_>:
  404cc4:	55                   	push   %rbp
  404cc5:	48 89 e5             	mov    %rsp,%rbp
  404cc8:	48 89 7d f8          	mov    %rdi,-0x8(%rbp)
  404ccc:	48 8b 45 f8          	mov    -0x8(%rbp),%rax
  404cd0:	5d                   	pop    %rbp
  404cd1:	c3                   	retq   

0000000000404cd2 <_ZNSt6vectorI4areaSaIS0_EE9push_backEOS0_>:
  404cd2:	55                   	push   %rbp
  404cd3:	48 89 e5             	mov    %rsp,%rbp
  404cd6:	48 83 ec 10          	sub    $0x10,%rsp
  404cda:	48 89 7d f8          	mov    %rdi,-0x8(%rbp)
  404cde:	48 89 75 f0          	mov    %rsi,-0x10(%rbp)
  404ce2:	48 8b 45 f0          	mov    -0x10(%rbp),%rax
  404ce6:	48 89 c7             	mov    %rax,%rdi
  404ce9:	e8 d6 ff ff ff       	callq  404cc4 <_ZSt4moveIR4areaEONSt16remove_referenceIT_E4typeEOS3_>
  404cee:	48 89 c2             	mov    %rax,%rdx
  404cf1:	48 8b 45 f8          	mov    -0x8(%rbp),%rax
  404cf5:	48 89 d6             	mov    %rdx,%rsi
  404cf8:	48 89 c7             	mov    %rax,%rdi
  404cfb:	e8 9a 0d 00 00       	callq  405a9a <_ZNSt6vectorI4areaSaIS0_EE12emplace_backIIS0_EEEvDpOT_>
  404d00:	c9                   	leaveq 
  404d01:	c3                   	retq   

0000000000404d02 <_ZNK9__gnu_cxx17__normal_iteratorIP4areaSt6vectorIS1_SaIS1_EEEmiERKl>:
  404d02:	55                   	push   %rbp
  404d03:	48 89 e5             	mov    %rsp,%rbp
  404d06:	48 83 ec 20          	sub    $0x20,%rsp
  404d0a:	48 89 7d e8          	mov    %rdi,-0x18(%rbp)
  404d0e:	48 89 75 e0          	mov    %rsi,-0x20(%rbp)
  404d12:	48 8b 45 e8          	mov    -0x18(%rbp),%rax
  404d16:	48 8b 08             	mov    (%rax),%rcx
  404d19:	48 8b 45 e0          	mov    -0x20(%rbp),%rax
  404d1d:	48 8b 00             	mov    (%rax),%rax
  404d20:	48 89 c2             	mov    %rax,%rdx
  404d23:	48 89 d0             	mov    %rdx,%rax
  404d26:	48 01 c0             	add    %rax,%rax
  404d29:	48 01 d0             	add    %rdx,%rax
  404d2c:	48 c1 e0 02          	shl    $0x2,%rax
  404d30:	48 f7 d8             	neg    %rax
  404d33:	48 01 c8             	add    %rcx,%rax
  404d36:	48 89 45 f8          	mov    %rax,-0x8(%rbp)
  404d3a:	48 8d 55 f8          	lea    -0x8(%rbp),%rdx
  404d3e:	48 8d 45 f0          	lea    -0x10(%rbp),%rax
  404d42:	48 89 d6             	mov    %rdx,%rsi
  404d45:	48 89 c7             	mov    %rax,%rdi
  404d48:	e8 e3 06 00 00       	callq  405430 <_ZN9__gnu_cxx17__normal_iteratorIP4areaSt6vectorIS1_SaIS1_EEEC1ERKS2_>
  404d4d:	48 8b 45 f0          	mov    -0x10(%rbp),%rax
  404d51:	c9                   	leaveq 
  404d52:	c3                   	retq   

0000000000404d53 <_ZSt7forwardIRK4areaEOT_RNSt16remove_referenceIS3_E4typeE>:
  404d53:	55                   	push   %rbp
  404d54:	48 89 e5             	mov    %rsp,%rbp
  404d57:	48 89 7d f8          	mov    %rdi,-0x8(%rbp)
  404d5b:	48 8b 45 f8          	mov    -0x8(%rbp),%rax
  404d5f:	5d                   	pop    %rbp
  404d60:	c3                   	retq   
  404d61:	90                   	nop

0000000000404d62 <_ZNSt6vectorI4areaSaIS0_EE6insertEN9__gnu_cxx17__normal_iteratorIPS0_S2_EERKS0_>:
  404d62:	55                   	push   %rbp
  404d63:	48 89 e5             	mov    %rsp,%rbp
  404d66:	53                   	push   %rbx
  404d67:	48 83 ec 58          	sub    $0x58,%rsp
  404d6b:	48 89 7d b8          	mov    %rdi,-0x48(%rbp)
  404d6f:	48 89 75 b0          	mov    %rsi,-0x50(%rbp)
  404d73:	48 89 55 a8          	mov    %rdx,-0x58(%rbp)
  404d77:	48 8b 45 b8          	mov    -0x48(%rbp),%rax
  404d7b:	48 89 c7             	mov    %rax,%rdi
  404d7e:	e8 61 fb ff ff       	callq  4048e4 <_ZNSt6vectorI4areaSaIS0_EE5beginEv>
  404d83:	48 89 45 e0          	mov    %rax,-0x20(%rbp)
  404d87:	48 8d 55 e0          	lea    -0x20(%rbp),%rdx
  404d8b:	48 8d 45 b0          	lea    -0x50(%rbp),%rax
  404d8f:	48 89 d6             	mov    %rdx,%rsi
  404d92:	48 89 c7             	mov    %rax,%rdi
  404d95:	e8 81 0d 00 00       	callq  405b1b <_ZN9__gnu_cxxmiIP4areaSt6vectorIS1_SaIS1_EEEENS_17__normal_iteratorIT_T0_E15difference_typeERKS9_SC_>
  404d9a:	48 89 45 d8          	mov    %rax,-0x28(%rbp)
  404d9e:	bb 00 00 00 00       	mov    $0x0,%ebx
  404da3:	48 8b 45 b8          	mov    -0x48(%rbp),%rax
  404da7:	48 8b 50 08          	mov    0x8(%rax),%rdx
  404dab:	48 8b 45 b8          	mov    -0x48(%rbp),%rax
  404daf:	48 8b 40 10          	mov    0x10(%rax),%rax
  404db3:	48 39 c2             	cmp    %rax,%rdx
  404db6:	74 33                	je     404deb <_ZNSt6vectorI4areaSaIS0_EE6insertEN9__gnu_cxx17__normal_iteratorIPS0_S2_EERKS0_+0x89>
  404db8:	48 8b 45 b8          	mov    -0x48(%rbp),%rax
  404dbc:	48 89 c7             	mov    %rax,%rdi
  404dbf:	e8 46 fb ff ff       	callq  40490a <_ZNSt6vectorI4areaSaIS0_EE3endEv>
  404dc4:	48 89 45 c0          	mov    %rax,-0x40(%rbp)
  404dc8:	bb 01 00 00 00       	mov    $0x1,%ebx
  404dcd:	48 8d 55 c0          	lea    -0x40(%rbp),%rdx
  404dd1:	48 8d 45 b0          	lea    -0x50(%rbp),%rax
  404dd5:	48 89 d6             	mov    %rdx,%rsi
  404dd8:	48 89 c7             	mov    %rax,%rdi
  404ddb:	e8 8f 0d 00 00       	callq  405b6f <_ZN9__gnu_cxxeqIP4areaSt6vectorIS1_SaIS1_EEEEbRKNS_17__normal_iteratorIT_T0_EESB_>
  404de0:	84 c0                	test   %al,%al
  404de2:	74 07                	je     404deb <_ZNSt6vectorI4areaSaIS0_EE6insertEN9__gnu_cxx17__normal_iteratorIPS0_S2_EERKS0_+0x89>
  404de4:	b8 01 00 00 00       	mov    $0x1,%eax
  404de9:	eb 05                	jmp    404df0 <_ZNSt6vectorI4areaSaIS0_EE6insertEN9__gnu_cxx17__normal_iteratorIPS0_S2_EERKS0_+0x8e>
  404deb:	b8 00 00 00 00       	mov    $0x0,%eax
  404df0:	84 db                	test   %bl,%bl
  404df2:	84 c0                	test   %al,%al
  404df4:	74 31                	je     404e27 <_ZNSt6vectorI4areaSaIS0_EE6insertEN9__gnu_cxx17__normal_iteratorIPS0_S2_EERKS0_+0xc5>
  404df6:	48 8b 45 b8          	mov    -0x48(%rbp),%rax
  404dfa:	48 8b 48 08          	mov    0x8(%rax),%rcx
  404dfe:	48 8b 45 b8          	mov    -0x48(%rbp),%rax
  404e02:	48 8b 55 a8          	mov    -0x58(%rbp),%rdx
  404e06:	48 89 ce             	mov    %rcx,%rsi
  404e09:	48 89 c7             	mov    %rax,%rdi
  404e0c:	e8 9a 0d 00 00       	callq  405bab <_ZNSt16allocator_traitsISaI4areaEE9constructIS0_IRKS0_EEEDTcl12_S_constructfp_fp0_spcl7forwardIT0_Efp1_EEERS1_PT_DpOS6_>
  404e11:	48 8b 45 b8          	mov    -0x48(%rbp),%rax
  404e15:	48 8b 40 08          	mov    0x8(%rax),%rax
  404e19:	48 8d 50 0c          	lea    0xc(%rax),%rdx
  404e1d:	48 8b 45 b8          	mov    -0x48(%rbp),%rax
  404e21:	48 89 50 08          	mov    %rdx,0x8(%rax)
  404e25:	eb 63                	jmp    404e8a <_ZNSt6vectorI4areaSaIS0_EE6insertEN9__gnu_cxx17__normal_iteratorIPS0_S2_EERKS0_+0x128>
  404e27:	48 8b 45 b8          	mov    -0x48(%rbp),%rax
  404e2b:	48 8b 50 08          	mov    0x8(%rax),%rdx
  404e2f:	48 8b 45 b8          	mov    -0x48(%rbp),%rax
  404e33:	48 8b 40 10          	mov    0x10(%rax),%rax
  404e37:	48 39 c2             	cmp    %rax,%rdx
  404e3a:	74 37                	je     404e73 <_ZNSt6vectorI4areaSaIS0_EE6insertEN9__gnu_cxx17__normal_iteratorIPS0_S2_EERKS0_+0x111>
  404e3c:	48 8b 55 a8          	mov    -0x58(%rbp),%rdx
  404e40:	48 8d 45 e0          	lea    -0x20(%rbp),%rax
  404e44:	48 89 d6             	mov    %rdx,%rsi
  404e47:	48 89 c7             	mov    %rax,%rdi
  404e4a:	e8 1f f9 ff ff       	callq  40476e <_ZN4areaC1ERKS_>
  404e4f:	48 8d 45 e0          	lea    -0x20(%rbp),%rax
  404e53:	48 89 c7             	mov    %rax,%rdi
  404e56:	e8 69 fe ff ff       	callq  404cc4 <_ZSt4moveIR4areaEONSt16remove_referenceIT_E4typeEOS3_>
  404e5b:	48 89 c2             	mov    %rax,%rdx
  404e5e:	48 8b 4d b0          	mov    -0x50(%rbp),%rcx
  404e62:	48 8b 45 b8          	mov    -0x48(%rbp),%rax
  404e66:	48 89 ce             	mov    %rcx,%rsi
  404e69:	48 89 c7             	mov    %rax,%rdi
  404e6c:	e8 73 0d 00 00       	callq  405be4 <_ZNSt6vectorI4areaSaIS0_EE13_M_insert_auxIIS0_EEEvN9__gnu_cxx17__normal_iteratorIPS0_S2_EEDpOT_>
  404e71:	eb 17                	jmp    404e8a <_ZNSt6vectorI4areaSaIS0_EE6insertEN9__gnu_cxx17__normal_iteratorIPS0_S2_EERKS0_+0x128>
  404e73:	48 8b 55 a8          	mov    -0x58(%rbp),%rdx
  404e77:	48 8b 4d b0          	mov    -0x50(%rbp),%rcx
  404e7b:	48 8b 45 b8          	mov    -0x48(%rbp),%rax
  404e7f:	48 89 ce             	mov    %rcx,%rsi
  404e82:	48 89 c7             	mov    %rax,%rdi
  404e85:	e8 9e 10 00 00       	callq  405f28 <_ZNSt6vectorI4areaSaIS0_EE13_M_insert_auxIIRKS0_EEEvN9__gnu_cxx17__normal_iteratorIPS0_S2_EEDpOT_>
  404e8a:	48 8b 45 b8          	mov    -0x48(%rbp),%rax
  404e8e:	48 8b 08             	mov    (%rax),%rcx
  404e91:	48 8b 55 d8          	mov    -0x28(%rbp),%rdx
  404e95:	48 89 d0             	mov    %rdx,%rax
  404e98:	48 01 c0             	add    %rax,%rax
  404e9b:	48 01 d0             	add    %rdx,%rax
  404e9e:	48 c1 e0 02          	shl    $0x2,%rax
  404ea2:	48 01 c8             	add    %rcx,%rax
  404ea5:	48 89 45 e0          	mov    %rax,-0x20(%rbp)
  404ea9:	48 8d 55 e0          	lea    -0x20(%rbp),%rdx
  404ead:	48 8d 45 d0          	lea    -0x30(%rbp),%rax
  404eb1:	48 89 d6             	mov    %rdx,%rsi
  404eb4:	48 89 c7             	mov    %rax,%rdi
  404eb7:	e8 74 05 00 00       	callq  405430 <_ZN9__gnu_cxx17__normal_iteratorIP4areaSt6vectorIS1_SaIS1_EEEC1ERKS2_>
  404ebc:	48 8b 45 d0          	mov    -0x30(%rbp),%rax
  404ec0:	48 83 c4 58          	add    $0x58,%rsp
  404ec4:	5b                   	pop    %rbx
  404ec5:	5d                   	pop    %rbp
  404ec6:	c3                   	retq   

0000000000404ec7 <_ZSt11upper_boundIN9__gnu_cxx17__normal_iteratorIP4areaSt6vectorIS2_SaIS2_EEEES2_PFbS2_S2_EET_SA_SA_RKT0_T1_>:
  404ec7:	55                   	push   %rbp
  404ec8:	48 89 e5             	mov    %rsp,%rbp
  404ecb:	48 83 ec 60          	sub    $0x60,%rsp
  404ecf:	48 89 7d b0          	mov    %rdi,-0x50(%rbp)
  404ed3:	48 89 75 a0          	mov    %rsi,-0x60(%rbp)
  404ed7:	48 89 55 a8          	mov    %rdx,-0x58(%rbp)
  404edb:	48 89 4d b8          	mov    %rcx,-0x48(%rbp)
  404edf:	48 8b 55 a0          	mov    -0x60(%rbp),%rdx
  404ee3:	48 8b 45 b0          	mov    -0x50(%rbp),%rax
  404ee7:	48 89 d6             	mov    %rdx,%rsi
  404eea:	48 89 c7             	mov    %rax,%rdi
  404eed:	e8 7a 13 00 00       	callq  40626c <_ZSt8distanceIN9__gnu_cxx17__normal_iteratorIP4areaSt6vectorIS2_SaIS2_EEEEENSt15iterator_traitsIT_E15difference_typeES9_S9_>
  404ef2:	48 89 45 d0          	mov    %rax,-0x30(%rbp)
  404ef6:	e9 a3 00 00 00       	jmpq   404f9e <_ZSt11upper_boundIN9__gnu_cxx17__normal_iteratorIP4areaSt6vectorIS2_SaIS2_EEEES2_PFbS2_S2_EET_SA_SA_RKT0_T1_+0xd7>
  404efb:	48 8b 45 d0          	mov    -0x30(%rbp),%rax
  404eff:	48 d1 f8             	sar    %rax
  404f02:	48 89 45 d8          	mov    %rax,-0x28(%rbp)
  404f06:	48 8b 45 b0          	mov    -0x50(%rbp),%rax
  404f0a:	48 89 45 c0          	mov    %rax,-0x40(%rbp)
  404f0e:	48 8b 55 d8          	mov    -0x28(%rbp),%rdx
  404f12:	48 8d 45 c0          	lea    -0x40(%rbp),%rax
  404f16:	48 89 d6             	mov    %rdx,%rsi
  404f19:	48 89 c7             	mov    %rax,%rdi
  404f1c:	e8 85 13 00 00       	callq  4062a6 <_ZSt7advanceIN9__gnu_cxx17__normal_iteratorIP4areaSt6vectorIS2_SaIS2_EEEElEvRT_T0_>
  404f21:	48 8d 45 c0          	lea    -0x40(%rbp),%rax
  404f25:	48 89 c7             	mov    %rax,%rdi
  404f28:	e8 63 fa ff ff       	callq  404990 <_ZNK9__gnu_cxx17__normal_iteratorIP4areaSt6vectorIS1_SaIS1_EEEdeEv>
  404f2d:	48 89 c2             	mov    %rax,%rdx
  404f30:	48 8d 45 f0          	lea    -0x10(%rbp),%rax
  404f34:	48 89 d6             	mov    %rdx,%rsi
  404f37:	48 89 c7             	mov    %rax,%rdi
  404f3a:	e8 2f f8 ff ff       	callq  40476e <_ZN4areaC1ERKS_>
  404f3f:	48 8b 55 a8          	mov    -0x58(%rbp),%rdx
  404f43:	48 8d 45 e0          	lea    -0x20(%rbp),%rax
  404f47:	48 89 d6             	mov    %rdx,%rsi
  404f4a:	48 89 c7             	mov    %rax,%rdi
  404f4d:	e8 1c f8 ff ff       	callq  40476e <_ZN4areaC1ERKS_>
  404f52:	48 8d 4d f0          	lea    -0x10(%rbp),%rcx
  404f56:	48 8d 55 e0          	lea    -0x20(%rbp),%rdx
  404f5a:	48 8b 45 b8          	mov    -0x48(%rbp),%rax
  404f5e:	48 89 ce             	mov    %rcx,%rsi
  404f61:	48 89 d7             	mov    %rdx,%rdi
  404f64:	ff d0                	callq  *%rax
  404f66:	84 c0                	test   %al,%al
  404f68:	74 0a                	je     404f74 <_ZSt11upper_boundIN9__gnu_cxx17__normal_iteratorIP4areaSt6vectorIS2_SaIS2_EEEES2_PFbS2_S2_EET_SA_SA_RKT0_T1_+0xad>
  404f6a:	48 8b 45 d8          	mov    -0x28(%rbp),%rax
  404f6e:	48 89 45 d0          	mov    %rax,-0x30(%rbp)
  404f72:	eb 2a                	jmp    404f9e <_ZSt11upper_boundIN9__gnu_cxx17__normal_iteratorIP4areaSt6vectorIS2_SaIS2_EEEES2_PFbS2_S2_EET_SA_SA_RKT0_T1_+0xd7>
  404f74:	48 8b 45 c0          	mov    -0x40(%rbp),%rax
  404f78:	48 89 45 b0          	mov    %rax,-0x50(%rbp)
  404f7c:	48 8d 45 b0          	lea    -0x50(%rbp),%rax
  404f80:	48 89 c7             	mov    %rax,%rdi
  404f83:	e8 e8 f9 ff ff       	callq  404970 <_ZN9__gnu_cxx17__normal_iteratorIP4areaSt6vectorIS1_SaIS1_EEEppEv>
  404f88:	48 8b 45 d8          	mov    -0x28(%rbp),%rax
  404f8c:	48 8b 55 d0          	mov    -0x30(%rbp),%rdx
  404f90:	48 29 c2             	sub    %rax,%rdx
  404f93:	48 89 d0             	mov    %rdx,%rax
  404f96:	48 83 e8 01          	sub    $0x1,%rax
  404f9a:	48 89 45 d0          	mov    %rax,-0x30(%rbp)
  404f9e:	48 83 7d d0 00       	cmpq   $0x0,-0x30(%rbp)
  404fa3:	0f 8f 52 ff ff ff    	jg     404efb <_ZSt11upper_boundIN9__gnu_cxx17__normal_iteratorIP4areaSt6vectorIS2_SaIS2_EEEES2_PFbS2_S2_EET_SA_SA_RKT0_T1_+0x34>
  404fa9:	48 8b 45 b0          	mov    -0x50(%rbp),%rax
  404fad:	c9                   	leaveq 
  404fae:	c3                   	retq   
  404faf:	90                   	nop

0000000000404fb0 <_ZN9__gnu_cxx17__normal_iteratorIP4areaSt6vectorIS1_SaIS1_EEEmmEv>:
  404fb0:	55                   	push   %rbp
  404fb1:	48 89 e5             	mov    %rsp,%rbp
  404fb4:	48 89 7d f8          	mov    %rdi,-0x8(%rbp)
  404fb8:	48 8b 45 f8          	mov    -0x8(%rbp),%rax
  404fbc:	48 8b 00             	mov    (%rax),%rax
  404fbf:	48 8d 50 f4          	lea    -0xc(%rax),%rdx
  404fc3:	48 8b 45 f8          	mov    -0x8(%rbp),%rax
  404fc7:	48 89 10             	mov    %rdx,(%rax)
  404fca:	48 8b 45 f8          	mov    -0x8(%rbp),%rax
  404fce:	5d                   	pop    %rbp
  404fcf:	c3                   	retq   

0000000000404fd0 <_ZNSt6vectorI4areaSaIS0_EE5eraseEN9__gnu_cxx17__normal_iteratorIPS0_S2_EE>:
  404fd0:	55                   	push   %rbp
  404fd1:	48 89 e5             	mov    %rsp,%rbp
  404fd4:	53                   	push   %rbx
  404fd5:	48 83 ec 38          	sub    $0x38,%rsp
  404fd9:	48 89 7d c8          	mov    %rdi,-0x38(%rbp)
  404fdd:	48 89 75 c0          	mov    %rsi,-0x40(%rbp)
  404fe1:	48 8b 45 c8          	mov    -0x38(%rbp),%rax
  404fe5:	48 89 c7             	mov    %rax,%rdi
  404fe8:	e8 1d f9 ff ff       	callq  40490a <_ZNSt6vectorI4areaSaIS0_EE3endEv>
  404fed:	48 89 45 d0          	mov    %rax,-0x30(%rbp)
  404ff1:	48 c7 45 e8 01 00 00 	movq   $0x1,-0x18(%rbp)
  404ff8:	00 
  404ff9:	48 8d 55 e8          	lea    -0x18(%rbp),%rdx
  404ffd:	48 8d 45 c0          	lea    -0x40(%rbp),%rax
  405001:	48 89 d6             	mov    %rdx,%rsi
  405004:	48 89 c7             	mov    %rax,%rdi
  405007:	e8 dc 12 00 00       	callq  4062e8 <_ZNK9__gnu_cxx17__normal_iteratorIP4areaSt6vectorIS1_SaIS1_EEEplERKl>
  40500c:	48 89 45 e0          	mov    %rax,-0x20(%rbp)
  405010:	48 8d 55 d0          	lea    -0x30(%rbp),%rdx
  405014:	48 8d 45 e0          	lea    -0x20(%rbp),%rax
  405018:	48 89 d6             	mov    %rdx,%rsi
  40501b:	48 89 c7             	mov    %rax,%rdi
  40501e:	e8 10 f9 ff ff       	callq  404933 <_ZN9__gnu_cxxneIP4areaSt6vectorIS1_SaIS1_EEEEbRKNS_17__normal_iteratorIT_T0_EESB_>
  405023:	84 c0                	test   %al,%al
  405025:	74 39                	je     405060 <_ZNSt6vectorI4areaSaIS0_EE5eraseEN9__gnu_cxx17__normal_iteratorIPS0_S2_EE+0x90>
  405027:	48 8b 45 c8          	mov    -0x38(%rbp),%rax
  40502b:	48 89 c7             	mov    %rax,%rdi
  40502e:	e8 d7 f8 ff ff       	callq  40490a <_ZNSt6vectorI4areaSaIS0_EE3endEv>
  405033:	48 89 c3             	mov    %rax,%rbx
  405036:	48 c7 45 e8 01 00 00 	movq   $0x1,-0x18(%rbp)
  40503d:	00 
  40503e:	48 8d 55 e8          	lea    -0x18(%rbp),%rdx
  405042:	48 8d 45 c0          	lea    -0x40(%rbp),%rax
  405046:	48 89 d6             	mov    %rdx,%rsi
  405049:	48 89 c7             	mov    %rax,%rdi
  40504c:	e8 97 12 00 00       	callq  4062e8 <_ZNK9__gnu_cxx17__normal_iteratorIP4areaSt6vectorIS1_SaIS1_EEEplERKl>
  405051:	48 8b 55 c0          	mov    -0x40(%rbp),%rdx
  405055:	48 89 de             	mov    %rbx,%rsi
  405058:	48 89 c7             	mov    %rax,%rdi
  40505b:	e8 d6 12 00 00       	callq  406336 <_ZSt4moveIN9__gnu_cxx17__normal_iteratorIP4areaSt6vectorIS2_SaIS2_EEEES7_ET0_T_S9_S8_>
  405060:	48 8b 45 c8          	mov    -0x38(%rbp),%rax
  405064:	48 8b 40 08          	mov    0x8(%rax),%rax
  405068:	48 8d 50 f4          	lea    -0xc(%rax),%rdx
  40506c:	48 8b 45 c8          	mov    -0x38(%rbp),%rax
  405070:	48 89 50 08          	mov    %rdx,0x8(%rax)
  405074:	48 8b 45 c8          	mov    -0x38(%rbp),%rax
  405078:	48 8b 50 08          	mov    0x8(%rax),%rdx
  40507c:	48 8b 45 c8          	mov    -0x38(%rbp),%rax
  405080:	48 89 d6             	mov    %rdx,%rsi
  405083:	48 89 c7             	mov    %rax,%rdi
  405086:	e8 f1 12 00 00       	callq  40637c <_ZNSt16allocator_traitsISaI4areaEE7destroyIS0_EEvRS1_PT_>
  40508b:	48 8b 45 c0          	mov    -0x40(%rbp),%rax
  40508f:	48 83 c4 38          	add    $0x38,%rsp
  405093:	5b                   	pop    %rbx
  405094:	5d                   	pop    %rbp
  405095:	c3                   	retq   

0000000000405096 <_ZNSt6vectorI4areaSaIS0_EE6insertEN9__gnu_cxx17__normal_iteratorIPS0_S2_EEOS0_>:
  405096:	55                   	push   %rbp
  405097:	48 89 e5             	mov    %rsp,%rbp
  40509a:	48 83 ec 20          	sub    $0x20,%rsp
  40509e:	48 89 7d f8          	mov    %rdi,-0x8(%rbp)
  4050a2:	48 89 75 f0          	mov    %rsi,-0x10(%rbp)
  4050a6:	48 89 55 e8          	mov    %rdx,-0x18(%rbp)
  4050aa:	48 8b 45 e8          	mov    -0x18(%rbp),%rax
  4050ae:	48 89 c7             	mov    %rax,%rdi
  4050b1:	e8 0e fc ff ff       	callq  404cc4 <_ZSt4moveIR4areaEONSt16remove_referenceIT_E4typeEOS3_>
  4050b6:	48 89 c2             	mov    %rax,%rdx
  4050b9:	48 8b 4d f0          	mov    -0x10(%rbp),%rcx
  4050bd:	48 8b 45 f8          	mov    -0x8(%rbp),%rax
  4050c1:	48 89 ce             	mov    %rcx,%rsi
  4050c4:	48 89 c7             	mov    %rax,%rdi
  4050c7:	e8 d6 12 00 00       	callq  4063a2 <_ZNSt6vectorI4areaSaIS0_EE7emplaceIIS0_EEEN9__gnu_cxx17__normal_iteratorIPS0_S2_EES7_DpOT_>
  4050cc:	c9                   	leaveq 
  4050cd:	c3                   	retq   

00000000004050ce <_ZSt4moveIRiEONSt16remove_referenceIT_E4typeEOS2_>:
  4050ce:	55                   	push   %rbp
  4050cf:	48 89 e5             	mov    %rsp,%rbp
  4050d2:	48 89 7d f8          	mov    %rdi,-0x8(%rbp)
  4050d6:	48 8b 45 f8          	mov    -0x8(%rbp),%rax
  4050da:	5d                   	pop    %rbp
  4050db:	c3                   	retq   

00000000004050dc <_ZNSt6vectorIiSaIiEE9push_backEOi>:
  4050dc:	55                   	push   %rbp
  4050dd:	48 89 e5             	mov    %rsp,%rbp
  4050e0:	48 83 ec 10          	sub    $0x10,%rsp
  4050e4:	48 89 7d f8          	mov    %rdi,-0x8(%rbp)
  4050e8:	48 89 75 f0          	mov    %rsi,-0x10(%rbp)
  4050ec:	48 8b 45 f0          	mov    -0x10(%rbp),%rax
  4050f0:	48 89 c7             	mov    %rax,%rdi
  4050f3:	e8 d6 ff ff ff       	callq  4050ce <_ZSt4moveIRiEONSt16remove_referenceIT_E4typeEOS2_>
  4050f8:	48 89 c2             	mov    %rax,%rdx
  4050fb:	48 8b 45 f8          	mov    -0x8(%rbp),%rax
  4050ff:	48 89 d6             	mov    %rdx,%rsi
  405102:	48 89 c7             	mov    %rax,%rdi
  405105:	e8 d6 13 00 00       	callq  4064e0 <_ZNSt6vectorIiSaIiEE12emplace_backIIiEEEvDpOT_>
  40510a:	c9                   	leaveq 
  40510b:	c3                   	retq   

000000000040510c <_ZNKSt6vectorIiSaIiEE4sizeEv>:
  40510c:	55                   	push   %rbp
  40510d:	48 89 e5             	mov    %rsp,%rbp
  405110:	48 89 7d f8          	mov    %rdi,-0x8(%rbp)
  405114:	48 8b 45 f8          	mov    -0x8(%rbp),%rax
  405118:	48 8b 40 08          	mov    0x8(%rax),%rax
  40511c:	48 89 c2             	mov    %rax,%rdx
  40511f:	48 8b 45 f8          	mov    -0x8(%rbp),%rax
  405123:	48 8b 00             	mov    (%rax),%rax
  405126:	48 29 c2             	sub    %rax,%rdx
  405129:	48 89 d0             	mov    %rdx,%rax
  40512c:	48 c1 f8 02          	sar    $0x2,%rax
  405130:	5d                   	pop    %rbp
  405131:	c3                   	retq   

0000000000405132 <_ZNSt6vectorIiSaIiEE3endEv>:
  405132:	55                   	push   %rbp
  405133:	48 89 e5             	mov    %rsp,%rbp
  405136:	48 83 ec 20          	sub    $0x20,%rsp
  40513a:	48 89 7d e8          	mov    %rdi,-0x18(%rbp)
  40513e:	48 8b 45 e8          	mov    -0x18(%rbp),%rax
  405142:	48 8d 50 08          	lea    0x8(%rax),%rdx
  405146:	48 8d 45 f0          	lea    -0x10(%rbp),%rax
  40514a:	48 89 d6             	mov    %rdx,%rsi
  40514d:	48 89 c7             	mov    %rax,%rdi
  405150:	e8 0d 14 00 00       	callq  406562 <_ZN9__gnu_cxx17__normal_iteratorIPiSt6vectorIiSaIiEEEC1ERKS1_>
  405155:	48 8b 45 f0          	mov    -0x10(%rbp),%rax
  405159:	c9                   	leaveq 
  40515a:	c3                   	retq   
  40515b:	90                   	nop

000000000040515c <_ZNK9__gnu_cxx17__normal_iteratorIPiSt6vectorIiSaIiEEEmiERKl>:
  40515c:	55                   	push   %rbp
  40515d:	48 89 e5             	mov    %rsp,%rbp
  405160:	48 83 ec 20          	sub    $0x20,%rsp
  405164:	48 89 7d e8          	mov    %rdi,-0x18(%rbp)
  405168:	48 89 75 e0          	mov    %rsi,-0x20(%rbp)
  40516c:	48 8b 45 e8          	mov    -0x18(%rbp),%rax
  405170:	48 8b 10             	mov    (%rax),%rdx
  405173:	48 8b 45 e0          	mov    -0x20(%rbp),%rax
  405177:	48 8b 00             	mov    (%rax),%rax
  40517a:	48 c1 e0 02          	shl    $0x2,%rax
  40517e:	48 f7 d8             	neg    %rax
  405181:	48 01 d0             	add    %rdx,%rax
  405184:	48 89 45 f8          	mov    %rax,-0x8(%rbp)
  405188:	48 8d 55 f8          	lea    -0x8(%rbp),%rdx
  40518c:	48 8d 45 f0          	lea    -0x10(%rbp),%rax
  405190:	48 89 d6             	mov    %rdx,%rsi
  405193:	48 89 c7             	mov    %rax,%rdi
  405196:	e8 c7 13 00 00       	callq  406562 <_ZN9__gnu_cxx17__normal_iteratorIPiSt6vectorIiSaIiEEEC1ERKS1_>
  40519b:	48 8b 45 f0          	mov    -0x10(%rbp),%rax
  40519f:	c9                   	leaveq 
  4051a0:	c3                   	retq   
  4051a1:	90                   	nop

00000000004051a2 <_ZNK9__gnu_cxx17__normal_iteratorIPiSt6vectorIiSaIiEEEdeEv>:
  4051a2:	55                   	push   %rbp
  4051a3:	48 89 e5             	mov    %rsp,%rbp
  4051a6:	48 89 7d f8          	mov    %rdi,-0x8(%rbp)
  4051aa:	48 8b 45 f8          	mov    -0x8(%rbp),%rax
  4051ae:	48 8b 00             	mov    (%rax),%rax
  4051b1:	5d                   	pop    %rbp
  4051b2:	c3                   	retq   

00000000004051b3 <_ZSt3maxIiERKT_S2_S2_>:
  4051b3:	55                   	push   %rbp
  4051b4:	48 89 e5             	mov    %rsp,%rbp
  4051b7:	48 89 7d f8          	mov    %rdi,-0x8(%rbp)
  4051bb:	48 89 75 f0          	mov    %rsi,-0x10(%rbp)
  4051bf:	48 8b 45 f8          	mov    -0x8(%rbp),%rax
  4051c3:	8b 10                	mov    (%rax),%edx
  4051c5:	48 8b 45 f0          	mov    -0x10(%rbp),%rax
  4051c9:	8b 00                	mov    (%rax),%eax
  4051cb:	39 c2                	cmp    %eax,%edx
  4051cd:	7d 06                	jge    4051d5 <_ZSt3maxIiERKT_S2_S2_+0x22>
  4051cf:	48 8b 45 f0          	mov    -0x10(%rbp),%rax
  4051d3:	eb 04                	jmp    4051d9 <_ZSt3maxIiERKT_S2_S2_+0x26>
  4051d5:	48 8b 45 f8          	mov    -0x8(%rbp),%rax
  4051d9:	5d                   	pop    %rbp
  4051da:	c3                   	retq   
  4051db:	90                   	nop

00000000004051dc <_ZNSt6vectorIiSaIiEE5beginEv>:
  4051dc:	55                   	push   %rbp
  4051dd:	48 89 e5             	mov    %rsp,%rbp
  4051e0:	48 83 ec 20          	sub    $0x20,%rsp
  4051e4:	48 89 7d e8          	mov    %rdi,-0x18(%rbp)
  4051e8:	48 8b 55 e8          	mov    -0x18(%rbp),%rdx
  4051ec:	48 8d 45 f0          	lea    -0x10(%rbp),%rax
  4051f0:	48 89 d6             	mov    %rdx,%rsi
  4051f3:	48 89 c7             	mov    %rax,%rdi
  4051f6:	e8 67 13 00 00       	callq  406562 <_ZN9__gnu_cxx17__normal_iteratorIPiSt6vectorIiSaIiEEEC1ERKS1_>
  4051fb:	48 8b 45 f0          	mov    -0x10(%rbp),%rax
  4051ff:	c9                   	leaveq 
  405200:	c3                   	retq   

0000000000405201 <_ZSt3minIiERKT_S2_S2_>:
  405201:	55                   	push   %rbp
  405202:	48 89 e5             	mov    %rsp,%rbp
  405205:	48 89 7d f8          	mov    %rdi,-0x8(%rbp)
  405209:	48 89 75 f0          	mov    %rsi,-0x10(%rbp)
  40520d:	48 8b 45 f0          	mov    -0x10(%rbp),%rax
  405211:	8b 10                	mov    (%rax),%edx
  405213:	48 8b 45 f8          	mov    -0x8(%rbp),%rax
  405217:	8b 00                	mov    (%rax),%eax
  405219:	39 c2                	cmp    %eax,%edx
  40521b:	7d 06                	jge    405223 <_ZSt3minIiERKT_S2_S2_+0x22>
  40521d:	48 8b 45 f0          	mov    -0x10(%rbp),%rax
  405221:	eb 04                	jmp    405227 <_ZSt3minIiERKT_S2_S2_+0x26>
  405223:	48 8b 45 f8          	mov    -0x8(%rbp),%rax
  405227:	5d                   	pop    %rbp
  405228:	c3                   	retq   

0000000000405229 <_ZN9__gnu_cxxneIPiSt6vectorIiSaIiEEEEbRKNS_17__normal_iteratorIT_T0_EESA_>:
  405229:	55                   	push   %rbp
  40522a:	48 89 e5             	mov    %rsp,%rbp
  40522d:	53                   	push   %rbx
  40522e:	48 83 ec 18          	sub    $0x18,%rsp
  405232:	48 89 7d e8          	mov    %rdi,-0x18(%rbp)
  405236:	48 89 75 e0          	mov    %rsi,-0x20(%rbp)
  40523a:	48 8b 45 e8          	mov    -0x18(%rbp),%rax
  40523e:	48 89 c7             	mov    %rax,%rdi
  405241:	e8 38 13 00 00       	callq  40657e <_ZNK9__gnu_cxx17__normal_iteratorIPiSt6vectorIiSaIiEEE4baseEv>
  405246:	48 8b 18             	mov    (%rax),%rbx
  405249:	48 8b 45 e0          	mov    -0x20(%rbp),%rax
  40524d:	48 89 c7             	mov    %rax,%rdi
  405250:	e8 29 13 00 00       	callq  40657e <_ZNK9__gnu_cxx17__normal_iteratorIPiSt6vectorIiSaIiEEE4baseEv>
  405255:	48 8b 00             	mov    (%rax),%rax
  405258:	48 39 c3             	cmp    %rax,%rbx
  40525b:	0f 95 c0             	setne  %al
  40525e:	48 83 c4 18          	add    $0x18,%rsp
  405262:	5b                   	pop    %rbx
  405263:	5d                   	pop    %rbp
  405264:	c3                   	retq   
  405265:	90                   	nop

0000000000405266 <_ZN9__gnu_cxx17__normal_iteratorIPiSt6vectorIiSaIiEEEppEv>:
  405266:	55                   	push   %rbp
  405267:	48 89 e5             	mov    %rsp,%rbp
  40526a:	48 89 7d f8          	mov    %rdi,-0x8(%rbp)
  40526e:	48 8b 45 f8          	mov    -0x8(%rbp),%rax
  405272:	48 8b 00             	mov    (%rax),%rax
  405275:	48 8d 50 04          	lea    0x4(%rax),%rdx
  405279:	48 8b 45 f8          	mov    -0x8(%rbp),%rax
  40527d:	48 89 10             	mov    %rdx,(%rax)
  405280:	48 8b 45 f8          	mov    -0x8(%rbp),%rax
  405284:	5d                   	pop    %rbp
  405285:	c3                   	retq   

0000000000405286 <_ZNSt6vectorIiSaIiEE8pop_backEv>:
  405286:	55                   	push   %rbp
  405287:	48 89 e5             	mov    %rsp,%rbp
  40528a:	48 83 ec 10          	sub    $0x10,%rsp
  40528e:	48 89 7d f8          	mov    %rdi,-0x8(%rbp)
  405292:	48 8b 45 f8          	mov    -0x8(%rbp),%rax
  405296:	48 8b 40 08          	mov    0x8(%rax),%rax
  40529a:	48 8d 50 fc          	lea    -0x4(%rax),%rdx
  40529e:	48 8b 45 f8          	mov    -0x8(%rbp),%rax
  4052a2:	48 89 50 08          	mov    %rdx,0x8(%rax)
  4052a6:	48 8b 45 f8          	mov    -0x8(%rbp),%rax
  4052aa:	48 8b 50 08          	mov    0x8(%rax),%rdx
  4052ae:	48 8b 45 f8          	mov    -0x8(%rbp),%rax
  4052b2:	48 89 d6             	mov    %rdx,%rsi
  4052b5:	48 89 c7             	mov    %rax,%rdi
  4052b8:	e8 cf 12 00 00       	callq  40658c <_ZNSt16allocator_traitsISaIiEE7destroyIiEEvRS0_PT_>
  4052bd:	c9                   	leaveq 
  4052be:	c3                   	retq   

00000000004052bf <_ZSt4findIN9__gnu_cxx17__normal_iteratorIPiSt6vectorIiSaIiEEEEiET_S7_S7_RKT0_>:
  4052bf:	55                   	push   %rbp
  4052c0:	48 89 e5             	mov    %rsp,%rbp
  4052c3:	53                   	push   %rbx
  4052c4:	48 83 ec 48          	sub    $0x48,%rsp
  4052c8:	48 89 7d d0          	mov    %rdi,-0x30(%rbp)
  4052cc:	48 89 75 c0          	mov    %rsi,-0x40(%rbp)
  4052d0:	48 89 55 c8          	mov    %rdx,-0x38(%rbp)
  4052d4:	48 8d 45 d0          	lea    -0x30(%rbp),%rax
  4052d8:	48 89 c7             	mov    %rax,%rdi
  4052db:	e8 d1 12 00 00       	callq  4065b1 <_ZSt19__iterator_categoryIN9__gnu_cxx17__normal_iteratorIPiSt6vectorIiSaIiEEEEENSt15iterator_traitsIT_E17iterator_categoryERKS8_>
  4052e0:	48 8b 55 c8          	mov    -0x38(%rbp),%rdx
  4052e4:	48 8b 4d c0          	mov    -0x40(%rbp),%rcx
  4052e8:	48 8b 45 d0          	mov    -0x30(%rbp),%rax
  4052ec:	88 1c 24             	mov    %bl,(%rsp)
  4052ef:	48 89 ce             	mov    %rcx,%rsi
  4052f2:	48 89 c7             	mov    %rax,%rdi
  4052f5:	e8 c1 12 00 00       	callq  4065bb <_ZSt6__findIN9__gnu_cxx17__normal_iteratorIPiSt6vectorIiSaIiEEEEiET_S7_S7_RKT0_St26random_access_iterator_tag>
  4052fa:	48 83 c4 48          	add    $0x48,%rsp
  4052fe:	5b                   	pop    %rbx
  4052ff:	5d                   	pop    %rbp
  405300:	c3                   	retq   
  405301:	90                   	nop

0000000000405302 <_ZNKSt6vectorI4areaSaIS0_EE4sizeEv>:
  405302:	55                   	push   %rbp
  405303:	48 89 e5             	mov    %rsp,%rbp
  405306:	48 89 7d f8          	mov    %rdi,-0x8(%rbp)
  40530a:	48 8b 45 f8          	mov    -0x8(%rbp),%rax
  40530e:	48 8b 40 08          	mov    0x8(%rax),%rax
  405312:	48 89 c2             	mov    %rax,%rdx
  405315:	48 8b 45 f8          	mov    -0x8(%rbp),%rax
  405319:	48 8b 00             	mov    (%rax),%rax
  40531c:	48 29 c2             	sub    %rax,%rdx
  40531f:	48 89 d0             	mov    %rdx,%rax
  405322:	48 c1 f8 02          	sar    $0x2,%rax
  405326:	48 89 c2             	mov    %rax,%rdx
  405329:	48 b8 ab aa aa aa aa 	movabs $0xaaaaaaaaaaaaaaab,%rax
  405330:	aa aa aa 
  405333:	48 0f af c2          	imul   %rdx,%rax
  405337:	5d                   	pop    %rbp
  405338:	c3                   	retq   

0000000000405339 <_ZSt11lower_boundIN9__gnu_cxx17__normal_iteratorIP4areaSt6vectorIS2_SaIS2_EEEES2_PFbS2_S2_EET_SA_SA_RKT0_T1_>:
  405339:	55                   	push   %rbp
  40533a:	48 89 e5             	mov    %rsp,%rbp
  40533d:	48 83 ec 60          	sub    $0x60,%rsp
  405341:	48 89 7d b0          	mov    %rdi,-0x50(%rbp)
  405345:	48 89 75 a0          	mov    %rsi,-0x60(%rbp)
  405349:	48 89 55 a8          	mov    %rdx,-0x58(%rbp)
  40534d:	48 89 4d b8          	mov    %rcx,-0x48(%rbp)
  405351:	48 8b 55 a0          	mov    -0x60(%rbp),%rdx
  405355:	48 8b 45 b0          	mov    -0x50(%rbp),%rax
  405359:	48 89 d6             	mov    %rdx,%rsi
  40535c:	48 89 c7             	mov    %rax,%rdi
  40535f:	e8 08 0f 00 00       	callq  40626c <_ZSt8distanceIN9__gnu_cxx17__normal_iteratorIP4areaSt6vectorIS2_SaIS2_EEEEENSt15iterator_traitsIT_E15difference_typeES9_S9_>
  405364:	48 89 45 d0          	mov    %rax,-0x30(%rbp)
  405368:	e9 a3 00 00 00       	jmpq   405410 <_ZSt11lower_boundIN9__gnu_cxx17__normal_iteratorIP4areaSt6vectorIS2_SaIS2_EEEES2_PFbS2_S2_EET_SA_SA_RKT0_T1_+0xd7>
  40536d:	48 8b 45 d0          	mov    -0x30(%rbp),%rax
  405371:	48 d1 f8             	sar    %rax
  405374:	48 89 45 d8          	mov    %rax,-0x28(%rbp)
  405378:	48 8b 45 b0          	mov    -0x50(%rbp),%rax
  40537c:	48 89 45 c0          	mov    %rax,-0x40(%rbp)
  405380:	48 8b 55 d8          	mov    -0x28(%rbp),%rdx
  405384:	48 8d 45 c0          	lea    -0x40(%rbp),%rax
  405388:	48 89 d6             	mov    %rdx,%rsi
  40538b:	48 89 c7             	mov    %rax,%rdi
  40538e:	e8 13 0f 00 00       	callq  4062a6 <_ZSt7advanceIN9__gnu_cxx17__normal_iteratorIP4areaSt6vectorIS2_SaIS2_EEEElEvRT_T0_>
  405393:	48 8b 55 a8          	mov    -0x58(%rbp),%rdx
  405397:	48 8d 45 f0          	lea    -0x10(%rbp),%rax
  40539b:	48 89 d6             	mov    %rdx,%rsi
  40539e:	48 89 c7             	mov    %rax,%rdi
  4053a1:	e8 c8 f3 ff ff       	callq  40476e <_ZN4areaC1ERKS_>
  4053a6:	48 8d 45 c0          	lea    -0x40(%rbp),%rax
  4053aa:	48 89 c7             	mov    %rax,%rdi
  4053ad:	e8 de f5 ff ff       	callq  404990 <_ZNK9__gnu_cxx17__normal_iteratorIP4areaSt6vectorIS1_SaIS1_EEEdeEv>
  4053b2:	48 89 c2             	mov    %rax,%rdx
  4053b5:	48 8d 45 e0          	lea    -0x20(%rbp),%rax
  4053b9:	48 89 d6             	mov    %rdx,%rsi
  4053bc:	48 89 c7             	mov    %rax,%rdi
  4053bf:	e8 aa f3 ff ff       	callq  40476e <_ZN4areaC1ERKS_>
  4053c4:	48 8d 4d f0          	lea    -0x10(%rbp),%rcx
  4053c8:	48 8d 55 e0          	lea    -0x20(%rbp),%rdx
  4053cc:	48 8b 45 b8          	mov    -0x48(%rbp),%rax
  4053d0:	48 89 ce             	mov    %rcx,%rsi
  4053d3:	48 89 d7             	mov    %rdx,%rdi
  4053d6:	ff d0                	callq  *%rax
  4053d8:	84 c0                	test   %al,%al
  4053da:	74 2c                	je     405408 <_ZSt11lower_boundIN9__gnu_cxx17__normal_iteratorIP4areaSt6vectorIS2_SaIS2_EEEES2_PFbS2_S2_EET_SA_SA_RKT0_T1_+0xcf>
  4053dc:	48 8b 45 c0          	mov    -0x40(%rbp),%rax
  4053e0:	48 89 45 b0          	mov    %rax,-0x50(%rbp)
  4053e4:	48 8d 45 b0          	lea    -0x50(%rbp),%rax
  4053e8:	48 89 c7             	mov    %rax,%rdi
  4053eb:	e8 80 f5 ff ff       	callq  404970 <_ZN9__gnu_cxx17__normal_iteratorIP4areaSt6vectorIS1_SaIS1_EEEppEv>
  4053f0:	48 8b 45 d8          	mov    -0x28(%rbp),%rax
  4053f4:	48 8b 55 d0          	mov    -0x30(%rbp),%rdx
  4053f8:	48 29 c2             	sub    %rax,%rdx
  4053fb:	48 89 d0             	mov    %rdx,%rax
  4053fe:	48 83 e8 01          	sub    $0x1,%rax
  405402:	48 89 45 d0          	mov    %rax,-0x30(%rbp)
  405406:	eb 08                	jmp    405410 <_ZSt11lower_boundIN9__gnu_cxx17__normal_iteratorIP4areaSt6vectorIS2_SaIS2_EEEES2_PFbS2_S2_EET_SA_SA_RKT0_T1_+0xd7>
  405408:	48 8b 45 d8          	mov    -0x28(%rbp),%rax
  40540c:	48 89 45 d0          	mov    %rax,-0x30(%rbp)
  405410:	48 83 7d d0 00       	cmpq   $0x0,-0x30(%rbp)
  405415:	0f 8f 52 ff ff ff    	jg     40536d <_ZSt11lower_boundIN9__gnu_cxx17__normal_iteratorIP4areaSt6vectorIS2_SaIS2_EEEES2_PFbS2_S2_EET_SA_SA_RKT0_T1_+0x34>
  40541b:	48 8b 45 b0          	mov    -0x50(%rbp),%rax
  40541f:	c9                   	leaveq 
  405420:	c3                   	retq   
  405421:	90                   	nop

0000000000405422 <_ZNK9__gnu_cxx17__normal_iteratorIPcSsE4baseEv>:
  405422:	55                   	push   %rbp
  405423:	48 89 e5             	mov    %rsp,%rbp
  405426:	48 89 7d f8          	mov    %rdi,-0x8(%rbp)
  40542a:	48 8b 45 f8          	mov    -0x8(%rbp),%rax
  40542e:	5d                   	pop    %rbp
  40542f:	c3                   	retq   

0000000000405430 <_ZN9__gnu_cxx17__normal_iteratorIP4areaSt6vectorIS1_SaIS1_EEEC1ERKS2_>:
  405430:	55                   	push   %rbp
  405431:	48 89 e5             	mov    %rsp,%rbp
  405434:	48 89 7d f8          	mov    %rdi,-0x8(%rbp)
  405438:	48 89 75 f0          	mov    %rsi,-0x10(%rbp)
  40543c:	48 8b 45 f0          	mov    -0x10(%rbp),%rax
  405440:	48 8b 10             	mov    (%rax),%rdx
  405443:	48 8b 45 f8          	mov    -0x8(%rbp),%rax
  405447:	48 89 10             	mov    %rdx,(%rax)
  40544a:	5d                   	pop    %rbp
  40544b:	c3                   	retq   

000000000040544c <_ZNK9__gnu_cxx17__normal_iteratorIP4areaSt6vectorIS1_SaIS1_EEE4baseEv>:
  40544c:	55                   	push   %rbp
  40544d:	48 89 e5             	mov    %rsp,%rbp
  405450:	48 89 7d f8          	mov    %rdi,-0x8(%rbp)
  405454:	48 8b 45 f8          	mov    -0x8(%rbp),%rax
  405458:	5d                   	pop    %rbp
  405459:	c3                   	retq   

000000000040545a <_ZNSt12_Vector_baseI4areaSaIS0_EE12_Vector_implD1Ev>:
  40545a:	55                   	push   %rbp
  40545b:	48 89 e5             	mov    %rsp,%rbp
  40545e:	48 83 ec 10          	sub    $0x10,%rsp
  405462:	48 89 7d f8          	mov    %rdi,-0x8(%rbp)
  405466:	48 8b 45 f8          	mov    -0x8(%rbp),%rax
  40546a:	48 89 c7             	mov    %rax,%rdi
  40546d:	e8 50 13 00 00       	callq  4067c2 <_ZNSaI4areaED1Ev>
  405472:	c9                   	leaveq 
  405473:	c3                   	retq   

0000000000405474 <_ZNSt12_Vector_baseI4areaSaIS0_EEC1Ev>:
  405474:	55                   	push   %rbp
  405475:	48 89 e5             	mov    %rsp,%rbp
  405478:	48 83 ec 10          	sub    $0x10,%rsp
  40547c:	48 89 7d f8          	mov    %rdi,-0x8(%rbp)
  405480:	48 8b 45 f8          	mov    -0x8(%rbp),%rax
  405484:	48 89 c7             	mov    %rax,%rdi
  405487:	e8 f8 12 00 00       	callq  406784 <_ZNSt12_Vector_baseI4areaSaIS0_EE12_Vector_implC1Ev>
  40548c:	c9                   	leaveq 
  40548d:	c3                   	retq   

000000000040548e <_ZNSt12_Vector_baseI4areaSaIS0_EED1Ev>:
  40548e:	55                   	push   %rbp
  40548f:	48 89 e5             	mov    %rsp,%rbp
  405492:	48 83 ec 10          	sub    $0x10,%rsp
  405496:	48 89 7d f8          	mov    %rdi,-0x8(%rbp)
  40549a:	48 8b 45 f8          	mov    -0x8(%rbp),%rax
  40549e:	48 8b 40 10          	mov    0x10(%rax),%rax
  4054a2:	48 89 c2             	mov    %rax,%rdx
  4054a5:	48 8b 45 f8          	mov    -0x8(%rbp),%rax
  4054a9:	48 8b 00             	mov    (%rax),%rax
  4054ac:	48 29 c2             	sub    %rax,%rdx
  4054af:	48 89 d0             	mov    %rdx,%rax
  4054b2:	48 c1 f8 02          	sar    $0x2,%rax
  4054b6:	48 89 c2             	mov    %rax,%rdx
  4054b9:	48 b8 ab aa aa aa aa 	movabs $0xaaaaaaaaaaaaaaab,%rax
  4054c0:	aa aa aa 
  4054c3:	48 0f af c2          	imul   %rdx,%rax
  4054c7:	48 89 c2             	mov    %rax,%rdx
  4054ca:	48 8b 45 f8          	mov    -0x8(%rbp),%rax
  4054ce:	48 8b 08             	mov    (%rax),%rcx
  4054d1:	48 8b 45 f8          	mov    -0x8(%rbp),%rax
  4054d5:	48 89 ce             	mov    %rcx,%rsi
  4054d8:	48 89 c7             	mov    %rax,%rdi
  4054db:	e8 fc 12 00 00       	callq  4067dc <_ZNSt12_Vector_baseI4areaSaIS0_EE13_M_deallocateEPS0_m>
  4054e0:	48 8b 45 f8          	mov    -0x8(%rbp),%rax
  4054e4:	48 89 c7             	mov    %rax,%rdi
  4054e7:	e8 6e ff ff ff       	callq  40545a <_ZNSt12_Vector_baseI4areaSaIS0_EE12_Vector_implD1Ev>
  4054ec:	c9                   	leaveq 
  4054ed:	c3                   	retq   

00000000004054ee <_ZNSt12_Vector_baseI4areaSaIS0_EE19_M_get_Tp_allocatorEv>:
  4054ee:	55                   	push   %rbp
  4054ef:	48 89 e5             	mov    %rsp,%rbp
  4054f2:	48 89 7d f8          	mov    %rdi,-0x8(%rbp)
  4054f6:	48 8b 45 f8          	mov    -0x8(%rbp),%rax
  4054fa:	5d                   	pop    %rbp
  4054fb:	c3                   	retq   

00000000004054fc <_ZSt8_DestroyIP4areaS0_EvT_S2_RSaIT0_E>:
  4054fc:	55                   	push   %rbp
  4054fd:	48 89 e5             	mov    %rsp,%rbp
  405500:	48 83 ec 20          	sub    $0x20,%rsp
  405504:	48 89 7d f8          	mov    %rdi,-0x8(%rbp)
  405508:	48 89 75 f0          	mov    %rsi,-0x10(%rbp)
  40550c:	48 89 55 e8          	mov    %rdx,-0x18(%rbp)
  405510:	48 8b 55 f0          	mov    -0x10(%rbp),%rdx
  405514:	48 8b 45 f8          	mov    -0x8(%rbp),%rax
  405518:	48 89 d6             	mov    %rdx,%rsi
  40551b:	48 89 c7             	mov    %rax,%rdi
  40551e:	e8 ed 12 00 00       	callq  406810 <_ZSt8_DestroyIP4areaEvT_S2_>
  405523:	c9                   	leaveq 
  405524:	c3                   	retq   
  405525:	90                   	nop

0000000000405526 <_ZNSt12_Vector_baseI4nodeSaIS0_EE12_Vector_implD1Ev>:
  405526:	55                   	push   %rbp
  405527:	48 89 e5             	mov    %rsp,%rbp
  40552a:	48 83 ec 10          	sub    $0x10,%rsp
  40552e:	48 89 7d f8          	mov    %rdi,-0x8(%rbp)
  405532:	48 8b 45 f8          	mov    -0x8(%rbp),%rax
  405536:	48 89 c7             	mov    %rax,%rdi
  405539:	e8 36 13 00 00       	callq  406874 <_ZNSaI4nodeED1Ev>
  40553e:	c9                   	leaveq 
  40553f:	c3                   	retq   

0000000000405540 <_ZNSt12_Vector_baseI4nodeSaIS0_EEC1Ev>:
  405540:	55                   	push   %rbp
  405541:	48 89 e5             	mov    %rsp,%rbp
  405544:	48 83 ec 10          	sub    $0x10,%rsp
  405548:	48 89 7d f8          	mov    %rdi,-0x8(%rbp)
  40554c:	48 8b 45 f8          	mov    -0x8(%rbp),%rax
  405550:	48 89 c7             	mov    %rax,%rdi
  405553:	e8 de 12 00 00       	callq  406836 <_ZNSt12_Vector_baseI4nodeSaIS0_EE12_Vector_implC1Ev>
  405558:	c9                   	leaveq 
  405559:	c3                   	retq   

000000000040555a <_ZNSt12_Vector_baseI4nodeSaIS0_EED1Ev>:
  40555a:	55                   	push   %rbp
  40555b:	48 89 e5             	mov    %rsp,%rbp
  40555e:	48 83 ec 10          	sub    $0x10,%rsp
  405562:	48 89 7d f8          	mov    %rdi,-0x8(%rbp)
  405566:	48 8b 45 f8          	mov    -0x8(%rbp),%rax
  40556a:	48 8b 40 10          	mov    0x10(%rax),%rax
  40556e:	48 89 c2             	mov    %rax,%rdx
  405571:	48 8b 45 f8          	mov    -0x8(%rbp),%rax
  405575:	48 8b 00             	mov    (%rax),%rax
  405578:	48 29 c2             	sub    %rax,%rdx
  40557b:	48 89 d0             	mov    %rdx,%rax
  40557e:	48 c1 f8 03          	sar    $0x3,%rax
  405582:	48 89 c2             	mov    %rax,%rdx
  405585:	48 8b 45 f8          	mov    -0x8(%rbp),%rax
  405589:	48 8b 08             	mov    (%rax),%rcx
  40558c:	48 8b 45 f8          	mov    -0x8(%rbp),%rax
  405590:	48 89 ce             	mov    %rcx,%rsi
  405593:	48 89 c7             	mov    %rax,%rdi
  405596:	e8 f3 12 00 00       	callq  40688e <_ZNSt12_Vector_baseI4nodeSaIS0_EE13_M_deallocateEPS0_m>
  40559b:	48 8b 45 f8          	mov    -0x8(%rbp),%rax
  40559f:	48 89 c7             	mov    %rax,%rdi
  4055a2:	e8 7f ff ff ff       	callq  405526 <_ZNSt12_Vector_baseI4nodeSaIS0_EE12_Vector_implD1Ev>
  4055a7:	c9                   	leaveq 
  4055a8:	c3                   	retq   
  4055a9:	90                   	nop

00000000004055aa <_ZNSt12_Vector_baseI4nodeSaIS0_EE19_M_get_Tp_allocatorEv>:
  4055aa:	55                   	push   %rbp
  4055ab:	48 89 e5             	mov    %rsp,%rbp
  4055ae:	48 89 7d f8          	mov    %rdi,-0x8(%rbp)
  4055b2:	48 8b 45 f8          	mov    -0x8(%rbp),%rax
  4055b6:	5d                   	pop    %rbp
  4055b7:	c3                   	retq   

00000000004055b8 <_ZSt8_DestroyIP4nodeS0_EvT_S2_RSaIT0_E>:
  4055b8:	55                   	push   %rbp
  4055b9:	48 89 e5             	mov    %rsp,%rbp
  4055bc:	48 83 ec 20          	sub    $0x20,%rsp
  4055c0:	48 89 7d f8          	mov    %rdi,-0x8(%rbp)
  4055c4:	48 89 75 f0          	mov    %rsi,-0x10(%rbp)
  4055c8:	48 89 55 e8          	mov    %rdx,-0x18(%rbp)
  4055cc:	48 8b 55 f0          	mov    -0x10(%rbp),%rdx
  4055d0:	48 8b 45 f8          	mov    -0x8(%rbp),%rax
  4055d4:	48 89 d6             	mov    %rdx,%rsi
  4055d7:	48 89 c7             	mov    %rax,%rdi
  4055da:	e8 e3 12 00 00       	callq  4068c2 <_ZSt8_DestroyIP4nodeEvT_S2_>
  4055df:	c9                   	leaveq 
  4055e0:	c3                   	retq   
  4055e1:	90                   	nop

00000000004055e2 <_ZNSt12_Vector_baseIiSaIiEE12_Vector_implD1Ev>:
  4055e2:	55                   	push   %rbp
  4055e3:	48 89 e5             	mov    %rsp,%rbp
  4055e6:	48 83 ec 10          	sub    $0x10,%rsp
  4055ea:	48 89 7d f8          	mov    %rdi,-0x8(%rbp)
  4055ee:	48 8b 45 f8          	mov    -0x8(%rbp),%rax
  4055f2:	48 89 c7             	mov    %rax,%rdi
  4055f5:	e8 2c 13 00 00       	callq  406926 <_ZNSaIiED1Ev>
  4055fa:	c9                   	leaveq 
  4055fb:	c3                   	retq   

00000000004055fc <_ZNSt12_Vector_baseIiSaIiEEC1Ev>:
  4055fc:	55                   	push   %rbp
  4055fd:	48 89 e5             	mov    %rsp,%rbp
  405600:	48 83 ec 10          	sub    $0x10,%rsp
  405604:	48 89 7d f8          	mov    %rdi,-0x8(%rbp)
  405608:	48 8b 45 f8          	mov    -0x8(%rbp),%rax
  40560c:	48 89 c7             	mov    %rax,%rdi
  40560f:	e8 d4 12 00 00       	callq  4068e8 <_ZNSt12_Vector_baseIiSaIiEE12_Vector_implC1Ev>
  405614:	c9                   	leaveq 
  405615:	c3                   	retq   

0000000000405616 <_ZNSt12_Vector_baseIiSaIiEED1Ev>:
  405616:	55                   	push   %rbp
  405617:	48 89 e5             	mov    %rsp,%rbp
  40561a:	48 83 ec 10          	sub    $0x10,%rsp
  40561e:	48 89 7d f8          	mov    %rdi,-0x8(%rbp)
  405622:	48 8b 45 f8          	mov    -0x8(%rbp),%rax
  405626:	48 8b 40 10          	mov    0x10(%rax),%rax
  40562a:	48 89 c2             	mov    %rax,%rdx
  40562d:	48 8b 45 f8          	mov    -0x8(%rbp),%rax
  405631:	48 8b 00             	mov    (%rax),%rax
  405634:	48 29 c2             	sub    %rax,%rdx
  405637:	48 89 d0             	mov    %rdx,%rax
  40563a:	48 c1 f8 02          	sar    $0x2,%rax
  40563e:	48 89 c2             	mov    %rax,%rdx
  405641:	48 8b 45 f8          	mov    -0x8(%rbp),%rax
  405645:	48 8b 08             	mov    (%rax),%rcx
  405648:	48 8b 45 f8          	mov    -0x8(%rbp),%rax
  40564c:	48 89 ce             	mov    %rcx,%rsi
  40564f:	48 89 c7             	mov    %rax,%rdi
  405652:	e8 e9 12 00 00       	callq  406940 <_ZNSt12_Vector_baseIiSaIiEE13_M_deallocateEPim>
  405657:	48 8b 45 f8          	mov    -0x8(%rbp),%rax
  40565b:	48 89 c7             	mov    %rax,%rdi
  40565e:	e8 7f ff ff ff       	callq  4055e2 <_ZNSt12_Vector_baseIiSaIiEE12_Vector_implD1Ev>
  405663:	c9                   	leaveq 
  405664:	c3                   	retq   
  405665:	90                   	nop

0000000000405666 <_ZNSt12_Vector_baseIiSaIiEE19_M_get_Tp_allocatorEv>:
  405666:	55                   	push   %rbp
  405667:	48 89 e5             	mov    %rsp,%rbp
  40566a:	48 89 7d f8          	mov    %rdi,-0x8(%rbp)
  40566e:	48 8b 45 f8          	mov    -0x8(%rbp),%rax
  405672:	5d                   	pop    %rbp
  405673:	c3                   	retq   

0000000000405674 <_ZSt8_DestroyIPiiEvT_S1_RSaIT0_E>:
  405674:	55                   	push   %rbp
  405675:	48 89 e5             	mov    %rsp,%rbp
  405678:	48 83 ec 20          	sub    $0x20,%rsp
  40567c:	48 89 7d f8          	mov    %rdi,-0x8(%rbp)
  405680:	48 89 75 f0          	mov    %rsi,-0x10(%rbp)
  405684:	48 89 55 e8          	mov    %rdx,-0x18(%rbp)
  405688:	48 8b 55 f0          	mov    -0x10(%rbp),%rdx
  40568c:	48 8b 45 f8          	mov    -0x8(%rbp),%rax
  405690:	48 89 d6             	mov    %rdx,%rsi
  405693:	48 89 c7             	mov    %rax,%rdi
  405696:	e8 d9 12 00 00       	callq  406974 <_ZSt8_DestroyIPiEvT_S1_>
  40569b:	c9                   	leaveq 
  40569c:	c3                   	retq   

000000000040569d <_ZSt7forwardI4nodeEOT_RNSt16remove_referenceIS1_E4typeE>:
  40569d:	55                   	push   %rbp
  40569e:	48 89 e5             	mov    %rsp,%rbp
  4056a1:	48 89 7d f8          	mov    %rdi,-0x8(%rbp)
  4056a5:	48 8b 45 f8          	mov    -0x8(%rbp),%rax
  4056a9:	5d                   	pop    %rbp
  4056aa:	c3                   	retq   
  4056ab:	90                   	nop

00000000004056ac <_ZNSt6vectorI4nodeSaIS0_EE12emplace_backIIS0_EEEvDpOT_>:
  4056ac:	55                   	push   %rbp
  4056ad:	48 89 e5             	mov    %rsp,%rbp
  4056b0:	48 83 ec 10          	sub    $0x10,%rsp
  4056b4:	48 89 7d f8          	mov    %rdi,-0x8(%rbp)
  4056b8:	48 89 75 f0          	mov    %rsi,-0x10(%rbp)
  4056bc:	48 8b 45 f8          	mov    -0x8(%rbp),%rax
  4056c0:	48 8b 50 08          	mov    0x8(%rax),%rdx
  4056c4:	48 8b 45 f8          	mov    -0x8(%rbp),%rax
  4056c8:	48 8b 40 10          	mov    0x10(%rax),%rax
  4056cc:	48 39 c2             	cmp    %rax,%rdx
  4056cf:	74 3c                	je     40570d <_ZNSt6vectorI4nodeSaIS0_EE12emplace_backIIS0_EEEvDpOT_+0x61>
  4056d1:	48 8b 45 f0          	mov    -0x10(%rbp),%rax
  4056d5:	48 89 c7             	mov    %rax,%rdi
  4056d8:	e8 c0 ff ff ff       	callq  40569d <_ZSt7forwardI4nodeEOT_RNSt16remove_referenceIS1_E4typeE>
  4056dd:	48 89 c2             	mov    %rax,%rdx
  4056e0:	48 8b 45 f8          	mov    -0x8(%rbp),%rax
  4056e4:	48 8b 48 08          	mov    0x8(%rax),%rcx
  4056e8:	48 8b 45 f8          	mov    -0x8(%rbp),%rax
  4056ec:	48 89 ce             	mov    %rcx,%rsi
  4056ef:	48 89 c7             	mov    %rax,%rdi
  4056f2:	e8 a2 12 00 00       	callq  406999 <_ZNSt16allocator_traitsISaI4nodeEE9constructIS0_IS0_EEEDTcl12_S_constructfp_fp0_spcl7forwardIT0_Efp1_EEERS1_PT_DpOS4_>
  4056f7:	48 8b 45 f8          	mov    -0x8(%rbp),%rax
  4056fb:	48 8b 40 08          	mov    0x8(%rax),%rax
  4056ff:	48 8d 50 08          	lea    0x8(%rax),%rdx
  405703:	48 8b 45 f8          	mov    -0x8(%rbp),%rax
  405707:	48 89 50 08          	mov    %rdx,0x8(%rax)
  40570b:	eb 1e                	jmp    40572b <_ZNSt6vectorI4nodeSaIS0_EE12emplace_backIIS0_EEEvDpOT_+0x7f>
  40570d:	48 8b 45 f0          	mov    -0x10(%rbp),%rax
  405711:	48 89 c7             	mov    %rax,%rdi
  405714:	e8 84 ff ff ff       	callq  40569d <_ZSt7forwardI4nodeEOT_RNSt16remove_referenceIS1_E4typeE>
  405719:	48 89 c2             	mov    %rax,%rdx
  40571c:	48 8b 45 f8          	mov    -0x8(%rbp),%rax
  405720:	48 89 d6             	mov    %rdx,%rsi
  405723:	48 89 c7             	mov    %rax,%rdi
  405726:	e8 a7 12 00 00       	callq  4069d2 <_ZNSt6vectorI4nodeSaIS0_EE19_M_emplace_back_auxIIS0_EEEvDpOT_>
  40572b:	c9                   	leaveq 
  40572c:	c3                   	retq   
  40572d:	90                   	nop

000000000040572e <_ZNKSt6vectorI4nodeSaIS0_EE4sizeEv>:
  40572e:	55                   	push   %rbp
  40572f:	48 89 e5             	mov    %rsp,%rbp
  405732:	48 89 7d f8          	mov    %rdi,-0x8(%rbp)
  405736:	48 8b 45 f8          	mov    -0x8(%rbp),%rax
  40573a:	48 8b 40 08          	mov    0x8(%rax),%rax
  40573e:	48 89 c2             	mov    %rax,%rdx
  405741:	48 8b 45 f8          	mov    -0x8(%rbp),%rax
  405745:	48 8b 00             	mov    (%rax),%rax
  405748:	48 29 c2             	sub    %rax,%rdx
  40574b:	48 89 d0             	mov    %rdx,%rax
  40574e:	48 c1 f8 03          	sar    $0x3,%rax
  405752:	5d                   	pop    %rbp
  405753:	c3                   	retq   

0000000000405754 <_ZNSt6vectorI4nodeSaIS0_EE3endEv>:
  405754:	55                   	push   %rbp
  405755:	48 89 e5             	mov    %rsp,%rbp
  405758:	48 83 ec 20          	sub    $0x20,%rsp
  40575c:	48 89 7d e8          	mov    %rdi,-0x18(%rbp)
  405760:	48 8b 45 e8          	mov    -0x18(%rbp),%rax
  405764:	48 8d 50 08          	lea    0x8(%rax),%rdx
  405768:	48 8d 45 f0          	lea    -0x10(%rbp),%rax
  40576c:	48 89 d6             	mov    %rdx,%rsi
  40576f:	48 89 c7             	mov    %rax,%rdi
  405772:	e8 45 14 00 00       	callq  406bbc <_ZN9__gnu_cxx17__normal_iteratorIP4nodeSt6vectorIS1_SaIS1_EEEC1ERKS2_>
  405777:	48 8b 45 f0          	mov    -0x10(%rbp),%rax
  40577b:	c9                   	leaveq 
  40577c:	c3                   	retq   
  40577d:	90                   	nop

000000000040577e <_ZNSt6vectorI4nodeSaIS0_EE6insertEN9__gnu_cxx17__normal_iteratorIPS0_S2_EEmRKS0_>:
  40577e:	55                   	push   %rbp
  40577f:	48 89 e5             	mov    %rsp,%rbp
  405782:	48 83 ec 20          	sub    $0x20,%rsp
  405786:	48 89 7d f8          	mov    %rdi,-0x8(%rbp)
  40578a:	48 89 75 f0          	mov    %rsi,-0x10(%rbp)
  40578e:	48 89 55 e8          	mov    %rdx,-0x18(%rbp)
  405792:	48 89 4d e0          	mov    %rcx,-0x20(%rbp)
  405796:	48 8b 4d e0          	mov    -0x20(%rbp),%rcx
  40579a:	48 8b 55 e8          	mov    -0x18(%rbp),%rdx
  40579e:	48 8b 75 f0          	mov    -0x10(%rbp),%rsi
  4057a2:	48 8b 45 f8          	mov    -0x8(%rbp),%rax
  4057a6:	48 89 c7             	mov    %rax,%rdi
  4057a9:	e8 2a 14 00 00       	callq  406bd8 <_ZNSt6vectorI4nodeSaIS0_EE14_M_fill_insertEN9__gnu_cxx17__normal_iteratorIPS0_S2_EEmRKS0_>
  4057ae:	c9                   	leaveq 
  4057af:	c3                   	retq   

00000000004057b0 <_ZNSt6vectorI4nodeSaIS0_EE15_M_erase_at_endEPS0_>:
  4057b0:	55                   	push   %rbp
  4057b1:	48 89 e5             	mov    %rsp,%rbp
  4057b4:	48 83 ec 10          	sub    $0x10,%rsp
  4057b8:	48 89 7d f8          	mov    %rdi,-0x8(%rbp)
  4057bc:	48 89 75 f0          	mov    %rsi,-0x10(%rbp)
  4057c0:	48 8b 45 f8          	mov    -0x8(%rbp),%rax
  4057c4:	48 89 c7             	mov    %rax,%rdi
  4057c7:	e8 de fd ff ff       	callq  4055aa <_ZNSt12_Vector_baseI4nodeSaIS0_EE19_M_get_Tp_allocatorEv>
  4057cc:	48 89 c2             	mov    %rax,%rdx
  4057cf:	48 8b 45 f8          	mov    -0x8(%rbp),%rax
  4057d3:	48 8b 48 08          	mov    0x8(%rax),%rcx
  4057d7:	48 8b 45 f0          	mov    -0x10(%rbp),%rax
  4057db:	48 89 ce             	mov    %rcx,%rsi
  4057de:	48 89 c7             	mov    %rax,%rdi
  4057e1:	e8 d2 fd ff ff       	callq  4055b8 <_ZSt8_DestroyIP4nodeS0_EvT_S2_RSaIT0_E>
  4057e6:	48 8b 45 f8          	mov    -0x8(%rbp),%rax
  4057ea:	48 8b 55 f0          	mov    -0x10(%rbp),%rdx
  4057ee:	48 89 50 08          	mov    %rdx,0x8(%rax)
  4057f2:	c9                   	leaveq 
  4057f3:	c3                   	retq   

00000000004057f4 <_ZNSt16allocator_traitsISaIiEE9constructIiIRKiEEEDTcl12_S_constructfp_fp0_spcl7forwardIT0_Efp1_EEERS0_PT_DpOS5_>:
  4057f4:	55                   	push   %rbp
  4057f5:	48 89 e5             	mov    %rsp,%rbp
  4057f8:	48 83 ec 20          	sub    $0x20,%rsp
  4057fc:	48 89 7d f8          	mov    %rdi,-0x8(%rbp)
  405800:	48 89 75 f0          	mov    %rsi,-0x10(%rbp)
  405804:	48 89 55 e8          	mov    %rdx,-0x18(%rbp)
  405808:	48 8b 45 e8          	mov    -0x18(%rbp),%rax
  40580c:	48 89 c7             	mov    %rax,%rdi
  40580f:	e8 8e f3 ff ff       	callq  404ba2 <_ZSt7forwardIRKiEOT_RNSt16remove_referenceIS2_E4typeE>
  405814:	48 89 c2             	mov    %rax,%rdx
  405817:	48 8b 4d f0          	mov    -0x10(%rbp),%rcx
  40581b:	48 8b 45 f8          	mov    -0x8(%rbp),%rax
  40581f:	48 89 ce             	mov    %rcx,%rsi
  405822:	48 89 c7             	mov    %rax,%rdi
  405825:	e8 48 18 00 00       	callq  407072 <_ZNSt16allocator_traitsISaIiEE12_S_constructIiIRKiEEENSt9enable_ifIXsrNS1_18__construct_helperIT_IDpT0_EEE5valueEvE4typeERS0_PS7_DpOS8_>
  40582a:	c9                   	leaveq 
  40582b:	c3                   	retq   

000000000040582c <_ZNSt6vectorIiSaIiEE19_M_emplace_back_auxIIRKiEEEvDpOT_>:
  40582c:	55                   	push   %rbp
  40582d:	48 89 e5             	mov    %rsp,%rbp
  405830:	53                   	push   %rbx
  405831:	48 83 ec 38          	sub    $0x38,%rsp
  405835:	48 89 7d c8          	mov    %rdi,-0x38(%rbp)
  405839:	48 89 75 c0          	mov    %rsi,-0x40(%rbp)
  40583d:	48 8b 45 c8          	mov    -0x38(%rbp),%rax
  405841:	ba a6 96 40 00       	mov    $0x4096a6,%edx
  405846:	be 01 00 00 00       	mov    $0x1,%esi
  40584b:	48 89 c7             	mov    %rax,%rdi
  40584e:	e8 57 18 00 00       	callq  4070aa <_ZNKSt6vectorIiSaIiEE12_M_check_lenEmPKc>
  405853:	48 89 45 e0          	mov    %rax,-0x20(%rbp)
  405857:	48 8b 45 c8          	mov    -0x38(%rbp),%rax
  40585b:	48 8b 55 e0          	mov    -0x20(%rbp),%rdx
  40585f:	48 89 d6             	mov    %rdx,%rsi
  405862:	48 89 c7             	mov    %rax,%rdi
  405865:	e8 0a 19 00 00       	callq  407174 <_ZNSt12_Vector_baseIiSaIiEE11_M_allocateEm>
  40586a:	48 89 45 e8          	mov    %rax,-0x18(%rbp)
  40586e:	48 8b 45 e8          	mov    -0x18(%rbp),%rax
  405872:	48 89 45 d8          	mov    %rax,-0x28(%rbp)
  405876:	48 8b 45 c0          	mov    -0x40(%rbp),%rax
  40587a:	48 89 c7             	mov    %rax,%rdi
  40587d:	e8 20 f3 ff ff       	callq  404ba2 <_ZSt7forwardIRKiEOT_RNSt16remove_referenceIS2_E4typeE>
  405882:	48 89 c3             	mov    %rax,%rbx
  405885:	48 8b 45 c8          	mov    -0x38(%rbp),%rax
  405889:	48 89 c7             	mov    %rax,%rdi
  40588c:	e8 7b f8 ff ff       	callq  40510c <_ZNKSt6vectorIiSaIiEE4sizeEv>
  405891:	48 8d 14 85 00 00 00 	lea    0x0(,%rax,4),%rdx
  405898:	00 
  405899:	48 8b 45 e8          	mov    -0x18(%rbp),%rax
  40589d:	48 8d 0c 02          	lea    (%rdx,%rax,1),%rcx
  4058a1:	48 8b 45 c8          	mov    -0x38(%rbp),%rax
  4058a5:	48 89 da             	mov    %rbx,%rdx
  4058a8:	48 89 ce             	mov    %rcx,%rsi
  4058ab:	48 89 c7             	mov    %rax,%rdi
  4058ae:	e8 41 ff ff ff       	callq  4057f4 <_ZNSt16allocator_traitsISaIiEE9constructIiIRKiEEEDTcl12_S_constructfp_fp0_spcl7forwardIT0_Efp1_EEERS0_PT_DpOS5_>
  4058b3:	48 c7 45 d8 00 00 00 	movq   $0x0,-0x28(%rbp)
  4058ba:	00 
  4058bb:	48 8b 45 c8          	mov    -0x38(%rbp),%rax
  4058bf:	48 89 c7             	mov    %rax,%rdi
  4058c2:	e8 9f fd ff ff       	callq  405666 <_ZNSt12_Vector_baseIiSaIiEE19_M_get_Tp_allocatorEv>
  4058c7:	48 89 c1             	mov    %rax,%rcx
  4058ca:	48 8b 45 c8          	mov    -0x38(%rbp),%rax
  4058ce:	48 8b 70 08          	mov    0x8(%rax),%rsi
  4058d2:	48 8b 45 c8          	mov    -0x38(%rbp),%rax
  4058d6:	48 8b 00             	mov    (%rax),%rax
  4058d9:	48 8b 55 e8          	mov    -0x18(%rbp),%rdx
  4058dd:	48 89 c7             	mov    %rax,%rdi
  4058e0:	e8 c7 18 00 00       	callq  4071ac <_ZSt34__uninitialized_move_if_noexcept_aIPiS0_SaIiEET0_T_S3_S2_RT1_>
  4058e5:	48 89 45 d8          	mov    %rax,-0x28(%rbp)
  4058e9:	48 83 45 d8 04       	addq   $0x4,-0x28(%rbp)
  4058ee:	48 8b 45 c8          	mov    -0x38(%rbp),%rax
  4058f2:	48 89 c7             	mov    %rax,%rdi
  4058f5:	e8 6c fd ff ff       	callq  405666 <_ZNSt12_Vector_baseIiSaIiEE19_M_get_Tp_allocatorEv>
  4058fa:	48 89 c2             	mov    %rax,%rdx
  4058fd:	48 8b 45 c8          	mov    -0x38(%rbp),%rax
  405901:	48 8b 48 08          	mov    0x8(%rax),%rcx
  405905:	48 8b 45 c8          	mov    -0x38(%rbp),%rax
  405909:	48 8b 00             	mov    (%rax),%rax
  40590c:	48 89 ce             	mov    %rcx,%rsi
  40590f:	48 89 c7             	mov    %rax,%rdi
  405912:	e8 5d fd ff ff       	callq  405674 <_ZSt8_DestroyIPiiEvT_S1_RSaIT0_E>
  405917:	48 8b 45 c8          	mov    -0x38(%rbp),%rax
  40591b:	48 8b 40 10          	mov    0x10(%rax),%rax
  40591f:	48 89 c2             	mov    %rax,%rdx
  405922:	48 8b 45 c8          	mov    -0x38(%rbp),%rax
  405926:	48 8b 00             	mov    (%rax),%rax
  405929:	48 29 c2             	sub    %rax,%rdx
  40592c:	48 89 d0             	mov    %rdx,%rax
  40592f:	48 c1 f8 02          	sar    $0x2,%rax
  405933:	48 89 c2             	mov    %rax,%rdx
  405936:	48 8b 45 c8          	mov    -0x38(%rbp),%rax
  40593a:	48 8b 08             	mov    (%rax),%rcx
  40593d:	48 8b 45 c8          	mov    -0x38(%rbp),%rax
  405941:	48 89 ce             	mov    %rcx,%rsi
  405944:	48 89 c7             	mov    %rax,%rdi
  405947:	e8 f4 0f 00 00       	callq  406940 <_ZNSt12_Vector_baseIiSaIiEE13_M_deallocateEPim>
  40594c:	48 8b 45 c8          	mov    -0x38(%rbp),%rax
  405950:	48 8b 55 e8          	mov    -0x18(%rbp),%rdx
  405954:	48 89 10             	mov    %rdx,(%rax)
  405957:	48 8b 45 c8          	mov    -0x38(%rbp),%rax
  40595b:	48 8b 55 d8          	mov    -0x28(%rbp),%rdx
  40595f:	48 89 50 08          	mov    %rdx,0x8(%rax)
  405963:	48 8b 45 e0          	mov    -0x20(%rbp),%rax
  405967:	48 8d 14 85 00 00 00 	lea    0x0(,%rax,4),%rdx
  40596e:	00 
  40596f:	48 8b 45 e8          	mov    -0x18(%rbp),%rax
  405973:	48 01 c2             	add    %rax,%rdx
  405976:	48 8b 45 c8          	mov    -0x38(%rbp),%rax
  40597a:	48 89 50 10          	mov    %rdx,0x10(%rax)
  40597e:	e9 8c 00 00 00       	jmpq   405a0f <_ZNSt6vectorIiSaIiEE19_M_emplace_back_auxIIRKiEEEvDpOT_+0x1e3>
  405983:	48 89 c3             	mov    %rax,%rbx
  405986:	e8 75 b7 ff ff       	callq  401100 <__cxa_end_catch@plt>
  40598b:	48 89 d8             	mov    %rbx,%rax
  40598e:	48 89 c7             	mov    %rax,%rdi
  405991:	e8 fa b7 ff ff       	callq  401190 <_Unwind_Resume@plt>
  405996:	48 89 c7             	mov    %rax,%rdi
  405999:	e8 82 b7 ff ff       	callq  401120 <__cxa_begin_catch@plt>
  40599e:	48 83 7d d8 00       	cmpq   $0x0,-0x28(%rbp)
  4059a3:	75 2c                	jne    4059d1 <_ZNSt6vectorIiSaIiEE19_M_emplace_back_auxIIRKiEEEvDpOT_+0x1a5>
  4059a5:	48 8b 45 c8          	mov    -0x38(%rbp),%rax
  4059a9:	48 89 c7             	mov    %rax,%rdi
  4059ac:	e8 5b f7 ff ff       	callq  40510c <_ZNKSt6vectorIiSaIiEE4sizeEv>
  4059b1:	48 8d 14 85 00 00 00 	lea    0x0(,%rax,4),%rdx
  4059b8:	00 
  4059b9:	48 8b 45 e8          	mov    -0x18(%rbp),%rax
  4059bd:	48 01 c2             	add    %rax,%rdx
  4059c0:	48 8b 45 c8          	mov    -0x38(%rbp),%rax
  4059c4:	48 89 d6             	mov    %rdx,%rsi
  4059c7:	48 89 c7             	mov    %rax,%rdi
  4059ca:	e8 bd 0b 00 00       	callq  40658c <_ZNSt16allocator_traitsISaIiEE7destroyIiEEvRS0_PT_>
  4059cf:	eb 22                	jmp    4059f3 <_ZNSt6vectorIiSaIiEE19_M_emplace_back_auxIIRKiEEEvDpOT_+0x1c7>
  4059d1:	48 8b 45 c8          	mov    -0x38(%rbp),%rax
  4059d5:	48 89 c7             	mov    %rax,%rdi
  4059d8:	e8 89 fc ff ff       	callq  405666 <_ZNSt12_Vector_baseIiSaIiEE19_M_get_Tp_allocatorEv>
  4059dd:	48 89 c2             	mov    %rax,%rdx
  4059e0:	48 8b 4d d8          	mov    -0x28(%rbp),%rcx
  4059e4:	48 8b 45 e8          	mov    -0x18(%rbp),%rax
  4059e8:	48 89 ce             	mov    %rcx,%rsi
  4059eb:	48 89 c7             	mov    %rax,%rdi
  4059ee:	e8 81 fc ff ff       	callq  405674 <_ZSt8_DestroyIPiiEvT_S1_RSaIT0_E>
  4059f3:	48 8b 45 c8          	mov    -0x38(%rbp),%rax
  4059f7:	48 8b 55 e0          	mov    -0x20(%rbp),%rdx
  4059fb:	48 8b 4d e8          	mov    -0x18(%rbp),%rcx
  4059ff:	48 89 ce             	mov    %rcx,%rsi
  405a02:	48 89 c7             	mov    %rax,%rdi
  405a05:	e8 36 0f 00 00       	callq  406940 <_ZNSt12_Vector_baseIiSaIiEE13_M_deallocateEPim>
  405a0a:	e8 d1 b5 ff ff       	callq  400fe0 <__cxa_rethrow@plt>
  405a0f:	48 83 c4 38          	add    $0x38,%rsp
  405a13:	5b                   	pop    %rbx
  405a14:	5d                   	pop    %rbp
  405a15:	c3                   	retq   

0000000000405a16 <_ZNSt6vectorIiSaIiEE6insertEN9__gnu_cxx17__normal_iteratorIPiS1_EEmRKi>:
  405a16:	55                   	push   %rbp
  405a17:	48 89 e5             	mov    %rsp,%rbp
  405a1a:	48 83 ec 20          	sub    $0x20,%rsp
  405a1e:	48 89 7d f8          	mov    %rdi,-0x8(%rbp)
  405a22:	48 89 75 f0          	mov    %rsi,-0x10(%rbp)
  405a26:	48 89 55 e8          	mov    %rdx,-0x18(%rbp)
  405a2a:	48 89 4d e0          	mov    %rcx,-0x20(%rbp)
  405a2e:	48 8b 4d e0          	mov    -0x20(%rbp),%rcx
  405a32:	48 8b 55 e8          	mov    -0x18(%rbp),%rdx
  405a36:	48 8b 75 f0          	mov    -0x10(%rbp),%rsi
  405a3a:	48 8b 45 f8          	mov    -0x8(%rbp),%rax
  405a3e:	48 89 c7             	mov    %rax,%rdi
  405a41:	e8 b4 17 00 00       	callq  4071fa <_ZNSt6vectorIiSaIiEE14_M_fill_insertEN9__gnu_cxx17__normal_iteratorIPiS1_EEmRKi>
  405a46:	c9                   	leaveq 
  405a47:	c3                   	retq   

0000000000405a48 <_ZNSt6vectorIiSaIiEE15_M_erase_at_endEPi>:
  405a48:	55                   	push   %rbp
  405a49:	48 89 e5             	mov    %rsp,%rbp
  405a4c:	48 83 ec 10          	sub    $0x10,%rsp
  405a50:	48 89 7d f8          	mov    %rdi,-0x8(%rbp)
  405a54:	48 89 75 f0          	mov    %rsi,-0x10(%rbp)
  405a58:	48 8b 45 f8          	mov    -0x8(%rbp),%rax
  405a5c:	48 89 c7             	mov    %rax,%rdi
  405a5f:	e8 02 fc ff ff       	callq  405666 <_ZNSt12_Vector_baseIiSaIiEE19_M_get_Tp_allocatorEv>
  405a64:	48 89 c2             	mov    %rax,%rdx
  405a67:	48 8b 45 f8          	mov    -0x8(%rbp),%rax
  405a6b:	48 8b 48 08          	mov    0x8(%rax),%rcx
  405a6f:	48 8b 45 f0          	mov    -0x10(%rbp),%rax
  405a73:	48 89 ce             	mov    %rcx,%rsi
  405a76:	48 89 c7             	mov    %rax,%rdi
  405a79:	e8 f6 fb ff ff       	callq  405674 <_ZSt8_DestroyIPiiEvT_S1_RSaIT0_E>
  405a7e:	48 8b 45 f8          	mov    -0x8(%rbp),%rax
  405a82:	48 8b 55 f0          	mov    -0x10(%rbp),%rdx
  405a86:	48 89 50 08          	mov    %rdx,0x8(%rax)
  405a8a:	c9                   	leaveq 
  405a8b:	c3                   	retq   

0000000000405a8c <_ZSt7forwardI4areaEOT_RNSt16remove_referenceIS1_E4typeE>:
  405a8c:	55                   	push   %rbp
  405a8d:	48 89 e5             	mov    %rsp,%rbp
  405a90:	48 89 7d f8          	mov    %rdi,-0x8(%rbp)
  405a94:	48 8b 45 f8          	mov    -0x8(%rbp),%rax
  405a98:	5d                   	pop    %rbp
  405a99:	c3                   	retq   

0000000000405a9a <_ZNSt6vectorI4areaSaIS0_EE12emplace_backIIS0_EEEvDpOT_>:
  405a9a:	55                   	push   %rbp
  405a9b:	48 89 e5             	mov    %rsp,%rbp
  405a9e:	48 83 ec 10          	sub    $0x10,%rsp
  405aa2:	48 89 7d f8          	mov    %rdi,-0x8(%rbp)
  405aa6:	48 89 75 f0          	mov    %rsi,-0x10(%rbp)
  405aaa:	48 8b 45 f8          	mov    -0x8(%rbp),%rax
  405aae:	48 8b 50 08          	mov    0x8(%rax),%rdx
  405ab2:	48 8b 45 f8          	mov    -0x8(%rbp),%rax
  405ab6:	48 8b 40 10          	mov    0x10(%rax),%rax
  405aba:	48 39 c2             	cmp    %rax,%rdx
  405abd:	74 3c                	je     405afb <_ZNSt6vectorI4areaSaIS0_EE12emplace_backIIS0_EEEvDpOT_+0x61>
  405abf:	48 8b 45 f0          	mov    -0x10(%rbp),%rax
  405ac3:	48 89 c7             	mov    %rax,%rdi
  405ac6:	e8 c1 ff ff ff       	callq  405a8c <_ZSt7forwardI4areaEOT_RNSt16remove_referenceIS1_E4typeE>
  405acb:	48 89 c2             	mov    %rax,%rdx
  405ace:	48 8b 45 f8          	mov    -0x8(%rbp),%rax
  405ad2:	48 8b 48 08          	mov    0x8(%rax),%rcx
  405ad6:	48 8b 45 f8          	mov    -0x8(%rbp),%rax
  405ada:	48 89 ce             	mov    %rcx,%rsi
  405add:	48 89 c7             	mov    %rax,%rdi
  405ae0:	e8 ad 1b 00 00       	callq  407692 <_ZNSt16allocator_traitsISaI4areaEE9constructIS0_IS0_EEEDTcl12_S_constructfp_fp0_spcl7forwardIT0_Efp1_EEERS1_PT_DpOS4_>
  405ae5:	48 8b 45 f8          	mov    -0x8(%rbp),%rax
  405ae9:	48 8b 40 08          	mov    0x8(%rax),%rax
  405aed:	48 8d 50 0c          	lea    0xc(%rax),%rdx
  405af1:	48 8b 45 f8          	mov    -0x8(%rbp),%rax
  405af5:	48 89 50 08          	mov    %rdx,0x8(%rax)
  405af9:	eb 1e                	jmp    405b19 <_ZNSt6vectorI4areaSaIS0_EE12emplace_backIIS0_EEEvDpOT_+0x7f>
  405afb:	48 8b 45 f0          	mov    -0x10(%rbp),%rax
  405aff:	48 89 c7             	mov    %rax,%rdi
  405b02:	e8 85 ff ff ff       	callq  405a8c <_ZSt7forwardI4areaEOT_RNSt16remove_referenceIS1_E4typeE>
  405b07:	48 89 c2             	mov    %rax,%rdx
  405b0a:	48 8b 45 f8          	mov    -0x8(%rbp),%rax
  405b0e:	48 89 d6             	mov    %rdx,%rsi
  405b11:	48 89 c7             	mov    %rax,%rdi
  405b14:	e8 b1 1b 00 00       	callq  4076ca <_ZNSt6vectorI4areaSaIS0_EE19_M_emplace_back_auxIIS0_EEEvDpOT_>
  405b19:	c9                   	leaveq 
  405b1a:	c3                   	retq   

0000000000405b1b <_ZN9__gnu_cxxmiIP4areaSt6vectorIS1_SaIS1_EEEENS_17__normal_iteratorIT_T0_E15difference_typeERKS9_SC_>:
  405b1b:	55                   	push   %rbp
  405b1c:	48 89 e5             	mov    %rsp,%rbp
  405b1f:	53                   	push   %rbx
  405b20:	48 83 ec 18          	sub    $0x18,%rsp
  405b24:	48 89 7d e8          	mov    %rdi,-0x18(%rbp)
  405b28:	48 89 75 e0          	mov    %rsi,-0x20(%rbp)
  405b2c:	48 8b 45 e8          	mov    -0x18(%rbp),%rax
  405b30:	48 89 c7             	mov    %rax,%rdi
  405b33:	e8 14 f9 ff ff       	callq  40544c <_ZNK9__gnu_cxx17__normal_iteratorIP4areaSt6vectorIS1_SaIS1_EEE4baseEv>
  405b38:	48 8b 00             	mov    (%rax),%rax
  405b3b:	48 89 c3             	mov    %rax,%rbx
  405b3e:	48 8b 45 e0          	mov    -0x20(%rbp),%rax
  405b42:	48 89 c7             	mov    %rax,%rdi
  405b45:	e8 02 f9 ff ff       	callq  40544c <_ZNK9__gnu_cxx17__normal_iteratorIP4areaSt6vectorIS1_SaIS1_EEE4baseEv>
  405b4a:	48 8b 00             	mov    (%rax),%rax
  405b4d:	48 29 c3             	sub    %rax,%rbx
  405b50:	48 89 d8             	mov    %rbx,%rax
  405b53:	48 c1 f8 02          	sar    $0x2,%rax
  405b57:	48 89 c2             	mov    %rax,%rdx
  405b5a:	48 b8 ab aa aa aa aa 	movabs $0xaaaaaaaaaaaaaaab,%rax
  405b61:	aa aa aa 
  405b64:	48 0f af c2          	imul   %rdx,%rax
  405b68:	48 83 c4 18          	add    $0x18,%rsp
  405b6c:	5b                   	pop    %rbx
  405b6d:	5d                   	pop    %rbp
  405b6e:	c3                   	retq   

0000000000405b6f <_ZN9__gnu_cxxeqIP4areaSt6vectorIS1_SaIS1_EEEEbRKNS_17__normal_iteratorIT_T0_EESB_>:
  405b6f:	55                   	push   %rbp
  405b70:	48 89 e5             	mov    %rsp,%rbp
  405b73:	53                   	push   %rbx
  405b74:	48 83 ec 18          	sub    $0x18,%rsp
  405b78:	48 89 7d e8          	mov    %rdi,-0x18(%rbp)
  405b7c:	48 89 75 e0          	mov    %rsi,-0x20(%rbp)
  405b80:	48 8b 45 e8          	mov    -0x18(%rbp),%rax
  405b84:	48 89 c7             	mov    %rax,%rdi
  405b87:	e8 c0 f8 ff ff       	callq  40544c <_ZNK9__gnu_cxx17__normal_iteratorIP4areaSt6vectorIS1_SaIS1_EEE4baseEv>
  405b8c:	48 8b 18             	mov    (%rax),%rbx
  405b8f:	48 8b 45 e0          	mov    -0x20(%rbp),%rax
  405b93:	48 89 c7             	mov    %rax,%rdi
  405b96:	e8 b1 f8 ff ff       	callq  40544c <_ZNK9__gnu_cxx17__normal_iteratorIP4areaSt6vectorIS1_SaIS1_EEE4baseEv>
  405b9b:	48 8b 00             	mov    (%rax),%rax
  405b9e:	48 39 c3             	cmp    %rax,%rbx
  405ba1:	0f 94 c0             	sete   %al
  405ba4:	48 83 c4 18          	add    $0x18,%rsp
  405ba8:	5b                   	pop    %rbx
  405ba9:	5d                   	pop    %rbp
  405baa:	c3                   	retq   

0000000000405bab <_ZNSt16allocator_traitsISaI4areaEE9constructIS0_IRKS0_EEEDTcl12_S_constructfp_fp0_spcl7forwardIT0_Efp1_EEERS1_PT_DpOS6_>:
  405bab:	55                   	push   %rbp
  405bac:	48 89 e5             	mov    %rsp,%rbp
  405baf:	48 83 ec 20          	sub    $0x20,%rsp
  405bb3:	48 89 7d f8          	mov    %rdi,-0x8(%rbp)
  405bb7:	48 89 75 f0          	mov    %rsi,-0x10(%rbp)
  405bbb:	48 89 55 e8          	mov    %rdx,-0x18(%rbp)
  405bbf:	48 8b 45 e8          	mov    -0x18(%rbp),%rax
  405bc3:	48 89 c7             	mov    %rax,%rdi
  405bc6:	e8 88 f1 ff ff       	callq  404d53 <_ZSt7forwardIRK4areaEOT_RNSt16remove_referenceIS3_E4typeE>
  405bcb:	48 89 c2             	mov    %rax,%rdx
  405bce:	48 8b 4d f0          	mov    -0x10(%rbp),%rcx
  405bd2:	48 8b 45 f8          	mov    -0x8(%rbp),%rax
  405bd6:	48 89 ce             	mov    %rcx,%rsi
  405bd9:	48 89 c7             	mov    %rax,%rdi
  405bdc:	e8 02 1d 00 00       	callq  4078e3 <_ZNSt16allocator_traitsISaI4areaEE12_S_constructIS0_IRKS0_EEENSt9enable_ifIXsrNS2_18__construct_helperIT_IDpT0_EEE5valueEvE4typeERS1_PS8_DpOS9_>
  405be1:	c9                   	leaveq 
  405be2:	c3                   	retq   
  405be3:	90                   	nop

0000000000405be4 <_ZNSt6vectorI4areaSaIS0_EE13_M_insert_auxIIS0_EEEvN9__gnu_cxx17__normal_iteratorIPS0_S2_EEDpOT_>:
  405be4:	55                   	push   %rbp
  405be5:	48 89 e5             	mov    %rsp,%rbp
  405be8:	41 54                	push   %r12
  405bea:	53                   	push   %rbx
  405beb:	48 83 ec 50          	sub    $0x50,%rsp
  405bef:	48 89 7d b8          	mov    %rdi,-0x48(%rbp)
  405bf3:	48 89 75 b0          	mov    %rsi,-0x50(%rbp)
  405bf7:	48 89 55 a8          	mov    %rdx,-0x58(%rbp)
  405bfb:	48 8b 45 b8          	mov    -0x48(%rbp),%rax
  405bff:	48 8b 50 08          	mov    0x8(%rax),%rdx
  405c03:	48 8b 45 b8          	mov    -0x48(%rbp),%rax
  405c07:	48 8b 40 10          	mov    0x10(%rax),%rax
  405c0b:	48 39 c2             	cmp    %rax,%rdx
  405c0e:	0f 84 b6 00 00 00    	je     405cca <_ZNSt6vectorI4areaSaIS0_EE13_M_insert_auxIIS0_EEEvN9__gnu_cxx17__normal_iteratorIPS0_S2_EEDpOT_+0xe6>
  405c14:	48 8b 45 b8          	mov    -0x48(%rbp),%rax
  405c18:	48 8b 40 08          	mov    0x8(%rax),%rax
  405c1c:	48 83 e8 0c          	sub    $0xc,%rax
  405c20:	48 89 c7             	mov    %rax,%rdi
  405c23:	e8 9c f0 ff ff       	callq  404cc4 <_ZSt4moveIR4areaEONSt16remove_referenceIT_E4typeEOS3_>
  405c28:	48 89 c2             	mov    %rax,%rdx
  405c2b:	48 8b 45 b8          	mov    -0x48(%rbp),%rax
  405c2f:	48 8b 48 08          	mov    0x8(%rax),%rcx
  405c33:	48 8b 45 b8          	mov    -0x48(%rbp),%rax
  405c37:	48 89 ce             	mov    %rcx,%rsi
  405c3a:	48 89 c7             	mov    %rax,%rdi
  405c3d:	e8 50 1a 00 00       	callq  407692 <_ZNSt16allocator_traitsISaI4areaEE9constructIS0_IS0_EEEDTcl12_S_constructfp_fp0_spcl7forwardIT0_Efp1_EEERS1_PT_DpOS4_>
  405c42:	48 8b 45 b8          	mov    -0x48(%rbp),%rax
  405c46:	48 8b 40 08          	mov    0x8(%rax),%rax
  405c4a:	48 8d 50 0c          	lea    0xc(%rax),%rdx
  405c4e:	48 8b 45 b8          	mov    -0x48(%rbp),%rax
  405c52:	48 89 50 08          	mov    %rdx,0x8(%rax)
  405c56:	48 8b 45 b8          	mov    -0x48(%rbp),%rax
  405c5a:	48 8b 40 08          	mov    0x8(%rax),%rax
  405c5e:	4c 8d 60 f4          	lea    -0xc(%rax),%r12
  405c62:	48 8b 45 b8          	mov    -0x48(%rbp),%rax
  405c66:	48 8b 40 08          	mov    0x8(%rax),%rax
  405c6a:	48 8d 58 e8          	lea    -0x18(%rax),%rbx
  405c6e:	48 8d 45 b0          	lea    -0x50(%rbp),%rax
  405c72:	48 89 c7             	mov    %rax,%rdi
  405c75:	e8 d2 f7 ff ff       	callq  40544c <_ZNK9__gnu_cxx17__normal_iteratorIP4areaSt6vectorIS1_SaIS1_EEE4baseEv>
  405c7a:	48 8b 00             	mov    (%rax),%rax
  405c7d:	4c 89 e2             	mov    %r12,%rdx
  405c80:	48 89 de             	mov    %rbx,%rsi
  405c83:	48 89 c7             	mov    %rax,%rdi
  405c86:	e8 90 1c 00 00       	callq  40791b <_ZSt13move_backwardIP4areaS1_ET0_T_S3_S2_>
  405c8b:	48 8d 45 b0          	lea    -0x50(%rbp),%rax
  405c8f:	48 89 c7             	mov    %rax,%rdi
  405c92:	e8 f9 ec ff ff       	callq  404990 <_ZNK9__gnu_cxx17__normal_iteratorIP4areaSt6vectorIS1_SaIS1_EEEdeEv>
  405c97:	48 89 c3             	mov    %rax,%rbx
  405c9a:	48 8b 45 a8          	mov    -0x58(%rbp),%rax
  405c9e:	48 89 c7             	mov    %rax,%rdi
  405ca1:	e8 e6 fd ff ff       	callq  405a8c <_ZSt7forwardI4areaEOT_RNSt16remove_referenceIS1_E4typeE>
  405ca6:	48 89 c2             	mov    %rax,%rdx
  405ca9:	48 8d 45 e0          	lea    -0x20(%rbp),%rax
  405cad:	48 89 d6             	mov    %rdx,%rsi
  405cb0:	48 89 c7             	mov    %rax,%rdi
  405cb3:	e8 b6 ea ff ff       	callq  40476e <_ZN4areaC1ERKS_>
  405cb8:	48 8b 45 e0          	mov    -0x20(%rbp),%rax
  405cbc:	48 89 03             	mov    %rax,(%rbx)
  405cbf:	8b 45 e8             	mov    -0x18(%rbp),%eax
  405cc2:	89 43 08             	mov    %eax,0x8(%rbx)
  405cc5:	e9 55 02 00 00       	jmpq   405f1f <_ZNSt6vectorI4areaSaIS0_EE13_M_insert_auxIIS0_EEEvN9__gnu_cxx17__normal_iteratorIPS0_S2_EEDpOT_+0x33b>
  405cca:	48 8b 45 b8          	mov    -0x48(%rbp),%rax
  405cce:	ba c2 96 40 00       	mov    $0x4096c2,%edx
  405cd3:	be 01 00 00 00       	mov    $0x1,%esi
  405cd8:	48 89 c7             	mov    %rax,%rdi
  405cdb:	e8 82 1c 00 00       	callq  407962 <_ZNKSt6vectorI4areaSaIS0_EE12_M_check_lenEmPKc>
  405ce0:	48 89 45 c8          	mov    %rax,-0x38(%rbp)
  405ce4:	48 8b 45 b8          	mov    -0x48(%rbp),%rax
  405ce8:	48 89 c7             	mov    %rax,%rdi
  405ceb:	e8 f4 eb ff ff       	callq  4048e4 <_ZNSt6vectorI4areaSaIS0_EE5beginEv>
  405cf0:	48 89 45 e0          	mov    %rax,-0x20(%rbp)
  405cf4:	48 8d 55 e0          	lea    -0x20(%rbp),%rdx
  405cf8:	48 8d 45 b0          	lea    -0x50(%rbp),%rax
  405cfc:	48 89 d6             	mov    %rdx,%rsi
  405cff:	48 89 c7             	mov    %rax,%rdi
  405d02:	e8 14 fe ff ff       	callq  405b1b <_ZN9__gnu_cxxmiIP4areaSt6vectorIS1_SaIS1_EEEENS_17__normal_iteratorIT_T0_E15difference_typeERKS9_SC_>
  405d07:	48 89 45 d0          	mov    %rax,-0x30(%rbp)
  405d0b:	48 8b 45 b8          	mov    -0x48(%rbp),%rax
  405d0f:	48 8b 55 c8          	mov    -0x38(%rbp),%rdx
  405d13:	48 89 d6             	mov    %rdx,%rsi
  405d16:	48 89 c7             	mov    %rax,%rdi
  405d19:	e8 0e 1d 00 00       	callq  407a2c <_ZNSt12_Vector_baseI4areaSaIS0_EE11_M_allocateEm>
  405d1e:	48 89 45 d8          	mov    %rax,-0x28(%rbp)
  405d22:	48 8b 45 d8          	mov    -0x28(%rbp),%rax
  405d26:	48 89 45 c0          	mov    %rax,-0x40(%rbp)
  405d2a:	48 8b 45 a8          	mov    -0x58(%rbp),%rax
  405d2e:	48 89 c7             	mov    %rax,%rdi
  405d31:	e8 56 fd ff ff       	callq  405a8c <_ZSt7forwardI4areaEOT_RNSt16remove_referenceIS1_E4typeE>
  405d36:	48 89 c1             	mov    %rax,%rcx
  405d39:	48 8b 55 d0          	mov    -0x30(%rbp),%rdx
  405d3d:	48 89 d0             	mov    %rdx,%rax
  405d40:	48 01 c0             	add    %rax,%rax
  405d43:	48 01 d0             	add    %rdx,%rax
  405d46:	48 c1 e0 02          	shl    $0x2,%rax
  405d4a:	48 89 c2             	mov    %rax,%rdx
  405d4d:	48 8b 45 d8          	mov    -0x28(%rbp),%rax
  405d51:	48 8d 34 02          	lea    (%rdx,%rax,1),%rsi
  405d55:	48 8b 45 b8          	mov    -0x48(%rbp),%rax
  405d59:	48 89 ca             	mov    %rcx,%rdx
  405d5c:	48 89 c7             	mov    %rax,%rdi
  405d5f:	e8 2e 19 00 00       	callq  407692 <_ZNSt16allocator_traitsISaI4areaEE9constructIS0_IS0_EEEDTcl12_S_constructfp_fp0_spcl7forwardIT0_Efp1_EEERS1_PT_DpOS4_>
  405d64:	48 c7 45 c0 00 00 00 	movq   $0x0,-0x40(%rbp)
  405d6b:	00 
  405d6c:	48 8b 45 b8          	mov    -0x48(%rbp),%rax
  405d70:	48 89 c7             	mov    %rax,%rdi
  405d73:	e8 76 f7 ff ff       	callq  4054ee <_ZNSt12_Vector_baseI4areaSaIS0_EE19_M_get_Tp_allocatorEv>
  405d78:	48 89 c3             	mov    %rax,%rbx
  405d7b:	48 8d 45 b0          	lea    -0x50(%rbp),%rax
  405d7f:	48 89 c7             	mov    %rax,%rdi
  405d82:	e8 c5 f6 ff ff       	callq  40544c <_ZNK9__gnu_cxx17__normal_iteratorIP4areaSt6vectorIS1_SaIS1_EEE4baseEv>
  405d87:	48 8b 30             	mov    (%rax),%rsi
  405d8a:	48 8b 45 b8          	mov    -0x48(%rbp),%rax
  405d8e:	48 8b 00             	mov    (%rax),%rax
  405d91:	48 8b 55 d8          	mov    -0x28(%rbp),%rdx
  405d95:	48 89 d9             	mov    %rbx,%rcx
  405d98:	48 89 c7             	mov    %rax,%rdi
  405d9b:	e8 c4 1c 00 00       	callq  407a64 <_ZSt34__uninitialized_move_if_noexcept_aIP4areaS1_SaIS0_EET0_T_S4_S3_RT1_>
  405da0:	48 89 45 c0          	mov    %rax,-0x40(%rbp)
  405da4:	48 83 45 c0 0c       	addq   $0xc,-0x40(%rbp)
  405da9:	48 8b 45 b8          	mov    -0x48(%rbp),%rax
  405dad:	48 89 c7             	mov    %rax,%rdi
  405db0:	e8 39 f7 ff ff       	callq  4054ee <_ZNSt12_Vector_baseI4areaSaIS0_EE19_M_get_Tp_allocatorEv>
  405db5:	49 89 c4             	mov    %rax,%r12
  405db8:	48 8b 45 b8          	mov    -0x48(%rbp),%rax
  405dbc:	48 8b 58 08          	mov    0x8(%rax),%rbx
  405dc0:	48 8d 45 b0          	lea    -0x50(%rbp),%rax
  405dc4:	48 89 c7             	mov    %rax,%rdi
  405dc7:	e8 80 f6 ff ff       	callq  40544c <_ZNK9__gnu_cxx17__normal_iteratorIP4areaSt6vectorIS1_SaIS1_EEE4baseEv>
  405dcc:	48 8b 00             	mov    (%rax),%rax
  405dcf:	48 8b 55 c0          	mov    -0x40(%rbp),%rdx
  405dd3:	4c 89 e1             	mov    %r12,%rcx
  405dd6:	48 89 de             	mov    %rbx,%rsi
  405dd9:	48 89 c7             	mov    %rax,%rdi
  405ddc:	e8 83 1c 00 00       	callq  407a64 <_ZSt34__uninitialized_move_if_noexcept_aIP4areaS1_SaIS0_EET0_T_S4_S3_RT1_>
  405de1:	48 89 45 c0          	mov    %rax,-0x40(%rbp)
  405de5:	48 8b 45 b8          	mov    -0x48(%rbp),%rax
  405de9:	48 89 c7             	mov    %rax,%rdi
  405dec:	e8 fd f6 ff ff       	callq  4054ee <_ZNSt12_Vector_baseI4areaSaIS0_EE19_M_get_Tp_allocatorEv>
  405df1:	48 89 c2             	mov    %rax,%rdx
  405df4:	48 8b 45 b8          	mov    -0x48(%rbp),%rax
  405df8:	48 8b 48 08          	mov    0x8(%rax),%rcx
  405dfc:	48 8b 45 b8          	mov    -0x48(%rbp),%rax
  405e00:	48 8b 00             	mov    (%rax),%rax
  405e03:	48 89 ce             	mov    %rcx,%rsi
  405e06:	48 89 c7             	mov    %rax,%rdi
  405e09:	e8 ee f6 ff ff       	callq  4054fc <_ZSt8_DestroyIP4areaS0_EvT_S2_RSaIT0_E>
  405e0e:	48 8b 45 b8          	mov    -0x48(%rbp),%rax
  405e12:	48 8b 40 10          	mov    0x10(%rax),%rax
  405e16:	48 89 c2             	mov    %rax,%rdx
  405e19:	48 8b 45 b8          	mov    -0x48(%rbp),%rax
  405e1d:	48 8b 00             	mov    (%rax),%rax
  405e20:	48 29 c2             	sub    %rax,%rdx
  405e23:	48 89 d0             	mov    %rdx,%rax
  405e26:	48 c1 f8 02          	sar    $0x2,%rax
  405e2a:	48 89 c2             	mov    %rax,%rdx
  405e2d:	48 b8 ab aa aa aa aa 	movabs $0xaaaaaaaaaaaaaaab,%rax
  405e34:	aa aa aa 
  405e37:	48 0f af c2          	imul   %rdx,%rax
  405e3b:	48 89 c2             	mov    %rax,%rdx
  405e3e:	48 8b 45 b8          	mov    -0x48(%rbp),%rax
  405e42:	48 8b 08             	mov    (%rax),%rcx
  405e45:	48 8b 45 b8          	mov    -0x48(%rbp),%rax
  405e49:	48 89 ce             	mov    %rcx,%rsi
  405e4c:	48 89 c7             	mov    %rax,%rdi
  405e4f:	e8 88 09 00 00       	callq  4067dc <_ZNSt12_Vector_baseI4areaSaIS0_EE13_M_deallocateEPS0_m>
  405e54:	48 8b 45 b8          	mov    -0x48(%rbp),%rax
  405e58:	48 8b 55 d8          	mov    -0x28(%rbp),%rdx
  405e5c:	48 89 10             	mov    %rdx,(%rax)
  405e5f:	48 8b 45 b8          	mov    -0x48(%rbp),%rax
  405e63:	48 8b 55 c0          	mov    -0x40(%rbp),%rdx
  405e67:	48 89 50 08          	mov    %rdx,0x8(%rax)
  405e6b:	48 8b 55 c8          	mov    -0x38(%rbp),%rdx
  405e6f:	48 89 d0             	mov    %rdx,%rax
  405e72:	48 01 c0             	add    %rax,%rax
  405e75:	48 01 d0             	add    %rdx,%rax
  405e78:	48 c1 e0 02          	shl    $0x2,%rax
  405e7c:	48 89 c2             	mov    %rax,%rdx
  405e7f:	48 8b 45 d8          	mov    -0x28(%rbp),%rax
  405e83:	48 01 c2             	add    %rax,%rdx
  405e86:	48 8b 45 b8          	mov    -0x48(%rbp),%rax
  405e8a:	48 89 50 10          	mov    %rdx,0x10(%rax)
  405e8e:	e9 8c 00 00 00       	jmpq   405f1f <_ZNSt6vectorI4areaSaIS0_EE13_M_insert_auxIIS0_EEEvN9__gnu_cxx17__normal_iteratorIPS0_S2_EEDpOT_+0x33b>
  405e93:	48 89 c3             	mov    %rax,%rbx
  405e96:	e8 65 b2 ff ff       	callq  401100 <__cxa_end_catch@plt>
  405e9b:	48 89 d8             	mov    %rbx,%rax
  405e9e:	48 89 c7             	mov    %rax,%rdi
  405ea1:	e8 ea b2 ff ff       	callq  401190 <_Unwind_Resume@plt>
  405ea6:	48 89 c7             	mov    %rax,%rdi
  405ea9:	e8 72 b2 ff ff       	callq  401120 <__cxa_begin_catch@plt>
  405eae:	48 83 7d c0 00       	cmpq   $0x0,-0x40(%rbp)
  405eb3:	75 2c                	jne    405ee1 <_ZNSt6vectorI4areaSaIS0_EE13_M_insert_auxIIS0_EEEvN9__gnu_cxx17__normal_iteratorIPS0_S2_EEDpOT_+0x2fd>
  405eb5:	48 8b 55 d0          	mov    -0x30(%rbp),%rdx
  405eb9:	48 89 d0             	mov    %rdx,%rax
  405ebc:	48 01 c0             	add    %rax,%rax
  405ebf:	48 01 d0             	add    %rdx,%rax
  405ec2:	48 c1 e0 02          	shl    $0x2,%rax
  405ec6:	48 89 c2             	mov    %rax,%rdx
  405ec9:	48 8b 45 d8          	mov    -0x28(%rbp),%rax
  405ecd:	48 01 c2             	add    %rax,%rdx
  405ed0:	48 8b 45 b8          	mov    -0x48(%rbp),%rax
  405ed4:	48 89 d6             	mov    %rdx,%rsi
  405ed7:	48 89 c7             	mov    %rax,%rdi
  405eda:	e8 9d 04 00 00       	callq  40637c <_ZNSt16allocator_traitsISaI4areaEE7destroyIS0_EEvRS1_PT_>
  405edf:	eb 22                	jmp    405f03 <_ZNSt6vectorI4areaSaIS0_EE13_M_insert_auxIIS0_EEEvN9__gnu_cxx17__normal_iteratorIPS0_S2_EEDpOT_+0x31f>
  405ee1:	48 8b 45 b8          	mov    -0x48(%rbp),%rax
  405ee5:	48 89 c7             	mov    %rax,%rdi
  405ee8:	e8 01 f6 ff ff       	callq  4054ee <_ZNSt12_Vector_baseI4areaSaIS0_EE19_M_get_Tp_allocatorEv>
  405eed:	48 89 c2             	mov    %rax,%rdx
  405ef0:	48 8b 4d c0          	mov    -0x40(%rbp),%rcx
  405ef4:	48 8b 45 d8          	mov    -0x28(%rbp),%rax
  405ef8:	48 89 ce             	mov    %rcx,%rsi
  405efb:	48 89 c7             	mov    %rax,%rdi
  405efe:	e8 f9 f5 ff ff       	callq  4054fc <_ZSt8_DestroyIP4areaS0_EvT_S2_RSaIT0_E>
  405f03:	48 8b 45 b8          	mov    -0x48(%rbp),%rax
  405f07:	48 8b 55 c8          	mov    -0x38(%rbp),%rdx
  405f0b:	48 8b 4d d8          	mov    -0x28(%rbp),%rcx
  405f0f:	48 89 ce             	mov    %rcx,%rsi
  405f12:	48 89 c7             	mov    %rax,%rdi
  405f15:	e8 c2 08 00 00       	callq  4067dc <_ZNSt12_Vector_baseI4areaSaIS0_EE13_M_deallocateEPS0_m>
  405f1a:	e8 c1 b0 ff ff       	callq  400fe0 <__cxa_rethrow@plt>
  405f1f:	48 83 c4 50          	add    $0x50,%rsp
  405f23:	5b                   	pop    %rbx
  405f24:	41 5c                	pop    %r12
  405f26:	5d                   	pop    %rbp
  405f27:	c3                   	retq   

0000000000405f28 <_ZNSt6vectorI4areaSaIS0_EE13_M_insert_auxIIRKS0_EEEvN9__gnu_cxx17__normal_iteratorIPS0_S2_EEDpOT_>:
  405f28:	55                   	push   %rbp
  405f29:	48 89 e5             	mov    %rsp,%rbp
  405f2c:	41 54                	push   %r12
  405f2e:	53                   	push   %rbx
  405f2f:	48 83 ec 50          	sub    $0x50,%rsp
  405f33:	48 89 7d b8          	mov    %rdi,-0x48(%rbp)
  405f37:	48 89 75 b0          	mov    %rsi,-0x50(%rbp)
  405f3b:	48 89 55 a8          	mov    %rdx,-0x58(%rbp)
  405f3f:	48 8b 45 b8          	mov    -0x48(%rbp),%rax
  405f43:	48 8b 50 08          	mov    0x8(%rax),%rdx
  405f47:	48 8b 45 b8          	mov    -0x48(%rbp),%rax
  405f4b:	48 8b 40 10          	mov    0x10(%rax),%rax
  405f4f:	48 39 c2             	cmp    %rax,%rdx
  405f52:	0f 84 b6 00 00 00    	je     40600e <_ZNSt6vectorI4areaSaIS0_EE13_M_insert_auxIIRKS0_EEEvN9__gnu_cxx17__normal_iteratorIPS0_S2_EEDpOT_+0xe6>
  405f58:	48 8b 45 b8          	mov    -0x48(%rbp),%rax
  405f5c:	48 8b 40 08          	mov    0x8(%rax),%rax
  405f60:	48 83 e8 0c          	sub    $0xc,%rax
  405f64:	48 89 c7             	mov    %rax,%rdi
  405f67:	e8 58 ed ff ff       	callq  404cc4 <_ZSt4moveIR4areaEONSt16remove_referenceIT_E4typeEOS3_>
  405f6c:	48 89 c2             	mov    %rax,%rdx
  405f6f:	48 8b 45 b8          	mov    -0x48(%rbp),%rax
  405f73:	48 8b 48 08          	mov    0x8(%rax),%rcx
  405f77:	48 8b 45 b8          	mov    -0x48(%rbp),%rax
  405f7b:	48 89 ce             	mov    %rcx,%rsi
  405f7e:	48 89 c7             	mov    %rax,%rdi
  405f81:	e8 0c 17 00 00       	callq  407692 <_ZNSt16allocator_traitsISaI4areaEE9constructIS0_IS0_EEEDTcl12_S_constructfp_fp0_spcl7forwardIT0_Efp1_EEERS1_PT_DpOS4_>
  405f86:	48 8b 45 b8          	mov    -0x48(%rbp),%rax
  405f8a:	48 8b 40 08          	mov    0x8(%rax),%rax
  405f8e:	48 8d 50 0c          	lea    0xc(%rax),%rdx
  405f92:	48 8b 45 b8          	mov    -0x48(%rbp),%rax
  405f96:	48 89 50 08          	mov    %rdx,0x8(%rax)
  405f9a:	48 8b 45 b8          	mov    -0x48(%rbp),%rax
  405f9e:	48 8b 40 08          	mov    0x8(%rax),%rax
  405fa2:	4c 8d 60 f4          	lea    -0xc(%rax),%r12
  405fa6:	48 8b 45 b8          	mov    -0x48(%rbp),%rax
  405faa:	48 8b 40 08          	mov    0x8(%rax),%rax
  405fae:	48 8d 58 e8          	lea    -0x18(%rax),%rbx
  405fb2:	48 8d 45 b0          	lea    -0x50(%rbp),%rax
  405fb6:	48 89 c7             	mov    %rax,%rdi
  405fb9:	e8 8e f4 ff ff       	callq  40544c <_ZNK9__gnu_cxx17__normal_iteratorIP4areaSt6vectorIS1_SaIS1_EEE4baseEv>
  405fbe:	48 8b 00             	mov    (%rax),%rax
  405fc1:	4c 89 e2             	mov    %r12,%rdx
  405fc4:	48 89 de             	mov    %rbx,%rsi
  405fc7:	48 89 c7             	mov    %rax,%rdi
  405fca:	e8 4c 19 00 00       	callq  40791b <_ZSt13move_backwardIP4areaS1_ET0_T_S3_S2_>
  405fcf:	48 8d 45 b0          	lea    -0x50(%rbp),%rax
  405fd3:	48 89 c7             	mov    %rax,%rdi
  405fd6:	e8 b5 e9 ff ff       	callq  404990 <_ZNK9__gnu_cxx17__normal_iteratorIP4areaSt6vectorIS1_SaIS1_EEEdeEv>
  405fdb:	48 89 c3             	mov    %rax,%rbx
  405fde:	48 8b 45 a8          	mov    -0x58(%rbp),%rax
  405fe2:	48 89 c7             	mov    %rax,%rdi
  405fe5:	e8 69 ed ff ff       	callq  404d53 <_ZSt7forwardIRK4areaEOT_RNSt16remove_referenceIS3_E4typeE>
  405fea:	48 89 c2             	mov    %rax,%rdx
  405fed:	48 8d 45 e0          	lea    -0x20(%rbp),%rax
  405ff1:	48 89 d6             	mov    %rdx,%rsi
  405ff4:	48 89 c7             	mov    %rax,%rdi
  405ff7:	e8 72 e7 ff ff       	callq  40476e <_ZN4areaC1ERKS_>
  405ffc:	48 8b 45 e0          	mov    -0x20(%rbp),%rax
  406000:	48 89 03             	mov    %rax,(%rbx)
  406003:	8b 45 e8             	mov    -0x18(%rbp),%eax
  406006:	89 43 08             	mov    %eax,0x8(%rbx)
  406009:	e9 55 02 00 00       	jmpq   406263 <_ZNSt6vectorI4areaSaIS0_EE13_M_insert_auxIIRKS0_EEEvN9__gnu_cxx17__normal_iteratorIPS0_S2_EEDpOT_+0x33b>
  40600e:	48 8b 45 b8          	mov    -0x48(%rbp),%rax
  406012:	ba c2 96 40 00       	mov    $0x4096c2,%edx
  406017:	be 01 00 00 00       	mov    $0x1,%esi
  40601c:	48 89 c7             	mov    %rax,%rdi
  40601f:	e8 3e 19 00 00       	callq  407962 <_ZNKSt6vectorI4areaSaIS0_EE12_M_check_lenEmPKc>
  406024:	48 89 45 c8          	mov    %rax,-0x38(%rbp)
  406028:	48 8b 45 b8          	mov    -0x48(%rbp),%rax
  40602c:	48 89 c7             	mov    %rax,%rdi
  40602f:	e8 b0 e8 ff ff       	callq  4048e4 <_ZNSt6vectorI4areaSaIS0_EE5beginEv>
  406034:	48 89 45 e0          	mov    %rax,-0x20(%rbp)
  406038:	48 8d 55 e0          	lea    -0x20(%rbp),%rdx
  40603c:	48 8d 45 b0          	lea    -0x50(%rbp),%rax
  406040:	48 89 d6             	mov    %rdx,%rsi
  406043:	48 89 c7             	mov    %rax,%rdi
  406046:	e8 d0 fa ff ff       	callq  405b1b <_ZN9__gnu_cxxmiIP4areaSt6vectorIS1_SaIS1_EEEENS_17__normal_iteratorIT_T0_E15difference_typeERKS9_SC_>
  40604b:	48 89 45 d0          	mov    %rax,-0x30(%rbp)
  40604f:	48 8b 45 b8          	mov    -0x48(%rbp),%rax
  406053:	48 8b 55 c8          	mov    -0x38(%rbp),%rdx
  406057:	48 89 d6             	mov    %rdx,%rsi
  40605a:	48 89 c7             	mov    %rax,%rdi
  40605d:	e8 ca 19 00 00       	callq  407a2c <_ZNSt12_Vector_baseI4areaSaIS0_EE11_M_allocateEm>
  406062:	48 89 45 d8          	mov    %rax,-0x28(%rbp)
  406066:	48 8b 45 d8          	mov    -0x28(%rbp),%rax
  40606a:	48 89 45 c0          	mov    %rax,-0x40(%rbp)
  40606e:	48 8b 45 a8          	mov    -0x58(%rbp),%rax
  406072:	48 89 c7             	mov    %rax,%rdi
  406075:	e8 d9 ec ff ff       	callq  404d53 <_ZSt7forwardIRK4areaEOT_RNSt16remove_referenceIS3_E4typeE>
  40607a:	48 89 c1             	mov    %rax,%rcx
  40607d:	48 8b 55 d0          	mov    -0x30(%rbp),%rdx
  406081:	48 89 d0             	mov    %rdx,%rax
  406084:	48 01 c0             	add    %rax,%rax
  406087:	48 01 d0             	add    %rdx,%rax
  40608a:	48 c1 e0 02          	shl    $0x2,%rax
  40608e:	48 89 c2             	mov    %rax,%rdx
  406091:	48 8b 45 d8          	mov    -0x28(%rbp),%rax
  406095:	48 8d 34 02          	lea    (%rdx,%rax,1),%rsi
  406099:	48 8b 45 b8          	mov    -0x48(%rbp),%rax
  40609d:	48 89 ca             	mov    %rcx,%rdx
  4060a0:	48 89 c7             	mov    %rax,%rdi
  4060a3:	e8 03 fb ff ff       	callq  405bab <_ZNSt16allocator_traitsISaI4areaEE9constructIS0_IRKS0_EEEDTcl12_S_constructfp_fp0_spcl7forwardIT0_Efp1_EEERS1_PT_DpOS6_>
  4060a8:	48 c7 45 c0 00 00 00 	movq   $0x0,-0x40(%rbp)
  4060af:	00 
  4060b0:	48 8b 45 b8          	mov    -0x48(%rbp),%rax
  4060b4:	48 89 c7             	mov    %rax,%rdi
  4060b7:	e8 32 f4 ff ff       	callq  4054ee <_ZNSt12_Vector_baseI4areaSaIS0_EE19_M_get_Tp_allocatorEv>
  4060bc:	48 89 c3             	mov    %rax,%rbx
  4060bf:	48 8d 45 b0          	lea    -0x50(%rbp),%rax
  4060c3:	48 89 c7             	mov    %rax,%rdi
  4060c6:	e8 81 f3 ff ff       	callq  40544c <_ZNK9__gnu_cxx17__normal_iteratorIP4areaSt6vectorIS1_SaIS1_EEE4baseEv>
  4060cb:	48 8b 30             	mov    (%rax),%rsi
  4060ce:	48 8b 45 b8          	mov    -0x48(%rbp),%rax
  4060d2:	48 8b 00             	mov    (%rax),%rax
  4060d5:	48 8b 55 d8          	mov    -0x28(%rbp),%rdx
  4060d9:	48 89 d9             	mov    %rbx,%rcx
  4060dc:	48 89 c7             	mov    %rax,%rdi
  4060df:	e8 80 19 00 00       	callq  407a64 <_ZSt34__uninitialized_move_if_noexcept_aIP4areaS1_SaIS0_EET0_T_S4_S3_RT1_>
  4060e4:	48 89 45 c0          	mov    %rax,-0x40(%rbp)
  4060e8:	48 83 45 c0 0c       	addq   $0xc,-0x40(%rbp)
  4060ed:	48 8b 45 b8          	mov    -0x48(%rbp),%rax
  4060f1:	48 89 c7             	mov    %rax,%rdi
  4060f4:	e8 f5 f3 ff ff       	callq  4054ee <_ZNSt12_Vector_baseI4areaSaIS0_EE19_M_get_Tp_allocatorEv>
  4060f9:	49 89 c4             	mov    %rax,%r12
  4060fc:	48 8b 45 b8          	mov    -0x48(%rbp),%rax
  406100:	48 8b 58 08          	mov    0x8(%rax),%rbx
  406104:	48 8d 45 b0          	lea    -0x50(%rbp),%rax
  406108:	48 89 c7             	mov    %rax,%rdi
  40610b:	e8 3c f3 ff ff       	callq  40544c <_ZNK9__gnu_cxx17__normal_iteratorIP4areaSt6vectorIS1_SaIS1_EEE4baseEv>
  406110:	48 8b 00             	mov    (%rax),%rax
  406113:	48 8b 55 c0          	mov    -0x40(%rbp),%rdx
  406117:	4c 89 e1             	mov    %r12,%rcx
  40611a:	48 89 de             	mov    %rbx,%rsi
  40611d:	48 89 c7             	mov    %rax,%rdi
  406120:	e8 3f 19 00 00       	callq  407a64 <_ZSt34__uninitialized_move_if_noexcept_aIP4areaS1_SaIS0_EET0_T_S4_S3_RT1_>
  406125:	48 89 45 c0          	mov    %rax,-0x40(%rbp)
  406129:	48 8b 45 b8          	mov    -0x48(%rbp),%rax
  40612d:	48 89 c7             	mov    %rax,%rdi
  406130:	e8 b9 f3 ff ff       	callq  4054ee <_ZNSt12_Vector_baseI4areaSaIS0_EE19_M_get_Tp_allocatorEv>
  406135:	48 89 c2             	mov    %rax,%rdx
  406138:	48 8b 45 b8          	mov    -0x48(%rbp),%rax
  40613c:	48 8b 48 08          	mov    0x8(%rax),%rcx
  406140:	48 8b 45 b8          	mov    -0x48(%rbp),%rax
  406144:	48 8b 00             	mov    (%rax),%rax
  406147:	48 89 ce             	mov    %rcx,%rsi
  40614a:	48 89 c7             	mov    %rax,%rdi
  40614d:	e8 aa f3 ff ff       	callq  4054fc <_ZSt8_DestroyIP4areaS0_EvT_S2_RSaIT0_E>
  406152:	48 8b 45 b8          	mov    -0x48(%rbp),%rax
  406156:	48 8b 40 10          	mov    0x10(%rax),%rax
  40615a:	48 89 c2             	mov    %rax,%rdx
  40615d:	48 8b 45 b8          	mov    -0x48(%rbp),%rax
  406161:	48 8b 00             	mov    (%rax),%rax
  406164:	48 29 c2             	sub    %rax,%rdx
  406167:	48 89 d0             	mov    %rdx,%rax
  40616a:	48 c1 f8 02          	sar    $0x2,%rax
  40616e:	48 89 c2             	mov    %rax,%rdx
  406171:	48 b8 ab aa aa aa aa 	movabs $0xaaaaaaaaaaaaaaab,%rax
  406178:	aa aa aa 
  40617b:	48 0f af c2          	imul   %rdx,%rax
  40617f:	48 89 c2             	mov    %rax,%rdx
  406182:	48 8b 45 b8          	mov    -0x48(%rbp),%rax
  406186:	48 8b 08             	mov    (%rax),%rcx
  406189:	48 8b 45 b8          	mov    -0x48(%rbp),%rax
  40618d:	48 89 ce             	mov    %rcx,%rsi
  406190:	48 89 c7             	mov    %rax,%rdi
  406193:	e8 44 06 00 00       	callq  4067dc <_ZNSt12_Vector_baseI4areaSaIS0_EE13_M_deallocateEPS0_m>
  406198:	48 8b 45 b8          	mov    -0x48(%rbp),%rax
  40619c:	48 8b 55 d8          	mov    -0x28(%rbp),%rdx
  4061a0:	48 89 10             	mov    %rdx,(%rax)
  4061a3:	48 8b 45 b8          	mov    -0x48(%rbp),%rax
  4061a7:	48 8b 55 c0          	mov    -0x40(%rbp),%rdx
  4061ab:	48 89 50 08          	mov    %rdx,0x8(%rax)
  4061af:	48 8b 55 c8          	mov    -0x38(%rbp),%rdx
  4061b3:	48 89 d0             	mov    %rdx,%rax
  4061b6:	48 01 c0             	add    %rax,%rax
  4061b9:	48 01 d0             	add    %rdx,%rax
  4061bc:	48 c1 e0 02          	shl    $0x2,%rax
  4061c0:	48 89 c2             	mov    %rax,%rdx
  4061c3:	48 8b 45 d8          	mov    -0x28(%rbp),%rax
  4061c7:	48 01 c2             	add    %rax,%rdx
  4061ca:	48 8b 45 b8          	mov    -0x48(%rbp),%rax
  4061ce:	48 89 50 10          	mov    %rdx,0x10(%rax)
  4061d2:	e9 8c 00 00 00       	jmpq   406263 <_ZNSt6vectorI4areaSaIS0_EE13_M_insert_auxIIRKS0_EEEvN9__gnu_cxx17__normal_iteratorIPS0_S2_EEDpOT_+0x33b>
  4061d7:	48 89 c3             	mov    %rax,%rbx
  4061da:	e8 21 af ff ff       	callq  401100 <__cxa_end_catch@plt>
  4061df:	48 89 d8             	mov    %rbx,%rax
  4061e2:	48 89 c7             	mov    %rax,%rdi
  4061e5:	e8 a6 af ff ff       	callq  401190 <_Unwind_Resume@plt>
  4061ea:	48 89 c7             	mov    %rax,%rdi
  4061ed:	e8 2e af ff ff       	callq  401120 <__cxa_begin_catch@plt>
  4061f2:	48 83 7d c0 00       	cmpq   $0x0,-0x40(%rbp)
  4061f7:	75 2c                	jne    406225 <_ZNSt6vectorI4areaSaIS0_EE13_M_insert_auxIIRKS0_EEEvN9__gnu_cxx17__normal_iteratorIPS0_S2_EEDpOT_+0x2fd>
  4061f9:	48 8b 55 d0          	mov    -0x30(%rbp),%rdx
  4061fd:	48 89 d0             	mov    %rdx,%rax
  406200:	48 01 c0             	add    %rax,%rax
  406203:	48 01 d0             	add    %rdx,%rax
  406206:	48 c1 e0 02          	shl    $0x2,%rax
  40620a:	48 89 c2             	mov    %rax,%rdx
  40620d:	48 8b 45 d8          	mov    -0x28(%rbp),%rax
  406211:	48 01 c2             	add    %rax,%rdx
  406214:	48 8b 45 b8          	mov    -0x48(%rbp),%rax
  406218:	48 89 d6             	mov    %rdx,%rsi
  40621b:	48 89 c7             	mov    %rax,%rdi
  40621e:	e8 59 01 00 00       	callq  40637c <_ZNSt16allocator_traitsISaI4areaEE7destroyIS0_EEvRS1_PT_>
  406223:	eb 22                	jmp    406247 <_ZNSt6vectorI4areaSaIS0_EE13_M_insert_auxIIRKS0_EEEvN9__gnu_cxx17__normal_iteratorIPS0_S2_EEDpOT_+0x31f>
  406225:	48 8b 45 b8          	mov    -0x48(%rbp),%rax
  406229:	48 89 c7             	mov    %rax,%rdi
  40622c:	e8 bd f2 ff ff       	callq  4054ee <_ZNSt12_Vector_baseI4areaSaIS0_EE19_M_get_Tp_allocatorEv>
  406231:	48 89 c2             	mov    %rax,%rdx
  406234:	48 8b 4d c0          	mov    -0x40(%rbp),%rcx
  406238:	48 8b 45 d8          	mov    -0x28(%rbp),%rax
  40623c:	48 89 ce             	mov    %rcx,%rsi
  40623f:	48 89 c7             	mov    %rax,%rdi
  406242:	e8 b5 f2 ff ff       	callq  4054fc <_ZSt8_DestroyIP4areaS0_EvT_S2_RSaIT0_E>
  406247:	48 8b 45 b8          	mov    -0x48(%rbp),%rax
  40624b:	48 8b 55 c8          	mov    -0x38(%rbp),%rdx
  40624f:	48 8b 4d d8          	mov    -0x28(%rbp),%rcx
  406253:	48 89 ce             	mov    %rcx,%rsi
  406256:	48 89 c7             	mov    %rax,%rdi
  406259:	e8 7e 05 00 00       	callq  4067dc <_ZNSt12_Vector_baseI4areaSaIS0_EE13_M_deallocateEPS0_m>
  40625e:	e8 7d ad ff ff       	callq  400fe0 <__cxa_rethrow@plt>
  406263:	48 83 c4 50          	add    $0x50,%rsp
  406267:	5b                   	pop    %rbx
  406268:	41 5c                	pop    %r12
  40626a:	5d                   	pop    %rbp
  40626b:	c3                   	retq   

000000000040626c <_ZSt8distanceIN9__gnu_cxx17__normal_iteratorIP4areaSt6vectorIS2_SaIS2_EEEEENSt15iterator_traitsIT_E15difference_typeES9_S9_>:
  40626c:	55                   	push   %rbp
  40626d:	48 89 e5             	mov    %rsp,%rbp
  406270:	53                   	push   %rbx
  406271:	48 83 ec 48          	sub    $0x48,%rsp
  406275:	48 89 7d d0          	mov    %rdi,-0x30(%rbp)
  406279:	48 89 75 c0          	mov    %rsi,-0x40(%rbp)
  40627d:	48 8d 45 d0          	lea    -0x30(%rbp),%rax
  406281:	48 89 c7             	mov    %rax,%rdi
  406284:	e8 29 18 00 00       	callq  407ab2 <_ZSt19__iterator_categoryIN9__gnu_cxx17__normal_iteratorIP4areaSt6vectorIS2_SaIS2_EEEEENSt15iterator_traitsIT_E17iterator_categoryERKS9_>
  406289:	48 8b 55 c0          	mov    -0x40(%rbp),%rdx
  40628d:	48 8b 45 d0          	mov    -0x30(%rbp),%rax
  406291:	88 1c 24             	mov    %bl,(%rsp)
  406294:	48 89 d6             	mov    %rdx,%rsi
  406297:	48 89 c7             	mov    %rax,%rdi
  40629a:	e8 1d 18 00 00       	callq  407abc <_ZSt10__distanceIN9__gnu_cxx17__normal_iteratorIP4areaSt6vectorIS2_SaIS2_EEEEENSt15iterator_traitsIT_E15difference_typeES9_S9_St26random_access_iterator_tag>
  40629f:	48 83 c4 48          	add    $0x48,%rsp
  4062a3:	5b                   	pop    %rbx
  4062a4:	5d                   	pop    %rbp
  4062a5:	c3                   	retq   

00000000004062a6 <_ZSt7advanceIN9__gnu_cxx17__normal_iteratorIP4areaSt6vectorIS2_SaIS2_EEEElEvRT_T0_>:
  4062a6:	55                   	push   %rbp
  4062a7:	48 89 e5             	mov    %rsp,%rbp
  4062aa:	53                   	push   %rbx
  4062ab:	48 83 ec 38          	sub    $0x38,%rsp
  4062af:	48 89 7d d8          	mov    %rdi,-0x28(%rbp)
  4062b3:	48 89 75 d0          	mov    %rsi,-0x30(%rbp)
  4062b7:	48 8b 45 d0          	mov    -0x30(%rbp),%rax
  4062bb:	48 89 45 e8          	mov    %rax,-0x18(%rbp)
  4062bf:	48 8b 45 d8          	mov    -0x28(%rbp),%rax
  4062c3:	48 89 c7             	mov    %rax,%rdi
  4062c6:	e8 e7 17 00 00       	callq  407ab2 <_ZSt19__iterator_categoryIN9__gnu_cxx17__normal_iteratorIP4areaSt6vectorIS2_SaIS2_EEEEENSt15iterator_traitsIT_E17iterator_categoryERKS9_>
  4062cb:	48 8b 55 e8          	mov    -0x18(%rbp),%rdx
  4062cf:	48 8b 45 d8          	mov    -0x28(%rbp),%rax
  4062d3:	88 1c 24             	mov    %bl,(%rsp)
  4062d6:	48 89 d6             	mov    %rdx,%rsi
  4062d9:	48 89 c7             	mov    %rax,%rdi
  4062dc:	e8 00 18 00 00       	callq  407ae1 <_ZSt9__advanceIN9__gnu_cxx17__normal_iteratorIP4areaSt6vectorIS2_SaIS2_EEEElEvRT_T0_St26random_access_iterator_tag>
  4062e1:	48 83 c4 38          	add    $0x38,%rsp
  4062e5:	5b                   	pop    %rbx
  4062e6:	5d                   	pop    %rbp
  4062e7:	c3                   	retq   

00000000004062e8 <_ZNK9__gnu_cxx17__normal_iteratorIP4areaSt6vectorIS1_SaIS1_EEEplERKl>:
  4062e8:	55                   	push   %rbp
  4062e9:	48 89 e5             	mov    %rsp,%rbp
  4062ec:	48 83 ec 20          	sub    $0x20,%rsp
  4062f0:	48 89 7d e8          	mov    %rdi,-0x18(%rbp)
  4062f4:	48 89 75 e0          	mov    %rsi,-0x20(%rbp)
  4062f8:	48 8b 45 e8          	mov    -0x18(%rbp),%rax
  4062fc:	48 8b 08             	mov    (%rax),%rcx
  4062ff:	48 8b 45 e0          	mov    -0x20(%rbp),%rax
  406303:	48 8b 00             	mov    (%rax),%rax
  406306:	48 89 c2             	mov    %rax,%rdx
  406309:	48 89 d0             	mov    %rdx,%rax
  40630c:	48 01 c0             	add    %rax,%rax
  40630f:	48 01 d0             	add    %rdx,%rax
  406312:	48 c1 e0 02          	shl    $0x2,%rax
  406316:	48 01 c8             	add    %rcx,%rax
  406319:	48 89 45 f8          	mov    %rax,-0x8(%rbp)
  40631d:	48 8d 55 f8          	lea    -0x8(%rbp),%rdx
  406321:	48 8d 45 f0          	lea    -0x10(%rbp),%rax
  406325:	48 89 d6             	mov    %rdx,%rsi
  406328:	48 89 c7             	mov    %rax,%rdi
  40632b:	e8 00 f1 ff ff       	callq  405430 <_ZN9__gnu_cxx17__normal_iteratorIP4areaSt6vectorIS1_SaIS1_EEEC1ERKS2_>
  406330:	48 8b 45 f0          	mov    -0x10(%rbp),%rax
  406334:	c9                   	leaveq 
  406335:	c3                   	retq   

0000000000406336 <_ZSt4moveIN9__gnu_cxx17__normal_iteratorIP4areaSt6vectorIS2_SaIS2_EEEES7_ET0_T_S9_S8_>:
  406336:	55                   	push   %rbp
  406337:	48 89 e5             	mov    %rsp,%rbp
  40633a:	53                   	push   %rbx
  40633b:	48 83 ec 38          	sub    $0x38,%rsp
  40633f:	48 89 7d e0          	mov    %rdi,-0x20(%rbp)
  406343:	48 89 75 d0          	mov    %rsi,-0x30(%rbp)
  406347:	48 89 55 c0          	mov    %rdx,-0x40(%rbp)
  40634b:	48 8b 45 d0          	mov    -0x30(%rbp),%rax
  40634f:	48 89 c7             	mov    %rax,%rdi
  406352:	e8 af 17 00 00       	callq  407b06 <_ZSt12__miter_baseIN9__gnu_cxx17__normal_iteratorIP4areaSt6vectorIS2_SaIS2_EEEEENSt11_Miter_baseIT_E13iterator_typeES9_>
  406357:	48 89 c3             	mov    %rax,%rbx
  40635a:	48 8b 45 e0          	mov    -0x20(%rbp),%rax
  40635e:	48 89 c7             	mov    %rax,%rdi
  406361:	e8 a0 17 00 00       	callq  407b06 <_ZSt12__miter_baseIN9__gnu_cxx17__normal_iteratorIP4areaSt6vectorIS2_SaIS2_EEEEENSt11_Miter_baseIT_E13iterator_typeES9_>
  406366:	48 8b 55 c0          	mov    -0x40(%rbp),%rdx
  40636a:	48 89 de             	mov    %rbx,%rsi
  40636d:	48 89 c7             	mov    %rax,%rdi
  406370:	e8 ab 17 00 00       	callq  407b20 <_ZSt14__copy_move_a2ILb1EN9__gnu_cxx17__normal_iteratorIP4areaSt6vectorIS2_SaIS2_EEEES7_ET1_T0_S9_S8_>
  406375:	48 83 c4 38          	add    $0x38,%rsp
  406379:	5b                   	pop    %rbx
  40637a:	5d                   	pop    %rbp
  40637b:	c3                   	retq   

000000000040637c <_ZNSt16allocator_traitsISaI4areaEE7destroyIS0_EEvRS1_PT_>:
  40637c:	55                   	push   %rbp
  40637d:	48 89 e5             	mov    %rsp,%rbp
  406380:	48 83 ec 10          	sub    $0x10,%rsp
  406384:	48 89 7d f8          	mov    %rdi,-0x8(%rbp)
  406388:	48 89 75 f0          	mov    %rsi,-0x10(%rbp)
  40638c:	48 8b 55 f0          	mov    -0x10(%rbp),%rdx
  406390:	48 8b 45 f8          	mov    -0x8(%rbp),%rax
  406394:	48 89 d6             	mov    %rdx,%rsi
  406397:	48 89 c7             	mov    %rax,%rdi
  40639a:	e8 f4 17 00 00       	callq  407b93 <_ZNSt16allocator_traitsISaI4areaEE10_S_destroyIS0_EENSt9enable_ifIXsrNS2_16__destroy_helperIT_EE5valueEvE4typeERS1_PS6_>
  40639f:	c9                   	leaveq 
  4063a0:	c3                   	retq   
  4063a1:	90                   	nop

00000000004063a2 <_ZNSt6vectorI4areaSaIS0_EE7emplaceIIS0_EEEN9__gnu_cxx17__normal_iteratorIPS0_S2_EES7_DpOT_>:
  4063a2:	55                   	push   %rbp
  4063a3:	48 89 e5             	mov    %rsp,%rbp
  4063a6:	53                   	push   %rbx
  4063a7:	48 83 ec 58          	sub    $0x58,%rsp
  4063ab:	48 89 7d b8          	mov    %rdi,-0x48(%rbp)
  4063af:	48 89 75 b0          	mov    %rsi,-0x50(%rbp)
  4063b3:	48 89 55 a8          	mov    %rdx,-0x58(%rbp)
  4063b7:	48 8b 45 b8          	mov    -0x48(%rbp),%rax
  4063bb:	48 89 c7             	mov    %rax,%rdi
  4063be:	e8 21 e5 ff ff       	callq  4048e4 <_ZNSt6vectorI4areaSaIS0_EE5beginEv>
  4063c3:	48 89 45 e0          	mov    %rax,-0x20(%rbp)
  4063c7:	48 8d 55 e0          	lea    -0x20(%rbp),%rdx
  4063cb:	48 8d 45 b0          	lea    -0x50(%rbp),%rax
  4063cf:	48 89 d6             	mov    %rdx,%rsi
  4063d2:	48 89 c7             	mov    %rax,%rdi
  4063d5:	e8 41 f7 ff ff       	callq  405b1b <_ZN9__gnu_cxxmiIP4areaSt6vectorIS1_SaIS1_EEEENS_17__normal_iteratorIT_T0_E15difference_typeERKS9_SC_>
  4063da:	48 89 45 e8          	mov    %rax,-0x18(%rbp)
  4063de:	bb 00 00 00 00       	mov    $0x0,%ebx
  4063e3:	48 8b 45 b8          	mov    -0x48(%rbp),%rax
  4063e7:	48 8b 50 08          	mov    0x8(%rax),%rdx
  4063eb:	48 8b 45 b8          	mov    -0x48(%rbp),%rax
  4063ef:	48 8b 40 10          	mov    0x10(%rax),%rax
  4063f3:	48 39 c2             	cmp    %rax,%rdx
  4063f6:	74 33                	je     40642b <_ZNSt6vectorI4areaSaIS0_EE7emplaceIIS0_EEEN9__gnu_cxx17__normal_iteratorIPS0_S2_EES7_DpOT_+0x89>
  4063f8:	48 8b 45 b8          	mov    -0x48(%rbp),%rax
  4063fc:	48 89 c7             	mov    %rax,%rdi
  4063ff:	e8 06 e5 ff ff       	callq  40490a <_ZNSt6vectorI4areaSaIS0_EE3endEv>
  406404:	48 89 45 c0          	mov    %rax,-0x40(%rbp)
  406408:	bb 01 00 00 00       	mov    $0x1,%ebx
  40640d:	48 8d 55 c0          	lea    -0x40(%rbp),%rdx
  406411:	48 8d 45 b0          	lea    -0x50(%rbp),%rax
  406415:	48 89 d6             	mov    %rdx,%rsi
  406418:	48 89 c7             	mov    %rax,%rdi
  40641b:	e8 4f f7 ff ff       	callq  405b6f <_ZN9__gnu_cxxeqIP4areaSt6vectorIS1_SaIS1_EEEEbRKNS_17__normal_iteratorIT_T0_EESB_>
  406420:	84 c0                	test   %al,%al
  406422:	74 07                	je     40642b <_ZNSt6vectorI4areaSaIS0_EE7emplaceIIS0_EEEN9__gnu_cxx17__normal_iteratorIPS0_S2_EES7_DpOT_+0x89>
  406424:	b8 01 00 00 00       	mov    $0x1,%eax
  406429:	eb 05                	jmp    406430 <_ZNSt6vectorI4areaSaIS0_EE7emplaceIIS0_EEEN9__gnu_cxx17__normal_iteratorIPS0_S2_EES7_DpOT_+0x8e>
  40642b:	b8 00 00 00 00       	mov    $0x0,%eax
  406430:	84 db                	test   %bl,%bl
  406432:	84 c0                	test   %al,%al
  406434:	74 3c                	je     406472 <_ZNSt6vectorI4areaSaIS0_EE7emplaceIIS0_EEEN9__gnu_cxx17__normal_iteratorIPS0_S2_EES7_DpOT_+0xd0>
  406436:	48 8b 45 a8          	mov    -0x58(%rbp),%rax
  40643a:	48 89 c7             	mov    %rax,%rdi
  40643d:	e8 4a f6 ff ff       	callq  405a8c <_ZSt7forwardI4areaEOT_RNSt16remove_referenceIS1_E4typeE>
  406442:	48 89 c2             	mov    %rax,%rdx
  406445:	48 8b 45 b8          	mov    -0x48(%rbp),%rax
  406449:	48 8b 48 08          	mov    0x8(%rax),%rcx
  40644d:	48 8b 45 b8          	mov    -0x48(%rbp),%rax
  406451:	48 89 ce             	mov    %rcx,%rsi
  406454:	48 89 c7             	mov    %rax,%rdi
  406457:	e8 36 12 00 00       	callq  407692 <_ZNSt16allocator_traitsISaI4areaEE9constructIS0_IS0_EEEDTcl12_S_constructfp_fp0_spcl7forwardIT0_Efp1_EEERS1_PT_DpOS4_>
  40645c:	48 8b 45 b8          	mov    -0x48(%rbp),%rax
  406460:	48 8b 40 08          	mov    0x8(%rax),%rax
  406464:	48 8d 50 0c          	lea    0xc(%rax),%rdx
  406468:	48 8b 45 b8          	mov    -0x48(%rbp),%rax
  40646c:	48 89 50 08          	mov    %rdx,0x8(%rax)
  406470:	eb 22                	jmp    406494 <_ZNSt6vectorI4areaSaIS0_EE7emplaceIIS0_EEEN9__gnu_cxx17__normal_iteratorIPS0_S2_EES7_DpOT_+0xf2>
  406472:	48 8b 45 a8          	mov    -0x58(%rbp),%rax
  406476:	48 89 c7             	mov    %rax,%rdi
  406479:	e8 0e f6 ff ff       	callq  405a8c <_ZSt7forwardI4areaEOT_RNSt16remove_referenceIS1_E4typeE>
  40647e:	48 89 c2             	mov    %rax,%rdx
  406481:	48 8b 4d b0          	mov    -0x50(%rbp),%rcx
  406485:	48 8b 45 b8          	mov    -0x48(%rbp),%rax
  406489:	48 89 ce             	mov    %rcx,%rsi
  40648c:	48 89 c7             	mov    %rax,%rdi
  40648f:	e8 50 f7 ff ff       	callq  405be4 <_ZNSt6vectorI4areaSaIS0_EE13_M_insert_auxIIS0_EEEvN9__gnu_cxx17__normal_iteratorIPS0_S2_EEDpOT_>
  406494:	48 8b 45 b8          	mov    -0x48(%rbp),%rax
  406498:	48 8b 08             	mov    (%rax),%rcx
  40649b:	48 8b 55 e8          	mov    -0x18(%rbp),%rdx
  40649f:	48 89 d0             	mov    %rdx,%rax
  4064a2:	48 01 c0             	add    %rax,%rax
  4064a5:	48 01 d0             	add    %rdx,%rax
  4064a8:	48 c1 e0 02          	shl    $0x2,%rax
  4064ac:	48 01 c8             	add    %rcx,%rax
  4064af:	48 89 45 e0          	mov    %rax,-0x20(%rbp)
  4064b3:	48 8d 55 e0          	lea    -0x20(%rbp),%rdx
  4064b7:	48 8d 45 d0          	lea    -0x30(%rbp),%rax
  4064bb:	48 89 d6             	mov    %rdx,%rsi
  4064be:	48 89 c7             	mov    %rax,%rdi
  4064c1:	e8 6a ef ff ff       	callq  405430 <_ZN9__gnu_cxx17__normal_iteratorIP4areaSt6vectorIS1_SaIS1_EEEC1ERKS2_>
  4064c6:	48 8b 45 d0          	mov    -0x30(%rbp),%rax
  4064ca:	48 83 c4 58          	add    $0x58,%rsp
  4064ce:	5b                   	pop    %rbx
  4064cf:	5d                   	pop    %rbp
  4064d0:	c3                   	retq   

00000000004064d1 <_ZSt7forwardIiEOT_RNSt16remove_referenceIS0_E4typeE>:
  4064d1:	55                   	push   %rbp
  4064d2:	48 89 e5             	mov    %rsp,%rbp
  4064d5:	48 89 7d f8          	mov    %rdi,-0x8(%rbp)
  4064d9:	48 8b 45 f8          	mov    -0x8(%rbp),%rax
  4064dd:	5d                   	pop    %rbp
  4064de:	c3                   	retq   
  4064df:	90                   	nop

00000000004064e0 <_ZNSt6vectorIiSaIiEE12emplace_backIIiEEEvDpOT_>:
  4064e0:	55                   	push   %rbp
  4064e1:	48 89 e5             	mov    %rsp,%rbp
  4064e4:	48 83 ec 10          	sub    $0x10,%rsp
  4064e8:	48 89 7d f8          	mov    %rdi,-0x8(%rbp)
  4064ec:	48 89 75 f0          	mov    %rsi,-0x10(%rbp)
  4064f0:	48 8b 45 f8          	mov    -0x8(%rbp),%rax
  4064f4:	48 8b 50 08          	mov    0x8(%rax),%rdx
  4064f8:	48 8b 45 f8          	mov    -0x8(%rbp),%rax
  4064fc:	48 8b 40 10          	mov    0x10(%rax),%rax
  406500:	48 39 c2             	cmp    %rax,%rdx
  406503:	74 3c                	je     406541 <_ZNSt6vectorIiSaIiEE12emplace_backIIiEEEvDpOT_+0x61>
  406505:	48 8b 45 f0          	mov    -0x10(%rbp),%rax
  406509:	48 89 c7             	mov    %rax,%rdi
  40650c:	e8 c0 ff ff ff       	callq  4064d1 <_ZSt7forwardIiEOT_RNSt16remove_referenceIS0_E4typeE>
  406511:	48 89 c2             	mov    %rax,%rdx
  406514:	48 8b 45 f8          	mov    -0x8(%rbp),%rax
  406518:	48 8b 48 08          	mov    0x8(%rax),%rcx
  40651c:	48 8b 45 f8          	mov    -0x8(%rbp),%rax
  406520:	48 89 ce             	mov    %rcx,%rsi
  406523:	48 89 c7             	mov    %rax,%rdi
  406526:	e8 8d 16 00 00       	callq  407bb8 <_ZNSt16allocator_traitsISaIiEE9constructIiIiEEEDTcl12_S_constructfp_fp0_spcl7forwardIT0_Efp1_EEERS0_PT_DpOS3_>
  40652b:	48 8b 45 f8          	mov    -0x8(%rbp),%rax
  40652f:	48 8b 40 08          	mov    0x8(%rax),%rax
  406533:	48 8d 50 04          	lea    0x4(%rax),%rdx
  406537:	48 8b 45 f8          	mov    -0x8(%rbp),%rax
  40653b:	48 89 50 08          	mov    %rdx,0x8(%rax)
  40653f:	eb 1e                	jmp    40655f <_ZNSt6vectorIiSaIiEE12emplace_backIIiEEEvDpOT_+0x7f>
  406541:	48 8b 45 f0          	mov    -0x10(%rbp),%rax
  406545:	48 89 c7             	mov    %rax,%rdi
  406548:	e8 84 ff ff ff       	callq  4064d1 <_ZSt7forwardIiEOT_RNSt16remove_referenceIS0_E4typeE>
  40654d:	48 89 c2             	mov    %rax,%rdx
  406550:	48 8b 45 f8          	mov    -0x8(%rbp),%rax
  406554:	48 89 d6             	mov    %rdx,%rsi
  406557:	48 89 c7             	mov    %rax,%rdi
  40655a:	e8 91 16 00 00       	callq  407bf0 <_ZNSt6vectorIiSaIiEE19_M_emplace_back_auxIIiEEEvDpOT_>
  40655f:	c9                   	leaveq 
  406560:	c3                   	retq   
  406561:	90                   	nop

0000000000406562 <_ZN9__gnu_cxx17__normal_iteratorIPiSt6vectorIiSaIiEEEC1ERKS1_>:
  406562:	55                   	push   %rbp
  406563:	48 89 e5             	mov    %rsp,%rbp
  406566:	48 89 7d f8          	mov    %rdi,-0x8(%rbp)
  40656a:	48 89 75 f0          	mov    %rsi,-0x10(%rbp)
  40656e:	48 8b 45 f0          	mov    -0x10(%rbp),%rax
  406572:	48 8b 10             	mov    (%rax),%rdx
  406575:	48 8b 45 f8          	mov    -0x8(%rbp),%rax
  406579:	48 89 10             	mov    %rdx,(%rax)
  40657c:	5d                   	pop    %rbp
  40657d:	c3                   	retq   

000000000040657e <_ZNK9__gnu_cxx17__normal_iteratorIPiSt6vectorIiSaIiEEE4baseEv>:
  40657e:	55                   	push   %rbp
  40657f:	48 89 e5             	mov    %rsp,%rbp
  406582:	48 89 7d f8          	mov    %rdi,-0x8(%rbp)
  406586:	48 8b 45 f8          	mov    -0x8(%rbp),%rax
  40658a:	5d                   	pop    %rbp
  40658b:	c3                   	retq   

000000000040658c <_ZNSt16allocator_traitsISaIiEE7destroyIiEEvRS0_PT_>:
  40658c:	55                   	push   %rbp
  40658d:	48 89 e5             	mov    %rsp,%rbp
  406590:	48 83 ec 10          	sub    $0x10,%rsp
  406594:	48 89 7d f8          	mov    %rdi,-0x8(%rbp)
  406598:	48 89 75 f0          	mov    %rsi,-0x10(%rbp)
  40659c:	48 8b 55 f0          	mov    -0x10(%rbp),%rdx
  4065a0:	48 8b 45 f8          	mov    -0x8(%rbp),%rax
  4065a4:	48 89 d6             	mov    %rdx,%rsi
  4065a7:	48 89 c7             	mov    %rax,%rdi
  4065aa:	e8 2b 18 00 00       	callq  407dda <_ZNSt16allocator_traitsISaIiEE10_S_destroyIiEENSt9enable_ifIXsrNS1_16__destroy_helperIT_EE5valueEvE4typeERS0_PS5_>
  4065af:	c9                   	leaveq 
  4065b0:	c3                   	retq   

00000000004065b1 <_ZSt19__iterator_categoryIN9__gnu_cxx17__normal_iteratorIPiSt6vectorIiSaIiEEEEENSt15iterator_traitsIT_E17iterator_categoryERKS8_>:
  4065b1:	55                   	push   %rbp
  4065b2:	48 89 e5             	mov    %rsp,%rbp
  4065b5:	48 89 7d f8          	mov    %rdi,-0x8(%rbp)
  4065b9:	5d                   	pop    %rbp
  4065ba:	c3                   	retq   

00000000004065bb <_ZSt6__findIN9__gnu_cxx17__normal_iteratorIPiSt6vectorIiSaIiEEEEiET_S7_S7_RKT0_St26random_access_iterator_tag>:
  4065bb:	55                   	push   %rbp
  4065bc:	48 89 e5             	mov    %rsp,%rbp
  4065bf:	48 83 ec 30          	sub    $0x30,%rsp
  4065c3:	48 89 7d e0          	mov    %rdi,-0x20(%rbp)
  4065c7:	48 89 75 d0          	mov    %rsi,-0x30(%rbp)
  4065cb:	48 89 55 d8          	mov    %rdx,-0x28(%rbp)
  4065cf:	48 8d 55 e0          	lea    -0x20(%rbp),%rdx
  4065d3:	48 8d 45 d0          	lea    -0x30(%rbp),%rax
  4065d7:	48 89 d6             	mov    %rdx,%rsi
  4065da:	48 89 c7             	mov    %rax,%rdi
  4065dd:	e8 1d 18 00 00       	callq  407dff <_ZN9__gnu_cxxmiIPiSt6vectorIiSaIiEEEENS_17__normal_iteratorIT_T0_E15difference_typeERKS8_SB_>
  4065e2:	48 c1 f8 02          	sar    $0x2,%rax
  4065e6:	48 89 45 f8          	mov    %rax,-0x8(%rbp)
  4065ea:	e9 cd 00 00 00       	jmpq   4066bc <_ZSt6__findIN9__gnu_cxx17__normal_iteratorIPiSt6vectorIiSaIiEEEEiET_S7_S7_RKT0_St26random_access_iterator_tag+0x101>
  4065ef:	48 8d 45 e0          	lea    -0x20(%rbp),%rax
  4065f3:	48 89 c7             	mov    %rax,%rdi
  4065f6:	e8 a7 eb ff ff       	callq  4051a2 <_ZNK9__gnu_cxx17__normal_iteratorIPiSt6vectorIiSaIiEEEdeEv>
  4065fb:	8b 10                	mov    (%rax),%edx
  4065fd:	48 8b 45 d8          	mov    -0x28(%rbp),%rax
  406601:	8b 00                	mov    (%rax),%eax
  406603:	39 c2                	cmp    %eax,%edx
  406605:	0f 94 c0             	sete   %al
  406608:	84 c0                	test   %al,%al
  40660a:	74 09                	je     406615 <_ZSt6__findIN9__gnu_cxx17__normal_iteratorIPiSt6vectorIiSaIiEEEEiET_S7_S7_RKT0_St26random_access_iterator_tag+0x5a>
  40660c:	48 8b 45 e0          	mov    -0x20(%rbp),%rax
  406610:	e9 6d 01 00 00       	jmpq   406782 <_ZSt6__findIN9__gnu_cxx17__normal_iteratorIPiSt6vectorIiSaIiEEEEiET_S7_S7_RKT0_St26random_access_iterator_tag+0x1c7>
  406615:	48 8d 45 e0          	lea    -0x20(%rbp),%rax
  406619:	48 89 c7             	mov    %rax,%rdi
  40661c:	e8 45 ec ff ff       	callq  405266 <_ZN9__gnu_cxx17__normal_iteratorIPiSt6vectorIiSaIiEEEppEv>
  406621:	48 8d 45 e0          	lea    -0x20(%rbp),%rax
  406625:	48 89 c7             	mov    %rax,%rdi
  406628:	e8 75 eb ff ff       	callq  4051a2 <_ZNK9__gnu_cxx17__normal_iteratorIPiSt6vectorIiSaIiEEEdeEv>
  40662d:	8b 10                	mov    (%rax),%edx
  40662f:	48 8b 45 d8          	mov    -0x28(%rbp),%rax
  406633:	8b 00                	mov    (%rax),%eax
  406635:	39 c2                	cmp    %eax,%edx
  406637:	0f 94 c0             	sete   %al
  40663a:	84 c0                	test   %al,%al
  40663c:	74 09                	je     406647 <_ZSt6__findIN9__gnu_cxx17__normal_iteratorIPiSt6vectorIiSaIiEEEEiET_S7_S7_RKT0_St26random_access_iterator_tag+0x8c>
  40663e:	48 8b 45 e0          	mov    -0x20(%rbp),%rax
  406642:	e9 3b 01 00 00       	jmpq   406782 <_ZSt6__findIN9__gnu_cxx17__normal_iteratorIPiSt6vectorIiSaIiEEEEiET_S7_S7_RKT0_St26random_access_iterator_tag+0x1c7>
  406647:	48 8d 45 e0          	lea    -0x20(%rbp),%rax
  40664b:	48 89 c7             	mov    %rax,%rdi
  40664e:	e8 13 ec ff ff       	callq  405266 <_ZN9__gnu_cxx17__normal_iteratorIPiSt6vectorIiSaIiEEEppEv>
  406653:	48 8d 45 e0          	lea    -0x20(%rbp),%rax
  406657:	48 89 c7             	mov    %rax,%rdi
  40665a:	e8 43 eb ff ff       	callq  4051a2 <_ZNK9__gnu_cxx17__normal_iteratorIPiSt6vectorIiSaIiEEEdeEv>
  40665f:	8b 10                	mov    (%rax),%edx
  406661:	48 8b 45 d8          	mov    -0x28(%rbp),%rax
  406665:	8b 00                	mov    (%rax),%eax
  406667:	39 c2                	cmp    %eax,%edx
  406669:	0f 94 c0             	sete   %al
  40666c:	84 c0                	test   %al,%al
  40666e:	74 09                	je     406679 <_ZSt6__findIN9__gnu_cxx17__normal_iteratorIPiSt6vectorIiSaIiEEEEiET_S7_S7_RKT0_St26random_access_iterator_tag+0xbe>
  406670:	48 8b 45 e0          	mov    -0x20(%rbp),%rax
  406674:	e9 09 01 00 00       	jmpq   406782 <_ZSt6__findIN9__gnu_cxx17__normal_iteratorIPiSt6vectorIiSaIiEEEEiET_S7_S7_RKT0_St26random_access_iterator_tag+0x1c7>
  406679:	48 8d 45 e0          	lea    -0x20(%rbp),%rax
  40667d:	48 89 c7             	mov    %rax,%rdi
  406680:	e8 e1 eb ff ff       	callq  405266 <_ZN9__gnu_cxx17__normal_iteratorIPiSt6vectorIiSaIiEEEppEv>
  406685:	48 8d 45 e0          	lea    -0x20(%rbp),%rax
  406689:	48 89 c7             	mov    %rax,%rdi
  40668c:	e8 11 eb ff ff       	callq  4051a2 <_ZNK9__gnu_cxx17__normal_iteratorIPiSt6vectorIiSaIiEEEdeEv>
  406691:	8b 10                	mov    (%rax),%edx
  406693:	48 8b 45 d8          	mov    -0x28(%rbp),%rax
  406697:	8b 00                	mov    (%rax),%eax
  406699:	39 c2                	cmp    %eax,%edx
  40669b:	0f 94 c0             	sete   %al
  40669e:	84 c0                	test   %al,%al
  4066a0:	74 09                	je     4066ab <_ZSt6__findIN9__gnu_cxx17__normal_iteratorIPiSt6vectorIiSaIiEEEEiET_S7_S7_RKT0_St26random_access_iterator_tag+0xf0>
  4066a2:	48 8b 45 e0          	mov    -0x20(%rbp),%rax
  4066a6:	e9 d7 00 00 00       	jmpq   406782 <_ZSt6__findIN9__gnu_cxx17__normal_iteratorIPiSt6vectorIiSaIiEEEEiET_S7_S7_RKT0_St26random_access_iterator_tag+0x1c7>
  4066ab:	48 8d 45 e0          	lea    -0x20(%rbp),%rax
  4066af:	48 89 c7             	mov    %rax,%rdi
  4066b2:	e8 af eb ff ff       	callq  405266 <_ZN9__gnu_cxx17__normal_iteratorIPiSt6vectorIiSaIiEEEppEv>
  4066b7:	48 83 6d f8 01       	subq   $0x1,-0x8(%rbp)
  4066bc:	48 83 7d f8 00       	cmpq   $0x0,-0x8(%rbp)
  4066c1:	0f 8f 28 ff ff ff    	jg     4065ef <_ZSt6__findIN9__gnu_cxx17__normal_iteratorIPiSt6vectorIiSaIiEEEEiET_S7_S7_RKT0_St26random_access_iterator_tag+0x34>
  4066c7:	48 8d 55 e0          	lea    -0x20(%rbp),%rdx
  4066cb:	48 8d 45 d0          	lea    -0x30(%rbp),%rax
  4066cf:	48 89 d6             	mov    %rdx,%rsi
  4066d2:	48 89 c7             	mov    %rax,%rdi
  4066d5:	e8 25 17 00 00       	callq  407dff <_ZN9__gnu_cxxmiIPiSt6vectorIiSaIiEEEENS_17__normal_iteratorIT_T0_E15difference_typeERKS8_SB_>
  4066da:	48 83 f8 02          	cmp    $0x2,%rax
  4066de:	74 40                	je     406720 <_ZSt6__findIN9__gnu_cxx17__normal_iteratorIPiSt6vectorIiSaIiEEEEiET_S7_S7_RKT0_St26random_access_iterator_tag+0x165>
  4066e0:	48 83 f8 03          	cmp    $0x3,%rax
  4066e4:	74 0b                	je     4066f1 <_ZSt6__findIN9__gnu_cxx17__normal_iteratorIPiSt6vectorIiSaIiEEEEiET_S7_S7_RKT0_St26random_access_iterator_tag+0x136>
  4066e6:	48 83 f8 01          	cmp    $0x1,%rax
  4066ea:	74 63                	je     40674f <_ZSt6__findIN9__gnu_cxx17__normal_iteratorIPiSt6vectorIiSaIiEEEEiET_S7_S7_RKT0_St26random_access_iterator_tag+0x194>
  4066ec:	e9 8d 00 00 00       	jmpq   40677e <_ZSt6__findIN9__gnu_cxx17__normal_iteratorIPiSt6vectorIiSaIiEEEEiET_S7_S7_RKT0_St26random_access_iterator_tag+0x1c3>
  4066f1:	48 8d 45 e0          	lea    -0x20(%rbp),%rax
  4066f5:	48 89 c7             	mov    %rax,%rdi
  4066f8:	e8 a5 ea ff ff       	callq  4051a2 <_ZNK9__gnu_cxx17__normal_iteratorIPiSt6vectorIiSaIiEEEdeEv>
  4066fd:	8b 10                	mov    (%rax),%edx
  4066ff:	48 8b 45 d8          	mov    -0x28(%rbp),%rax
  406703:	8b 00                	mov    (%rax),%eax
  406705:	39 c2                	cmp    %eax,%edx
  406707:	0f 94 c0             	sete   %al
  40670a:	84 c0                	test   %al,%al
  40670c:	74 06                	je     406714 <_ZSt6__findIN9__gnu_cxx17__normal_iteratorIPiSt6vectorIiSaIiEEEEiET_S7_S7_RKT0_St26random_access_iterator_tag+0x159>
  40670e:	48 8b 45 e0          	mov    -0x20(%rbp),%rax
  406712:	eb 6e                	jmp    406782 <_ZSt6__findIN9__gnu_cxx17__normal_iteratorIPiSt6vectorIiSaIiEEEEiET_S7_S7_RKT0_St26random_access_iterator_tag+0x1c7>
  406714:	48 8d 45 e0          	lea    -0x20(%rbp),%rax
  406718:	48 89 c7             	mov    %rax,%rdi
  40671b:	e8 46 eb ff ff       	callq  405266 <_ZN9__gnu_cxx17__normal_iteratorIPiSt6vectorIiSaIiEEEppEv>
  406720:	48 8d 45 e0          	lea    -0x20(%rbp),%rax
  406724:	48 89 c7             	mov    %rax,%rdi
  406727:	e8 76 ea ff ff       	callq  4051a2 <_ZNK9__gnu_cxx17__normal_iteratorIPiSt6vectorIiSaIiEEEdeEv>
  40672c:	8b 10                	mov    (%rax),%edx
  40672e:	48 8b 45 d8          	mov    -0x28(%rbp),%rax
  406732:	8b 00                	mov    (%rax),%eax
  406734:	39 c2                	cmp    %eax,%edx
  406736:	0f 94 c0             	sete   %al
  406739:	84 c0                	test   %al,%al
  40673b:	74 06                	je     406743 <_ZSt6__findIN9__gnu_cxx17__normal_iteratorIPiSt6vectorIiSaIiEEEEiET_S7_S7_RKT0_St26random_access_iterator_tag+0x188>
  40673d:	48 8b 45 e0          	mov    -0x20(%rbp),%rax
  406741:	eb 3f                	jmp    406782 <_ZSt6__findIN9__gnu_cxx17__normal_iteratorIPiSt6vectorIiSaIiEEEEiET_S7_S7_RKT0_St26random_access_iterator_tag+0x1c7>
  406743:	48 8d 45 e0          	lea    -0x20(%rbp),%rax
  406747:	48 89 c7             	mov    %rax,%rdi
  40674a:	e8 17 eb ff ff       	callq  405266 <_ZN9__gnu_cxx17__normal_iteratorIPiSt6vectorIiSaIiEEEppEv>
  40674f:	48 8d 45 e0          	lea    -0x20(%rbp),%rax
  406753:	48 89 c7             	mov    %rax,%rdi
  406756:	e8 47 ea ff ff       	callq  4051a2 <_ZNK9__gnu_cxx17__normal_iteratorIPiSt6vectorIiSaIiEEEdeEv>
  40675b:	8b 10                	mov    (%rax),%edx
  40675d:	48 8b 45 d8          	mov    -0x28(%rbp),%rax
  406761:	8b 00                	mov    (%rax),%eax
  406763:	39 c2                	cmp    %eax,%edx
  406765:	0f 94 c0             	sete   %al
  406768:	84 c0                	test   %al,%al
  40676a:	74 06                	je     406772 <_ZSt6__findIN9__gnu_cxx17__normal_iteratorIPiSt6vectorIiSaIiEEEEiET_S7_S7_RKT0_St26random_access_iterator_tag+0x1b7>
  40676c:	48 8b 45 e0          	mov    -0x20(%rbp),%rax
  406770:	eb 10                	jmp    406782 <_ZSt6__findIN9__gnu_cxx17__normal_iteratorIPiSt6vectorIiSaIiEEEEiET_S7_S7_RKT0_St26random_access_iterator_tag+0x1c7>
  406772:	48 8d 45 e0          	lea    -0x20(%rbp),%rax
  406776:	48 89 c7             	mov    %rax,%rdi
  406779:	e8 e8 ea ff ff       	callq  405266 <_ZN9__gnu_cxx17__normal_iteratorIPiSt6vectorIiSaIiEEEppEv>
  40677e:	48 8b 45 d0          	mov    -0x30(%rbp),%rax
  406782:	c9                   	leaveq 
  406783:	c3                   	retq   

0000000000406784 <_ZNSt12_Vector_baseI4areaSaIS0_EE12_Vector_implC1Ev>:
  406784:	55                   	push   %rbp
  406785:	48 89 e5             	mov    %rsp,%rbp
  406788:	48 83 ec 10          	sub    $0x10,%rsp
  40678c:	48 89 7d f8          	mov    %rdi,-0x8(%rbp)
  406790:	48 8b 45 f8          	mov    -0x8(%rbp),%rax
  406794:	48 89 c7             	mov    %rax,%rdi
  406797:	e8 a6 16 00 00       	callq  407e42 <_ZNSaI4areaEC1Ev>
  40679c:	48 8b 45 f8          	mov    -0x8(%rbp),%rax
  4067a0:	48 c7 00 00 00 00 00 	movq   $0x0,(%rax)
  4067a7:	48 8b 45 f8          	mov    -0x8(%rbp),%rax
  4067ab:	48 c7 40 08 00 00 00 	movq   $0x0,0x8(%rax)
  4067b2:	00 
  4067b3:	48 8b 45 f8          	mov    -0x8(%rbp),%rax
  4067b7:	48 c7 40 10 00 00 00 	movq   $0x0,0x10(%rax)
  4067be:	00 
  4067bf:	c9                   	leaveq 
  4067c0:	c3                   	retq   
  4067c1:	90                   	nop

00000000004067c2 <_ZNSaI4areaED1Ev>:
  4067c2:	55                   	push   %rbp
  4067c3:	48 89 e5             	mov    %rsp,%rbp
  4067c6:	48 83 ec 10          	sub    $0x10,%rsp
  4067ca:	48 89 7d f8          	mov    %rdi,-0x8(%rbp)
  4067ce:	48 8b 45 f8          	mov    -0x8(%rbp),%rax
  4067d2:	48 89 c7             	mov    %rax,%rdi
  4067d5:	e8 82 16 00 00       	callq  407e5c <_ZN9__gnu_cxx13new_allocatorI4areaED1Ev>
  4067da:	c9                   	leaveq 
  4067db:	c3                   	retq   

00000000004067dc <_ZNSt12_Vector_baseI4areaSaIS0_EE13_M_deallocateEPS0_m>:
  4067dc:	55                   	push   %rbp
  4067dd:	48 89 e5             	mov    %rsp,%rbp
  4067e0:	48 83 ec 20          	sub    $0x20,%rsp
  4067e4:	48 89 7d f8          	mov    %rdi,-0x8(%rbp)
  4067e8:	48 89 75 f0          	mov    %rsi,-0x10(%rbp)
  4067ec:	48 89 55 e8          	mov    %rdx,-0x18(%rbp)
  4067f0:	48 83 7d f0 00       	cmpq   $0x0,-0x10(%rbp)
  4067f5:	74 17                	je     40680e <_ZNSt12_Vector_baseI4areaSaIS0_EE13_M_deallocateEPS0_m+0x32>
  4067f7:	48 8b 45 f8          	mov    -0x8(%rbp),%rax
  4067fb:	48 8b 55 e8          	mov    -0x18(%rbp),%rdx
  4067ff:	48 8b 4d f0          	mov    -0x10(%rbp),%rcx
  406803:	48 89 ce             	mov    %rcx,%rsi
  406806:	48 89 c7             	mov    %rax,%rdi
  406809:	e8 58 16 00 00       	callq  407e66 <_ZN9__gnu_cxx13new_allocatorI4areaE10deallocateEPS1_m>
  40680e:	c9                   	leaveq 
  40680f:	c3                   	retq   

0000000000406810 <_ZSt8_DestroyIP4areaEvT_S2_>:
  406810:	55                   	push   %rbp
  406811:	48 89 e5             	mov    %rsp,%rbp
  406814:	48 83 ec 10          	sub    $0x10,%rsp
  406818:	48 89 7d f8          	mov    %rdi,-0x8(%rbp)
  40681c:	48 89 75 f0          	mov    %rsi,-0x10(%rbp)
  406820:	48 8b 55 f0          	mov    -0x10(%rbp),%rdx
  406824:	48 8b 45 f8          	mov    -0x8(%rbp),%rax
  406828:	48 89 d6             	mov    %rdx,%rsi
  40682b:	48 89 c7             	mov    %rax,%rdi
  40682e:	e8 55 16 00 00       	callq  407e88 <_ZNSt12_Destroy_auxILb1EE9__destroyIP4areaEEvT_S4_>
  406833:	c9                   	leaveq 
  406834:	c3                   	retq   
  406835:	90                   	nop

0000000000406836 <_ZNSt12_Vector_baseI4nodeSaIS0_EE12_Vector_implC1Ev>:
  406836:	55                   	push   %rbp
  406837:	48 89 e5             	mov    %rsp,%rbp
  40683a:	48 83 ec 10          	sub    $0x10,%rsp
  40683e:	48 89 7d f8          	mov    %rdi,-0x8(%rbp)
  406842:	48 8b 45 f8          	mov    -0x8(%rbp),%rax
  406846:	48 89 c7             	mov    %rax,%rdi
  406849:	e8 48 16 00 00       	callq  407e96 <_ZNSaI4nodeEC1Ev>
  40684e:	48 8b 45 f8          	mov    -0x8(%rbp),%rax
  406852:	48 c7 00 00 00 00 00 	movq   $0x0,(%rax)
  406859:	48 8b 45 f8          	mov    -0x8(%rbp),%rax
  40685d:	48 c7 40 08 00 00 00 	movq   $0x0,0x8(%rax)
  406864:	00 
  406865:	48 8b 45 f8          	mov    -0x8(%rbp),%rax
  406869:	48 c7 40 10 00 00 00 	movq   $0x0,0x10(%rax)
  406870:	00 
  406871:	c9                   	leaveq 
  406872:	c3                   	retq   
  406873:	90                   	nop

0000000000406874 <_ZNSaI4nodeED1Ev>:
  406874:	55                   	push   %rbp
  406875:	48 89 e5             	mov    %rsp,%rbp
  406878:	48 83 ec 10          	sub    $0x10,%rsp
  40687c:	48 89 7d f8          	mov    %rdi,-0x8(%rbp)
  406880:	48 8b 45 f8          	mov    -0x8(%rbp),%rax
  406884:	48 89 c7             	mov    %rax,%rdi
  406887:	e8 24 16 00 00       	callq  407eb0 <_ZN9__gnu_cxx13new_allocatorI4nodeED1Ev>
  40688c:	c9                   	leaveq 
  40688d:	c3                   	retq   

000000000040688e <_ZNSt12_Vector_baseI4nodeSaIS0_EE13_M_deallocateEPS0_m>:
  40688e:	55                   	push   %rbp
  40688f:	48 89 e5             	mov    %rsp,%rbp
  406892:	48 83 ec 20          	sub    $0x20,%rsp
  406896:	48 89 7d f8          	mov    %rdi,-0x8(%rbp)
  40689a:	48 89 75 f0          	mov    %rsi,-0x10(%rbp)
  40689e:	48 89 55 e8          	mov    %rdx,-0x18(%rbp)
  4068a2:	48 83 7d f0 00       	cmpq   $0x0,-0x10(%rbp)
  4068a7:	74 17                	je     4068c0 <_ZNSt12_Vector_baseI4nodeSaIS0_EE13_M_deallocateEPS0_m+0x32>
  4068a9:	48 8b 45 f8          	mov    -0x8(%rbp),%rax
  4068ad:	48 8b 55 e8          	mov    -0x18(%rbp),%rdx
  4068b1:	48 8b 4d f0          	mov    -0x10(%rbp),%rcx
  4068b5:	48 89 ce             	mov    %rcx,%rsi
  4068b8:	48 89 c7             	mov    %rax,%rdi
  4068bb:	e8 fa 15 00 00       	callq  407eba <_ZN9__gnu_cxx13new_allocatorI4nodeE10deallocateEPS1_m>
  4068c0:	c9                   	leaveq 
  4068c1:	c3                   	retq   

00000000004068c2 <_ZSt8_DestroyIP4nodeEvT_S2_>:
  4068c2:	55                   	push   %rbp
  4068c3:	48 89 e5             	mov    %rsp,%rbp
  4068c6:	48 83 ec 10          	sub    $0x10,%rsp
  4068ca:	48 89 7d f8          	mov    %rdi,-0x8(%rbp)
  4068ce:	48 89 75 f0          	mov    %rsi,-0x10(%rbp)
  4068d2:	48 8b 55 f0          	mov    -0x10(%rbp),%rdx
  4068d6:	48 8b 45 f8          	mov    -0x8(%rbp),%rax
  4068da:	48 89 d6             	mov    %rdx,%rsi
  4068dd:	48 89 c7             	mov    %rax,%rdi
  4068e0:	e8 f7 15 00 00       	callq  407edc <_ZNSt12_Destroy_auxILb1EE9__destroyIP4nodeEEvT_S4_>
  4068e5:	c9                   	leaveq 
  4068e6:	c3                   	retq   
  4068e7:	90                   	nop

00000000004068e8 <_ZNSt12_Vector_baseIiSaIiEE12_Vector_implC1Ev>:
  4068e8:	55                   	push   %rbp
  4068e9:	48 89 e5             	mov    %rsp,%rbp
  4068ec:	48 83 ec 10          	sub    $0x10,%rsp
  4068f0:	48 89 7d f8          	mov    %rdi,-0x8(%rbp)
  4068f4:	48 8b 45 f8          	mov    -0x8(%rbp),%rax
  4068f8:	48 89 c7             	mov    %rax,%rdi
  4068fb:	e8 ea 15 00 00       	callq  407eea <_ZNSaIiEC1Ev>
  406900:	48 8b 45 f8          	mov    -0x8(%rbp),%rax
  406904:	48 c7 00 00 00 00 00 	movq   $0x0,(%rax)
  40690b:	48 8b 45 f8          	mov    -0x8(%rbp),%rax
  40690f:	48 c7 40 08 00 00 00 	movq   $0x0,0x8(%rax)
  406916:	00 
  406917:	48 8b 45 f8          	mov    -0x8(%rbp),%rax
  40691b:	48 c7 40 10 00 00 00 	movq   $0x0,0x10(%rax)
  406922:	00 
  406923:	c9                   	leaveq 
  406924:	c3                   	retq   
  406925:	90                   	nop

0000000000406926 <_ZNSaIiED1Ev>:
  406926:	55                   	push   %rbp
  406927:	48 89 e5             	mov    %rsp,%rbp
  40692a:	48 83 ec 10          	sub    $0x10,%rsp
  40692e:	48 89 7d f8          	mov    %rdi,-0x8(%rbp)
  406932:	48 8b 45 f8          	mov    -0x8(%rbp),%rax
  406936:	48 89 c7             	mov    %rax,%rdi
  406939:	e8 c6 15 00 00       	callq  407f04 <_ZN9__gnu_cxx13new_allocatorIiED1Ev>
  40693e:	c9                   	leaveq 
  40693f:	c3                   	retq   

0000000000406940 <_ZNSt12_Vector_baseIiSaIiEE13_M_deallocateEPim>:
  406940:	55                   	push   %rbp
  406941:	48 89 e5             	mov    %rsp,%rbp
  406944:	48 83 ec 20          	sub    $0x20,%rsp
  406948:	48 89 7d f8          	mov    %rdi,-0x8(%rbp)
  40694c:	48 89 75 f0          	mov    %rsi,-0x10(%rbp)
  406950:	48 89 55 e8          	mov    %rdx,-0x18(%rbp)
  406954:	48 83 7d f0 00       	cmpq   $0x0,-0x10(%rbp)
  406959:	74 17                	je     406972 <_ZNSt12_Vector_baseIiSaIiEE13_M_deallocateEPim+0x32>
  40695b:	48 8b 45 f8          	mov    -0x8(%rbp),%rax
  40695f:	48 8b 55 e8          	mov    -0x18(%rbp),%rdx
  406963:	48 8b 4d f0          	mov    -0x10(%rbp),%rcx
  406967:	48 89 ce             	mov    %rcx,%rsi
  40696a:	48 89 c7             	mov    %rax,%rdi
  40696d:	e8 9c 15 00 00       	callq  407f0e <_ZN9__gnu_cxx13new_allocatorIiE10deallocateEPim>
  406972:	c9                   	leaveq 
  406973:	c3                   	retq   

0000000000406974 <_ZSt8_DestroyIPiEvT_S1_>:
  406974:	55                   	push   %rbp
  406975:	48 89 e5             	mov    %rsp,%rbp
  406978:	48 83 ec 10          	sub    $0x10,%rsp
  40697c:	48 89 7d f8          	mov    %rdi,-0x8(%rbp)
  406980:	48 89 75 f0          	mov    %rsi,-0x10(%rbp)
  406984:	48 8b 55 f0          	mov    -0x10(%rbp),%rdx
  406988:	48 8b 45 f8          	mov    -0x8(%rbp),%rax
  40698c:	48 89 d6             	mov    %rdx,%rsi
  40698f:	48 89 c7             	mov    %rax,%rdi
  406992:	e8 99 15 00 00       	callq  407f30 <_ZNSt12_Destroy_auxILb1EE9__destroyIPiEEvT_S3_>
  406997:	c9                   	leaveq 
  406998:	c3                   	retq   

0000000000406999 <_ZNSt16allocator_traitsISaI4nodeEE9constructIS0_IS0_EEEDTcl12_S_constructfp_fp0_spcl7forwardIT0_Efp1_EEERS1_PT_DpOS4_>:
  406999:	55                   	push   %rbp
  40699a:	48 89 e5             	mov    %rsp,%rbp
  40699d:	48 83 ec 20          	sub    $0x20,%rsp
  4069a1:	48 89 7d f8          	mov    %rdi,-0x8(%rbp)
  4069a5:	48 89 75 f0          	mov    %rsi,-0x10(%rbp)
  4069a9:	48 89 55 e8          	mov    %rdx,-0x18(%rbp)
  4069ad:	48 8b 45 e8          	mov    -0x18(%rbp),%rax
  4069b1:	48 89 c7             	mov    %rax,%rdi
  4069b4:	e8 e4 ec ff ff       	callq  40569d <_ZSt7forwardI4nodeEOT_RNSt16remove_referenceIS1_E4typeE>
  4069b9:	48 89 c2             	mov    %rax,%rdx
  4069bc:	48 8b 4d f0          	mov    -0x10(%rbp),%rcx
  4069c0:	48 8b 45 f8          	mov    -0x8(%rbp),%rax
  4069c4:	48 89 ce             	mov    %rcx,%rsi
  4069c7:	48 89 c7             	mov    %rax,%rdi
  4069ca:	e8 6f 15 00 00       	callq  407f3e <_ZNSt16allocator_traitsISaI4nodeEE12_S_constructIS0_IS0_EEENSt9enable_ifIXsrNS2_18__construct_helperIT_IDpT0_EEE5valueEvE4typeERS1_PS6_DpOS7_>
  4069cf:	c9                   	leaveq 
  4069d0:	c3                   	retq   
  4069d1:	90                   	nop

00000000004069d2 <_ZNSt6vectorI4nodeSaIS0_EE19_M_emplace_back_auxIIS0_EEEvDpOT_>:
  4069d2:	55                   	push   %rbp
  4069d3:	48 89 e5             	mov    %rsp,%rbp
  4069d6:	53                   	push   %rbx
  4069d7:	48 83 ec 38          	sub    $0x38,%rsp
  4069db:	48 89 7d c8          	mov    %rdi,-0x38(%rbp)
  4069df:	48 89 75 c0          	mov    %rsi,-0x40(%rbp)
  4069e3:	48 8b 45 c8          	mov    -0x38(%rbp),%rax
  4069e7:	ba a6 96 40 00       	mov    $0x4096a6,%edx
  4069ec:	be 01 00 00 00       	mov    $0x1,%esi
  4069f1:	48 89 c7             	mov    %rax,%rdi
  4069f4:	e8 7d 15 00 00       	callq  407f76 <_ZNKSt6vectorI4nodeSaIS0_EE12_M_check_lenEmPKc>
  4069f9:	48 89 45 e0          	mov    %rax,-0x20(%rbp)
  4069fd:	48 8b 45 c8          	mov    -0x38(%rbp),%rax
  406a01:	48 8b 55 e0          	mov    -0x20(%rbp),%rdx
  406a05:	48 89 d6             	mov    %rdx,%rsi
  406a08:	48 89 c7             	mov    %rax,%rdi
  406a0b:	e8 30 16 00 00       	callq  408040 <_ZNSt12_Vector_baseI4nodeSaIS0_EE11_M_allocateEm>
  406a10:	48 89 45 e8          	mov    %rax,-0x18(%rbp)
  406a14:	48 8b 45 e8          	mov    -0x18(%rbp),%rax
  406a18:	48 89 45 d8          	mov    %rax,-0x28(%rbp)
  406a1c:	48 8b 45 c0          	mov    -0x40(%rbp),%rax
  406a20:	48 89 c7             	mov    %rax,%rdi
  406a23:	e8 75 ec ff ff       	callq  40569d <_ZSt7forwardI4nodeEOT_RNSt16remove_referenceIS1_E4typeE>
  406a28:	48 89 c3             	mov    %rax,%rbx
  406a2b:	48 8b 45 c8          	mov    -0x38(%rbp),%rax
  406a2f:	48 89 c7             	mov    %rax,%rdi
  406a32:	e8 f7 ec ff ff       	callq  40572e <_ZNKSt6vectorI4nodeSaIS0_EE4sizeEv>
  406a37:	48 8d 14 c5 00 00 00 	lea    0x0(,%rax,8),%rdx
  406a3e:	00 
  406a3f:	48 8b 45 e8          	mov    -0x18(%rbp),%rax
  406a43:	48 8d 0c 02          	lea    (%rdx,%rax,1),%rcx
  406a47:	48 8b 45 c8          	mov    -0x38(%rbp),%rax
  406a4b:	48 89 da             	mov    %rbx,%rdx
  406a4e:	48 89 ce             	mov    %rcx,%rsi
  406a51:	48 89 c7             	mov    %rax,%rdi
  406a54:	e8 40 ff ff ff       	callq  406999 <_ZNSt16allocator_traitsISaI4nodeEE9constructIS0_IS0_EEEDTcl12_S_constructfp_fp0_spcl7forwardIT0_Efp1_EEERS1_PT_DpOS4_>
  406a59:	48 c7 45 d8 00 00 00 	movq   $0x0,-0x28(%rbp)
  406a60:	00 
  406a61:	48 8b 45 c8          	mov    -0x38(%rbp),%rax
  406a65:	48 89 c7             	mov    %rax,%rdi
  406a68:	e8 3d eb ff ff       	callq  4055aa <_ZNSt12_Vector_baseI4nodeSaIS0_EE19_M_get_Tp_allocatorEv>
  406a6d:	48 89 c1             	mov    %rax,%rcx
  406a70:	48 8b 45 c8          	mov    -0x38(%rbp),%rax
  406a74:	48 8b 70 08          	mov    0x8(%rax),%rsi
  406a78:	48 8b 45 c8          	mov    -0x38(%rbp),%rax
  406a7c:	48 8b 00             	mov    (%rax),%rax
  406a7f:	48 8b 55 e8          	mov    -0x18(%rbp),%rdx
  406a83:	48 89 c7             	mov    %rax,%rdi
  406a86:	e8 ed 15 00 00       	callq  408078 <_ZSt34__uninitialized_move_if_noexcept_aIP4nodeS1_SaIS0_EET0_T_S4_S3_RT1_>
  406a8b:	48 89 45 d8          	mov    %rax,-0x28(%rbp)
  406a8f:	48 83 45 d8 08       	addq   $0x8,-0x28(%rbp)
  406a94:	48 8b 45 c8          	mov    -0x38(%rbp),%rax
  406a98:	48 89 c7             	mov    %rax,%rdi
  406a9b:	e8 0a eb ff ff       	callq  4055aa <_ZNSt12_Vector_baseI4nodeSaIS0_EE19_M_get_Tp_allocatorEv>
  406aa0:	48 89 c2             	mov    %rax,%rdx
  406aa3:	48 8b 45 c8          	mov    -0x38(%rbp),%rax
  406aa7:	48 8b 48 08          	mov    0x8(%rax),%rcx
  406aab:	48 8b 45 c8          	mov    -0x38(%rbp),%rax
  406aaf:	48 8b 00             	mov    (%rax),%rax
  406ab2:	48 89 ce             	mov    %rcx,%rsi
  406ab5:	48 89 c7             	mov    %rax,%rdi
  406ab8:	e8 fb ea ff ff       	callq  4055b8 <_ZSt8_DestroyIP4nodeS0_EvT_S2_RSaIT0_E>
  406abd:	48 8b 45 c8          	mov    -0x38(%rbp),%rax
  406ac1:	48 8b 40 10          	mov    0x10(%rax),%rax
  406ac5:	48 89 c2             	mov    %rax,%rdx
  406ac8:	48 8b 45 c8          	mov    -0x38(%rbp),%rax
  406acc:	48 8b 00             	mov    (%rax),%rax
  406acf:	48 29 c2             	sub    %rax,%rdx
  406ad2:	48 89 d0             	mov    %rdx,%rax
  406ad5:	48 c1 f8 03          	sar    $0x3,%rax
  406ad9:	48 89 c2             	mov    %rax,%rdx
  406adc:	48 8b 45 c8          	mov    -0x38(%rbp),%rax
  406ae0:	48 8b 08             	mov    (%rax),%rcx
  406ae3:	48 8b 45 c8          	mov    -0x38(%rbp),%rax
  406ae7:	48 89 ce             	mov    %rcx,%rsi
  406aea:	48 89 c7             	mov    %rax,%rdi
  406aed:	e8 9c fd ff ff       	callq  40688e <_ZNSt12_Vector_baseI4nodeSaIS0_EE13_M_deallocateEPS0_m>
  406af2:	48 8b 45 c8          	mov    -0x38(%rbp),%rax
  406af6:	48 8b 55 e8          	mov    -0x18(%rbp),%rdx
  406afa:	48 89 10             	mov    %rdx,(%rax)
  406afd:	48 8b 45 c8          	mov    -0x38(%rbp),%rax
  406b01:	48 8b 55 d8          	mov    -0x28(%rbp),%rdx
  406b05:	48 89 50 08          	mov    %rdx,0x8(%rax)
  406b09:	48 8b 45 e0          	mov    -0x20(%rbp),%rax
  406b0d:	48 8d 14 c5 00 00 00 	lea    0x0(,%rax,8),%rdx
  406b14:	00 
  406b15:	48 8b 45 e8          	mov    -0x18(%rbp),%rax
  406b19:	48 01 c2             	add    %rax,%rdx
  406b1c:	48 8b 45 c8          	mov    -0x38(%rbp),%rax
  406b20:	48 89 50 10          	mov    %rdx,0x10(%rax)
  406b24:	e9 8c 00 00 00       	jmpq   406bb5 <_ZNSt6vectorI4nodeSaIS0_EE19_M_emplace_back_auxIIS0_EEEvDpOT_+0x1e3>
  406b29:	48 89 c3             	mov    %rax,%rbx
  406b2c:	e8 cf a5 ff ff       	callq  401100 <__cxa_end_catch@plt>
  406b31:	48 89 d8             	mov    %rbx,%rax
  406b34:	48 89 c7             	mov    %rax,%rdi
  406b37:	e8 54 a6 ff ff       	callq  401190 <_Unwind_Resume@plt>
  406b3c:	48 89 c7             	mov    %rax,%rdi
  406b3f:	e8 dc a5 ff ff       	callq  401120 <__cxa_begin_catch@plt>
  406b44:	48 83 7d d8 00       	cmpq   $0x0,-0x28(%rbp)
  406b49:	75 2c                	jne    406b77 <_ZNSt6vectorI4nodeSaIS0_EE19_M_emplace_back_auxIIS0_EEEvDpOT_+0x1a5>
  406b4b:	48 8b 45 c8          	mov    -0x38(%rbp),%rax
  406b4f:	48 89 c7             	mov    %rax,%rdi
  406b52:	e8 d7 eb ff ff       	callq  40572e <_ZNKSt6vectorI4nodeSaIS0_EE4sizeEv>
  406b57:	48 8d 14 c5 00 00 00 	lea    0x0(,%rax,8),%rdx
  406b5e:	00 
  406b5f:	48 8b 45 e8          	mov    -0x18(%rbp),%rax
  406b63:	48 01 c2             	add    %rax,%rdx
  406b66:	48 8b 45 c8          	mov    -0x38(%rbp),%rax
  406b6a:	48 89 d6             	mov    %rdx,%rsi
  406b6d:	48 89 c7             	mov    %rax,%rdi
  406b70:	e8 51 15 00 00       	callq  4080c6 <_ZNSt16allocator_traitsISaI4nodeEE7destroyIS0_EEvRS1_PT_>
  406b75:	eb 22                	jmp    406b99 <_ZNSt6vectorI4nodeSaIS0_EE19_M_emplace_back_auxIIS0_EEEvDpOT_+0x1c7>
  406b77:	48 8b 45 c8          	mov    -0x38(%rbp),%rax
  406b7b:	48 89 c7             	mov    %rax,%rdi
  406b7e:	e8 27 ea ff ff       	callq  4055aa <_ZNSt12_Vector_baseI4nodeSaIS0_EE19_M_get_Tp_allocatorEv>
  406b83:	48 89 c2             	mov    %rax,%rdx
  406b86:	48 8b 4d d8          	mov    -0x28(%rbp),%rcx
  406b8a:	48 8b 45 e8          	mov    -0x18(%rbp),%rax
  406b8e:	48 89 ce             	mov    %rcx,%rsi
  406b91:	48 89 c7             	mov    %rax,%rdi
  406b94:	e8 1f ea ff ff       	callq  4055b8 <_ZSt8_DestroyIP4nodeS0_EvT_S2_RSaIT0_E>
  406b99:	48 8b 45 c8          	mov    -0x38(%rbp),%rax
  406b9d:	48 8b 55 e0          	mov    -0x20(%rbp),%rdx
  406ba1:	48 8b 4d e8          	mov    -0x18(%rbp),%rcx
  406ba5:	48 89 ce             	mov    %rcx,%rsi
  406ba8:	48 89 c7             	mov    %rax,%rdi
  406bab:	e8 de fc ff ff       	callq  40688e <_ZNSt12_Vector_baseI4nodeSaIS0_EE13_M_deallocateEPS0_m>
  406bb0:	e8 2b a4 ff ff       	callq  400fe0 <__cxa_rethrow@plt>
  406bb5:	48 83 c4 38          	add    $0x38,%rsp
  406bb9:	5b                   	pop    %rbx
  406bba:	5d                   	pop    %rbp
  406bbb:	c3                   	retq   

0000000000406bbc <_ZN9__gnu_cxx17__normal_iteratorIP4nodeSt6vectorIS1_SaIS1_EEEC1ERKS2_>:
  406bbc:	55                   	push   %rbp
  406bbd:	48 89 e5             	mov    %rsp,%rbp
  406bc0:	48 89 7d f8          	mov    %rdi,-0x8(%rbp)
  406bc4:	48 89 75 f0          	mov    %rsi,-0x10(%rbp)
  406bc8:	48 8b 45 f0          	mov    -0x10(%rbp),%rax
  406bcc:	48 8b 10             	mov    (%rax),%rdx
  406bcf:	48 8b 45 f8          	mov    -0x8(%rbp),%rax
  406bd3:	48 89 10             	mov    %rdx,(%rax)
  406bd6:	5d                   	pop    %rbp
  406bd7:	c3                   	retq   

0000000000406bd8 <_ZNSt6vectorI4nodeSaIS0_EE14_M_fill_insertEN9__gnu_cxx17__normal_iteratorIPS0_S2_EEmRKS0_>:
  406bd8:	55                   	push   %rbp
  406bd9:	48 89 e5             	mov    %rsp,%rbp
  406bdc:	41 54                	push   %r12
  406bde:	53                   	push   %rbx
  406bdf:	48 83 ec 70          	sub    $0x70,%rsp
  406be3:	48 89 7d 98          	mov    %rdi,-0x68(%rbp)
  406be7:	48 89 75 90          	mov    %rsi,-0x70(%rbp)
  406beb:	48 89 55 88          	mov    %rdx,-0x78(%rbp)
  406bef:	48 89 4d 80          	mov    %rcx,-0x80(%rbp)
  406bf3:	48 83 7d 88 00       	cmpq   $0x0,-0x78(%rbp)
  406bf8:	0f 84 6b 04 00 00    	je     407069 <_ZNSt6vectorI4nodeSaIS0_EE14_M_fill_insertEN9__gnu_cxx17__normal_iteratorIPS0_S2_EEmRKS0_+0x491>
  406bfe:	48 8b 45 98          	mov    -0x68(%rbp),%rax
  406c02:	48 8b 40 10          	mov    0x10(%rax),%rax
  406c06:	48 89 c2             	mov    %rax,%rdx
  406c09:	48 8b 45 98          	mov    -0x68(%rbp),%rax
  406c0d:	48 8b 40 08          	mov    0x8(%rax),%rax
  406c11:	48 29 c2             	sub    %rax,%rdx
  406c14:	48 89 d0             	mov    %rdx,%rax
  406c17:	48 c1 f8 03          	sar    $0x3,%rax
  406c1b:	48 3b 45 88          	cmp    -0x78(%rbp),%rax
  406c1f:	0f 82 e6 01 00 00    	jb     406e0b <_ZNSt6vectorI4nodeSaIS0_EE14_M_fill_insertEN9__gnu_cxx17__normal_iteratorIPS0_S2_EEmRKS0_+0x233>
  406c25:	48 8b 45 80          	mov    -0x80(%rbp),%rax
  406c29:	48 8b 00             	mov    (%rax),%rax
  406c2c:	48 89 45 a0          	mov    %rax,-0x60(%rbp)
  406c30:	48 8b 45 98          	mov    -0x68(%rbp),%rax
  406c34:	48 89 c7             	mov    %rax,%rdi
  406c37:	e8 18 eb ff ff       	callq  405754 <_ZNSt6vectorI4nodeSaIS0_EE3endEv>
  406c3c:	48 89 45 b0          	mov    %rax,-0x50(%rbp)
  406c40:	48 8d 55 90          	lea    -0x70(%rbp),%rdx
  406c44:	48 8d 45 b0          	lea    -0x50(%rbp),%rax
  406c48:	48 89 d6             	mov    %rdx,%rsi
  406c4b:	48 89 c7             	mov    %rax,%rdi
  406c4e:	e8 98 14 00 00       	callq  4080eb <_ZN9__gnu_cxxmiIP4nodeSt6vectorIS1_SaIS1_EEEENS_17__normal_iteratorIT_T0_E15difference_typeERKS9_SC_>
  406c53:	48 89 45 c8          	mov    %rax,-0x38(%rbp)
  406c57:	48 8b 45 98          	mov    -0x68(%rbp),%rax
  406c5b:	48 8b 40 08          	mov    0x8(%rax),%rax
  406c5f:	48 89 45 d0          	mov    %rax,-0x30(%rbp)
  406c63:	48 8b 45 c8          	mov    -0x38(%rbp),%rax
  406c67:	48 3b 45 88          	cmp    -0x78(%rbp),%rax
  406c6b:	0f 86 ca 00 00 00    	jbe    406d3b <_ZNSt6vectorI4nodeSaIS0_EE14_M_fill_insertEN9__gnu_cxx17__normal_iteratorIPS0_S2_EEmRKS0_+0x163>
  406c71:	48 8b 45 98          	mov    -0x68(%rbp),%rax
  406c75:	48 89 c7             	mov    %rax,%rdi
  406c78:	e8 2d e9 ff ff       	callq  4055aa <_ZNSt12_Vector_baseI4nodeSaIS0_EE19_M_get_Tp_allocatorEv>
  406c7d:	48 89 c1             	mov    %rax,%rcx
  406c80:	48 8b 45 98          	mov    -0x68(%rbp),%rax
  406c84:	48 8b 50 08          	mov    0x8(%rax),%rdx
  406c88:	48 8b 45 98          	mov    -0x68(%rbp),%rax
  406c8c:	48 8b 40 08          	mov    0x8(%rax),%rax
  406c90:	48 8b 75 98          	mov    -0x68(%rbp),%rsi
  406c94:	48 8b 76 08          	mov    0x8(%rsi),%rsi
  406c98:	48 8b 7d 88          	mov    -0x78(%rbp),%rdi
  406c9c:	48 c1 e7 03          	shl    $0x3,%rdi
  406ca0:	48 f7 df             	neg    %rdi
  406ca3:	48 01 f7             	add    %rsi,%rdi
  406ca6:	48 89 c6             	mov    %rax,%rsi
  406ca9:	e8 80 14 00 00       	callq  40812e <_ZSt22__uninitialized_move_aIP4nodeS1_SaIS0_EET0_T_S4_S3_RT1_>
  406cae:	48 8b 45 98          	mov    -0x68(%rbp),%rax
  406cb2:	48 8b 40 08          	mov    0x8(%rax),%rax
  406cb6:	48 8b 55 88          	mov    -0x78(%rbp),%rdx
  406cba:	48 c1 e2 03          	shl    $0x3,%rdx
  406cbe:	48 01 c2             	add    %rax,%rdx
  406cc1:	48 8b 45 98          	mov    -0x68(%rbp),%rax
  406cc5:	48 89 50 08          	mov    %rdx,0x8(%rax)
  406cc9:	48 8b 45 88          	mov    -0x78(%rbp),%rax
  406ccd:	48 c1 e0 03          	shl    $0x3,%rax
  406cd1:	48 f7 d8             	neg    %rax
  406cd4:	48 89 c2             	mov    %rax,%rdx
  406cd7:	48 8b 45 d0          	mov    -0x30(%rbp),%rax
  406cdb:	48 8d 1c 02          	lea    (%rdx,%rax,1),%rbx
  406cdf:	48 8d 45 90          	lea    -0x70(%rbp),%rax
  406ce3:	48 89 c7             	mov    %rax,%rdi
  406ce6:	e8 91 14 00 00       	callq  40817c <_ZNK9__gnu_cxx17__normal_iteratorIP4nodeSt6vectorIS1_SaIS1_EEE4baseEv>
  406ceb:	48 8b 00             	mov    (%rax),%rax
  406cee:	48 8b 55 d0          	mov    -0x30(%rbp),%rdx
  406cf2:	48 89 de             	mov    %rbx,%rsi
  406cf5:	48 89 c7             	mov    %rax,%rdi
  406cf8:	e8 8d 14 00 00       	callq  40818a <_ZSt13move_backwardIP4nodeS1_ET0_T_S3_S2_>
  406cfd:	48 8d 45 90          	lea    -0x70(%rbp),%rax
  406d01:	48 89 c7             	mov    %rax,%rdi
  406d04:	e8 73 14 00 00       	callq  40817c <_ZNK9__gnu_cxx17__normal_iteratorIP4nodeSt6vectorIS1_SaIS1_EEE4baseEv>
  406d09:	48 8b 00             	mov    (%rax),%rax
  406d0c:	48 8b 55 88          	mov    -0x78(%rbp),%rdx
  406d10:	48 c1 e2 03          	shl    $0x3,%rdx
  406d14:	48 8d 1c 10          	lea    (%rax,%rdx,1),%rbx
  406d18:	48 8d 45 90          	lea    -0x70(%rbp),%rax
  406d1c:	48 89 c7             	mov    %rax,%rdi
  406d1f:	e8 58 14 00 00       	callq  40817c <_ZNK9__gnu_cxx17__normal_iteratorIP4nodeSt6vectorIS1_SaIS1_EEE4baseEv>
  406d24:	48 8b 00             	mov    (%rax),%rax
  406d27:	48 8d 55 a0          	lea    -0x60(%rbp),%rdx
  406d2b:	48 89 de             	mov    %rbx,%rsi
  406d2e:	48 89 c7             	mov    %rax,%rdi
  406d31:	e8 9a 14 00 00       	callq  4081d0 <_ZSt4fillIP4nodeS0_EvT_S2_RKT0_>
  406d36:	e9 82 02 00 00       	jmpq   406fbd <_ZNSt6vectorI4nodeSaIS0_EE14_M_fill_insertEN9__gnu_cxx17__normal_iteratorIPS0_S2_EEmRKS0_+0x3e5>
  406d3b:	48 8b 45 98          	mov    -0x68(%rbp),%rax
  406d3f:	48 89 c7             	mov    %rax,%rdi
  406d42:	e8 63 e8 ff ff       	callq  4055aa <_ZNSt12_Vector_baseI4nodeSaIS0_EE19_M_get_Tp_allocatorEv>
  406d47:	48 89 c1             	mov    %rax,%rcx
  406d4a:	48 8b 45 c8          	mov    -0x38(%rbp),%rax
  406d4e:	48 8b 55 88          	mov    -0x78(%rbp),%rdx
  406d52:	48 89 d6             	mov    %rdx,%rsi
  406d55:	48 29 c6             	sub    %rax,%rsi
  406d58:	48 8b 45 98          	mov    -0x68(%rbp),%rax
  406d5c:	48 8b 40 08          	mov    0x8(%rax),%rax
  406d60:	48 8d 55 a0          	lea    -0x60(%rbp),%rdx
  406d64:	48 89 c7             	mov    %rax,%rdi
  406d67:	e8 aa 14 00 00       	callq  408216 <_ZSt24__uninitialized_fill_n_aIP4nodemS0_S0_EvT_T0_RKT1_RSaIT2_E>
  406d6c:	48 8b 45 98          	mov    -0x68(%rbp),%rax
  406d70:	48 8b 40 08          	mov    0x8(%rax),%rax
  406d74:	48 8b 55 c8          	mov    -0x38(%rbp),%rdx
  406d78:	48 8b 4d 88          	mov    -0x78(%rbp),%rcx
  406d7c:	48 29 d1             	sub    %rdx,%rcx
  406d7f:	48 89 ca             	mov    %rcx,%rdx
  406d82:	48 c1 e2 03          	shl    $0x3,%rdx
  406d86:	48 01 c2             	add    %rax,%rdx
  406d89:	48 8b 45 98          	mov    -0x68(%rbp),%rax
  406d8d:	48 89 50 08          	mov    %rdx,0x8(%rax)
  406d91:	48 8b 45 98          	mov    -0x68(%rbp),%rax
  406d95:	48 89 c7             	mov    %rax,%rdi
  406d98:	e8 0d e8 ff ff       	callq  4055aa <_ZNSt12_Vector_baseI4nodeSaIS0_EE19_M_get_Tp_allocatorEv>
  406d9d:	49 89 c4             	mov    %rax,%r12
  406da0:	48 8b 45 98          	mov    -0x68(%rbp),%rax
  406da4:	48 8b 58 08          	mov    0x8(%rax),%rbx
  406da8:	48 8d 45 90          	lea    -0x70(%rbp),%rax
  406dac:	48 89 c7             	mov    %rax,%rdi
  406daf:	e8 c8 13 00 00       	callq  40817c <_ZNK9__gnu_cxx17__normal_iteratorIP4nodeSt6vectorIS1_SaIS1_EEE4baseEv>
  406db4:	48 8b 00             	mov    (%rax),%rax
  406db7:	48 8b 75 d0          	mov    -0x30(%rbp),%rsi
  406dbb:	4c 89 e1             	mov    %r12,%rcx
  406dbe:	48 89 da             	mov    %rbx,%rdx
  406dc1:	48 89 c7             	mov    %rax,%rdi
  406dc4:	e8 65 13 00 00       	callq  40812e <_ZSt22__uninitialized_move_aIP4nodeS1_SaIS0_EET0_T_S4_S3_RT1_>
  406dc9:	48 8b 45 98          	mov    -0x68(%rbp),%rax
  406dcd:	48 8b 40 08          	mov    0x8(%rax),%rax
  406dd1:	48 8b 55 c8          	mov    -0x38(%rbp),%rdx
  406dd5:	48 c1 e2 03          	shl    $0x3,%rdx
  406dd9:	48 01 c2             	add    %rax,%rdx
  406ddc:	48 8b 45 98          	mov    -0x68(%rbp),%rax
  406de0:	48 89 50 08          	mov    %rdx,0x8(%rax)
  406de4:	48 8d 45 90          	lea    -0x70(%rbp),%rax
  406de8:	48 89 c7             	mov    %rax,%rdi
  406deb:	e8 8c 13 00 00       	callq  40817c <_ZNK9__gnu_cxx17__normal_iteratorIP4nodeSt6vectorIS1_SaIS1_EEE4baseEv>
  406df0:	48 8b 00             	mov    (%rax),%rax
  406df3:	48 8d 55 a0          	lea    -0x60(%rbp),%rdx
  406df7:	48 8b 4d d0          	mov    -0x30(%rbp),%rcx
  406dfb:	48 89 ce             	mov    %rcx,%rsi
  406dfe:	48 89 c7             	mov    %rax,%rdi
  406e01:	e8 ca 13 00 00       	callq  4081d0 <_ZSt4fillIP4nodeS0_EvT_S2_RKT0_>
  406e06:	e9 b2 01 00 00       	jmpq   406fbd <_ZNSt6vectorI4nodeSaIS0_EE14_M_fill_insertEN9__gnu_cxx17__normal_iteratorIPS0_S2_EEmRKS0_+0x3e5>
  406e0b:	48 8b 4d 88          	mov    -0x78(%rbp),%rcx
  406e0f:	48 8b 45 98          	mov    -0x68(%rbp),%rax
  406e13:	ba d8 96 40 00       	mov    $0x4096d8,%edx
  406e18:	48 89 ce             	mov    %rcx,%rsi
  406e1b:	48 89 c7             	mov    %rax,%rdi
  406e1e:	e8 53 11 00 00       	callq  407f76 <_ZNKSt6vectorI4nodeSaIS0_EE12_M_check_lenEmPKc>
  406e23:	48 89 45 d8          	mov    %rax,-0x28(%rbp)
  406e27:	48 8b 45 98          	mov    -0x68(%rbp),%rax
  406e2b:	48 89 c7             	mov    %rax,%rdi
  406e2e:	e8 15 14 00 00       	callq  408248 <_ZNSt6vectorI4nodeSaIS0_EE5beginEv>
  406e33:	48 89 45 b0          	mov    %rax,-0x50(%rbp)
  406e37:	48 8d 55 b0          	lea    -0x50(%rbp),%rdx
  406e3b:	48 8d 45 90          	lea    -0x70(%rbp),%rax
  406e3f:	48 89 d6             	mov    %rdx,%rsi
  406e42:	48 89 c7             	mov    %rax,%rdi
  406e45:	e8 a1 12 00 00       	callq  4080eb <_ZN9__gnu_cxxmiIP4nodeSt6vectorIS1_SaIS1_EEEENS_17__normal_iteratorIT_T0_E15difference_typeERKS9_SC_>
  406e4a:	48 89 45 e0          	mov    %rax,-0x20(%rbp)
  406e4e:	48 8b 45 98          	mov    -0x68(%rbp),%rax
  406e52:	48 8b 55 d8          	mov    -0x28(%rbp),%rdx
  406e56:	48 89 d6             	mov    %rdx,%rsi
  406e59:	48 89 c7             	mov    %rax,%rdi
  406e5c:	e8 df 11 00 00       	callq  408040 <_ZNSt12_Vector_baseI4nodeSaIS0_EE11_M_allocateEm>
  406e61:	48 89 45 e8          	mov    %rax,-0x18(%rbp)
  406e65:	48 8b 45 e8          	mov    -0x18(%rbp),%rax
  406e69:	48 89 45 c0          	mov    %rax,-0x40(%rbp)
  406e6d:	48 8b 45 98          	mov    -0x68(%rbp),%rax
  406e71:	48 89 c7             	mov    %rax,%rdi
  406e74:	e8 31 e7 ff ff       	callq  4055aa <_ZNSt12_Vector_baseI4nodeSaIS0_EE19_M_get_Tp_allocatorEv>
  406e79:	48 89 c1             	mov    %rax,%rcx
  406e7c:	48 8b 45 e0          	mov    -0x20(%rbp),%rax
  406e80:	48 8d 14 c5 00 00 00 	lea    0x0(,%rax,8),%rdx
  406e87:	00 
  406e88:	48 8b 45 e8          	mov    -0x18(%rbp),%rax
  406e8c:	48 8d 3c 02          	lea    (%rdx,%rax,1),%rdi
  406e90:	48 8b 55 80          	mov    -0x80(%rbp),%rdx
  406e94:	48 8b 45 88          	mov    -0x78(%rbp),%rax
  406e98:	48 89 c6             	mov    %rax,%rsi
  406e9b:	e8 76 13 00 00       	callq  408216 <_ZSt24__uninitialized_fill_n_aIP4nodemS0_S0_EvT_T0_RKT1_RSaIT2_E>
  406ea0:	48 c7 45 c0 00 00 00 	movq   $0x0,-0x40(%rbp)
  406ea7:	00 
  406ea8:	48 8b 45 98          	mov    -0x68(%rbp),%rax
  406eac:	48 89 c7             	mov    %rax,%rdi
  406eaf:	e8 f6 e6 ff ff       	callq  4055aa <_ZNSt12_Vector_baseI4nodeSaIS0_EE19_M_get_Tp_allocatorEv>
  406eb4:	48 89 c3             	mov    %rax,%rbx
  406eb7:	48 8d 45 90          	lea    -0x70(%rbp),%rax
  406ebb:	48 89 c7             	mov    %rax,%rdi
  406ebe:	e8 b9 12 00 00       	callq  40817c <_ZNK9__gnu_cxx17__normal_iteratorIP4nodeSt6vectorIS1_SaIS1_EEE4baseEv>
  406ec3:	48 8b 30             	mov    (%rax),%rsi
  406ec6:	48 8b 45 98          	mov    -0x68(%rbp),%rax
  406eca:	48 8b 00             	mov    (%rax),%rax
  406ecd:	48 8b 55 e8          	mov    -0x18(%rbp),%rdx
  406ed1:	48 89 d9             	mov    %rbx,%rcx
  406ed4:	48 89 c7             	mov    %rax,%rdi
  406ed7:	e8 9c 11 00 00       	callq  408078 <_ZSt34__uninitialized_move_if_noexcept_aIP4nodeS1_SaIS0_EET0_T_S4_S3_RT1_>
  406edc:	48 89 45 c0          	mov    %rax,-0x40(%rbp)
  406ee0:	48 8b 45 88          	mov    -0x78(%rbp),%rax
  406ee4:	48 c1 e0 03          	shl    $0x3,%rax
  406ee8:	48 01 45 c0          	add    %rax,-0x40(%rbp)
  406eec:	48 8b 45 98          	mov    -0x68(%rbp),%rax
  406ef0:	48 89 c7             	mov    %rax,%rdi
  406ef3:	e8 b2 e6 ff ff       	callq  4055aa <_ZNSt12_Vector_baseI4nodeSaIS0_EE19_M_get_Tp_allocatorEv>
  406ef8:	49 89 c4             	mov    %rax,%r12
  406efb:	48 8b 45 98          	mov    -0x68(%rbp),%rax
  406eff:	48 8b 58 08          	mov    0x8(%rax),%rbx
  406f03:	48 8d 45 90          	lea    -0x70(%rbp),%rax
  406f07:	48 89 c7             	mov    %rax,%rdi
  406f0a:	e8 6d 12 00 00       	callq  40817c <_ZNK9__gnu_cxx17__normal_iteratorIP4nodeSt6vectorIS1_SaIS1_EEE4baseEv>
  406f0f:	48 8b 00             	mov    (%rax),%rax
  406f12:	48 8b 55 c0          	mov    -0x40(%rbp),%rdx
  406f16:	4c 89 e1             	mov    %r12,%rcx
  406f19:	48 89 de             	mov    %rbx,%rsi
  406f1c:	48 89 c7             	mov    %rax,%rdi
  406f1f:	e8 54 11 00 00       	callq  408078 <_ZSt34__uninitialized_move_if_noexcept_aIP4nodeS1_SaIS0_EET0_T_S4_S3_RT1_>
  406f24:	48 89 45 c0          	mov    %rax,-0x40(%rbp)
  406f28:	48 8b 45 98          	mov    -0x68(%rbp),%rax
  406f2c:	48 89 c7             	mov    %rax,%rdi
  406f2f:	e8 76 e6 ff ff       	callq  4055aa <_ZNSt12_Vector_baseI4nodeSaIS0_EE19_M_get_Tp_allocatorEv>
  406f34:	48 89 c2             	mov    %rax,%rdx
  406f37:	48 8b 45 98          	mov    -0x68(%rbp),%rax
  406f3b:	48 8b 48 08          	mov    0x8(%rax),%rcx
  406f3f:	48 8b 45 98          	mov    -0x68(%rbp),%rax
  406f43:	48 8b 00             	mov    (%rax),%rax
  406f46:	48 89 ce             	mov    %rcx,%rsi
  406f49:	48 89 c7             	mov    %rax,%rdi
  406f4c:	e8 67 e6 ff ff       	callq  4055b8 <_ZSt8_DestroyIP4nodeS0_EvT_S2_RSaIT0_E>
  406f51:	48 8b 45 98          	mov    -0x68(%rbp),%rax
  406f55:	48 8b 40 10          	mov    0x10(%rax),%rax
  406f59:	48 89 c2             	mov    %rax,%rdx
  406f5c:	48 8b 45 98          	mov    -0x68(%rbp),%rax
  406f60:	48 8b 00             	mov    (%rax),%rax
  406f63:	48 29 c2             	sub    %rax,%rdx
  406f66:	48 89 d0             	mov    %rdx,%rax
  406f69:	48 c1 f8 03          	sar    $0x3,%rax
  406f6d:	48 89 c2             	mov    %rax,%rdx
  406f70:	48 8b 45 98          	mov    -0x68(%rbp),%rax
  406f74:	48 8b 08             	mov    (%rax),%rcx
  406f77:	48 8b 45 98          	mov    -0x68(%rbp),%rax
  406f7b:	48 89 ce             	mov    %rcx,%rsi
  406f7e:	48 89 c7             	mov    %rax,%rdi
  406f81:	e8 08 f9 ff ff       	callq  40688e <_ZNSt12_Vector_baseI4nodeSaIS0_EE13_M_deallocateEPS0_m>
  406f86:	48 8b 45 98          	mov    -0x68(%rbp),%rax
  406f8a:	48 8b 55 e8          	mov    -0x18(%rbp),%rdx
  406f8e:	48 89 10             	mov    %rdx,(%rax)
  406f91:	48 8b 45 98          	mov    -0x68(%rbp),%rax
  406f95:	48 8b 55 c0          	mov    -0x40(%rbp),%rdx
  406f99:	48 89 50 08          	mov    %rdx,0x8(%rax)
  406f9d:	48 8b 45 d8          	mov    -0x28(%rbp),%rax
  406fa1:	48 8d 14 c5 00 00 00 	lea    0x0(,%rax,8),%rdx
  406fa8:	00 
  406fa9:	48 8b 45 e8          	mov    -0x18(%rbp),%rax
  406fad:	48 01 c2             	add    %rax,%rdx
  406fb0:	48 8b 45 98          	mov    -0x68(%rbp),%rax
  406fb4:	48 89 50 10          	mov    %rdx,0x10(%rax)
  406fb8:	e9 ac 00 00 00       	jmpq   407069 <_ZNSt6vectorI4nodeSaIS0_EE14_M_fill_insertEN9__gnu_cxx17__normal_iteratorIPS0_S2_EEmRKS0_+0x491>
  406fbd:	e9 a7 00 00 00       	jmpq   407069 <_ZNSt6vectorI4nodeSaIS0_EE14_M_fill_insertEN9__gnu_cxx17__normal_iteratorIPS0_S2_EEmRKS0_+0x491>
  406fc2:	48 89 c3             	mov    %rax,%rbx
  406fc5:	e8 36 a1 ff ff       	callq  401100 <__cxa_end_catch@plt>
  406fca:	48 89 d8             	mov    %rbx,%rax
  406fcd:	48 89 c7             	mov    %rax,%rdi
  406fd0:	e8 bb a1 ff ff       	callq  401190 <_Unwind_Resume@plt>
  406fd5:	48 89 c7             	mov    %rax,%rdi
  406fd8:	e8 43 a1 ff ff       	callq  401120 <__cxa_begin_catch@plt>
  406fdd:	48 83 7d c0 00       	cmpq   $0x0,-0x40(%rbp)
  406fe2:	75 47                	jne    40702b <_ZNSt6vectorI4nodeSaIS0_EE14_M_fill_insertEN9__gnu_cxx17__normal_iteratorIPS0_S2_EEmRKS0_+0x453>
  406fe4:	48 8b 45 98          	mov    -0x68(%rbp),%rax
  406fe8:	48 89 c7             	mov    %rax,%rdi
  406feb:	e8 ba e5 ff ff       	callq  4055aa <_ZNSt12_Vector_baseI4nodeSaIS0_EE19_M_get_Tp_allocatorEv>
  406ff0:	48 8b 55 88          	mov    -0x78(%rbp),%rdx
  406ff4:	48 8b 4d e0          	mov    -0x20(%rbp),%rcx
  406ff8:	48 01 ca             	add    %rcx,%rdx
  406ffb:	48 8d 0c d5 00 00 00 	lea    0x0(,%rdx,8),%rcx
  407002:	00 
  407003:	48 8b 55 e8          	mov    -0x18(%rbp),%rdx
  407007:	48 8d 34 11          	lea    (%rcx,%rdx,1),%rsi
  40700b:	48 8b 55 e0          	mov    -0x20(%rbp),%rdx
  40700f:	48 8d 0c d5 00 00 00 	lea    0x0(,%rdx,8),%rcx
  407016:	00 
  407017:	48 8b 55 e8          	mov    -0x18(%rbp),%rdx
  40701b:	48 01 d1             	add    %rdx,%rcx
  40701e:	48 89 c2             	mov    %rax,%rdx
  407021:	48 89 cf             	mov    %rcx,%rdi
  407024:	e8 8f e5 ff ff       	callq  4055b8 <_ZSt8_DestroyIP4nodeS0_EvT_S2_RSaIT0_E>
  407029:	eb 22                	jmp    40704d <_ZNSt6vectorI4nodeSaIS0_EE14_M_fill_insertEN9__gnu_cxx17__normal_iteratorIPS0_S2_EEmRKS0_+0x475>
  40702b:	48 8b 45 98          	mov    -0x68(%rbp),%rax
  40702f:	48 89 c7             	mov    %rax,%rdi
  407032:	e8 73 e5 ff ff       	callq  4055aa <_ZNSt12_Vector_baseI4nodeSaIS0_EE19_M_get_Tp_allocatorEv>
  407037:	48 89 c2             	mov    %rax,%rdx
  40703a:	48 8b 4d c0          	mov    -0x40(%rbp),%rcx
  40703e:	48 8b 45 e8          	mov    -0x18(%rbp),%rax
  407042:	48 89 ce             	mov    %rcx,%rsi
  407045:	48 89 c7             	mov    %rax,%rdi
  407048:	e8 6b e5 ff ff       	callq  4055b8 <_ZSt8_DestroyIP4nodeS0_EvT_S2_RSaIT0_E>
  40704d:	48 8b 45 98          	mov    -0x68(%rbp),%rax
  407051:	48 8b 55 d8          	mov    -0x28(%rbp),%rdx
  407055:	48 8b 4d e8          	mov    -0x18(%rbp),%rcx
  407059:	48 89 ce             	mov    %rcx,%rsi
  40705c:	48 89 c7             	mov    %rax,%rdi
  40705f:	e8 2a f8 ff ff       	callq  40688e <_ZNSt12_Vector_baseI4nodeSaIS0_EE13_M_deallocateEPS0_m>
  407064:	e8 77 9f ff ff       	callq  400fe0 <__cxa_rethrow@plt>
  407069:	48 83 c4 70          	add    $0x70,%rsp
  40706d:	5b                   	pop    %rbx
  40706e:	41 5c                	pop    %r12
  407070:	5d                   	pop    %rbp
  407071:	c3                   	retq   

0000000000407072 <_ZNSt16allocator_traitsISaIiEE12_S_constructIiIRKiEEENSt9enable_ifIXsrNS1_18__construct_helperIT_IDpT0_EEE5valueEvE4typeERS0_PS7_DpOS8_>:
  407072:	55                   	push   %rbp
  407073:	48 89 e5             	mov    %rsp,%rbp
  407076:	48 83 ec 20          	sub    $0x20,%rsp
  40707a:	48 89 7d f8          	mov    %rdi,-0x8(%rbp)
  40707e:	48 89 75 f0          	mov    %rsi,-0x10(%rbp)
  407082:	48 89 55 e8          	mov    %rdx,-0x18(%rbp)
  407086:	48 8b 45 e8          	mov    -0x18(%rbp),%rax
  40708a:	48 89 c7             	mov    %rax,%rdi
  40708d:	e8 10 db ff ff       	callq  404ba2 <_ZSt7forwardIRKiEOT_RNSt16remove_referenceIS2_E4typeE>
  407092:	48 89 c2             	mov    %rax,%rdx
  407095:	48 8b 4d f0          	mov    -0x10(%rbp),%rcx
  407099:	48 8b 45 f8          	mov    -0x8(%rbp),%rax
  40709d:	48 89 ce             	mov    %rcx,%rsi
  4070a0:	48 89 c7             	mov    %rax,%rdi
  4070a3:	e8 c6 11 00 00       	callq  40826e <_ZN9__gnu_cxx13new_allocatorIiE9constructIiIRKiEEEvPT_DpOT0_>
  4070a8:	c9                   	leaveq 
  4070a9:	c3                   	retq   

00000000004070aa <_ZNKSt6vectorIiSaIiEE12_M_check_lenEmPKc>:
  4070aa:	55                   	push   %rbp
  4070ab:	48 89 e5             	mov    %rsp,%rbp
  4070ae:	53                   	push   %rbx
  4070af:	48 83 ec 38          	sub    $0x38,%rsp
  4070b3:	48 89 7d d8          	mov    %rdi,-0x28(%rbp)
  4070b7:	48 89 75 d0          	mov    %rsi,-0x30(%rbp)
  4070bb:	48 89 55 c8          	mov    %rdx,-0x38(%rbp)
  4070bf:	48 8b 45 d8          	mov    -0x28(%rbp),%rax
  4070c3:	48 89 c7             	mov    %rax,%rdi
  4070c6:	e8 e5 11 00 00       	callq  4082b0 <_ZNKSt6vectorIiSaIiEE8max_sizeEv>
  4070cb:	48 89 c3             	mov    %rax,%rbx
  4070ce:	48 8b 45 d8          	mov    -0x28(%rbp),%rax
  4070d2:	48 89 c7             	mov    %rax,%rdi
  4070d5:	e8 32 e0 ff ff       	callq  40510c <_ZNKSt6vectorIiSaIiEE4sizeEv>
  4070da:	48 29 c3             	sub    %rax,%rbx
  4070dd:	48 89 da             	mov    %rbx,%rdx
  4070e0:	48 8b 45 d0          	mov    -0x30(%rbp),%rax
  4070e4:	48 39 c2             	cmp    %rax,%rdx
  4070e7:	0f 92 c0             	setb   %al
  4070ea:	84 c0                	test   %al,%al
  4070ec:	74 0c                	je     4070fa <_ZNKSt6vectorIiSaIiEE12_M_check_lenEmPKc+0x50>
  4070ee:	48 8b 45 c8          	mov    -0x38(%rbp),%rax
  4070f2:	48 89 c7             	mov    %rax,%rdi
  4070f5:	e8 36 9e ff ff       	callq  400f30 <_ZSt20__throw_length_errorPKc@plt>
  4070fa:	48 8b 45 d8          	mov    -0x28(%rbp),%rax
  4070fe:	48 89 c7             	mov    %rax,%rdi
  407101:	e8 06 e0 ff ff       	callq  40510c <_ZNKSt6vectorIiSaIiEE4sizeEv>
  407106:	48 89 c3             	mov    %rax,%rbx
  407109:	48 8b 45 d8          	mov    -0x28(%rbp),%rax
  40710d:	48 89 c7             	mov    %rax,%rdi
  407110:	e8 f7 df ff ff       	callq  40510c <_ZNKSt6vectorIiSaIiEE4sizeEv>
  407115:	48 89 45 e0          	mov    %rax,-0x20(%rbp)
  407119:	48 8d 55 d0          	lea    -0x30(%rbp),%rdx
  40711d:	48 8d 45 e0          	lea    -0x20(%rbp),%rax
  407121:	48 89 d6             	mov    %rdx,%rsi
  407124:	48 89 c7             	mov    %rax,%rdi
  407127:	e8 74 b6 ff ff       	callq  4027a0 <_ZSt3maxImERKT_S2_S2_>
  40712c:	48 8b 00             	mov    (%rax),%rax
  40712f:	48 01 d8             	add    %rbx,%rax
  407132:	48 89 45 e8          	mov    %rax,-0x18(%rbp)
  407136:	48 8b 45 d8          	mov    -0x28(%rbp),%rax
  40713a:	48 89 c7             	mov    %rax,%rdi
  40713d:	e8 ca df ff ff       	callq  40510c <_ZNKSt6vectorIiSaIiEE4sizeEv>
  407142:	48 3b 45 e8          	cmp    -0x18(%rbp),%rax
  407146:	77 12                	ja     40715a <_ZNKSt6vectorIiSaIiEE12_M_check_lenEmPKc+0xb0>
  407148:	48 8b 45 d8          	mov    -0x28(%rbp),%rax
  40714c:	48 89 c7             	mov    %rax,%rdi
  40714f:	e8 5c 11 00 00       	callq  4082b0 <_ZNKSt6vectorIiSaIiEE8max_sizeEv>
  407154:	48 3b 45 e8          	cmp    -0x18(%rbp),%rax
  407158:	73 0e                	jae    407168 <_ZNKSt6vectorIiSaIiEE12_M_check_lenEmPKc+0xbe>
  40715a:	48 8b 45 d8          	mov    -0x28(%rbp),%rax
  40715e:	48 89 c7             	mov    %rax,%rdi
  407161:	e8 4a 11 00 00       	callq  4082b0 <_ZNKSt6vectorIiSaIiEE8max_sizeEv>
  407166:	eb 04                	jmp    40716c <_ZNKSt6vectorIiSaIiEE12_M_check_lenEmPKc+0xc2>
  407168:	48 8b 45 e8          	mov    -0x18(%rbp),%rax
  40716c:	48 83 c4 38          	add    $0x38,%rsp
  407170:	5b                   	pop    %rbx
  407171:	5d                   	pop    %rbp
  407172:	c3                   	retq   
  407173:	90                   	nop

0000000000407174 <_ZNSt12_Vector_baseIiSaIiEE11_M_allocateEm>:
  407174:	55                   	push   %rbp
  407175:	48 89 e5             	mov    %rsp,%rbp
  407178:	48 83 ec 10          	sub    $0x10,%rsp
  40717c:	48 89 7d f8          	mov    %rdi,-0x8(%rbp)
  407180:	48 89 75 f0          	mov    %rsi,-0x10(%rbp)
  407184:	48 83 7d f0 00       	cmpq   $0x0,-0x10(%rbp)
  407189:	74 1a                	je     4071a5 <_ZNSt12_Vector_baseIiSaIiEE11_M_allocateEm+0x31>
  40718b:	48 8b 45 f8          	mov    -0x8(%rbp),%rax
  40718f:	48 8b 4d f0          	mov    -0x10(%rbp),%rcx
  407193:	ba 00 00 00 00       	mov    $0x0,%edx
  407198:	48 89 ce             	mov    %rcx,%rsi
  40719b:	48 89 c7             	mov    %rax,%rdi
  40719e:	e8 2f 11 00 00       	callq  4082d2 <_ZN9__gnu_cxx13new_allocatorIiE8allocateEmPKv>
  4071a3:	eb 05                	jmp    4071aa <_ZNSt12_Vector_baseIiSaIiEE11_M_allocateEm+0x36>
  4071a5:	b8 00 00 00 00       	mov    $0x0,%eax
  4071aa:	c9                   	leaveq 
  4071ab:	c3                   	retq   

00000000004071ac <_ZSt34__uninitialized_move_if_noexcept_aIPiS0_SaIiEET0_T_S3_S2_RT1_>:
  4071ac:	55                   	push   %rbp
  4071ad:	48 89 e5             	mov    %rsp,%rbp
  4071b0:	53                   	push   %rbx
  4071b1:	48 83 ec 28          	sub    $0x28,%rsp
  4071b5:	48 89 7d e8          	mov    %rdi,-0x18(%rbp)
  4071b9:	48 89 75 e0          	mov    %rsi,-0x20(%rbp)
  4071bd:	48 89 55 d8          	mov    %rdx,-0x28(%rbp)
  4071c1:	48 89 4d d0          	mov    %rcx,-0x30(%rbp)
  4071c5:	48 8b 45 e0          	mov    -0x20(%rbp),%rax
  4071c9:	48 89 c7             	mov    %rax,%rdi
  4071cc:	e8 43 11 00 00       	callq  408314 <_ZSt32__make_move_if_noexcept_iteratorIPiSt13move_iteratorIS0_EET0_T_>
  4071d1:	48 89 c3             	mov    %rax,%rbx
  4071d4:	48 8b 45 e8          	mov    -0x18(%rbp),%rax
  4071d8:	48 89 c7             	mov    %rax,%rdi
  4071db:	e8 34 11 00 00       	callq  408314 <_ZSt32__make_move_if_noexcept_iteratorIPiSt13move_iteratorIS0_EET0_T_>
  4071e0:	48 8b 4d d0          	mov    -0x30(%rbp),%rcx
  4071e4:	48 8b 55 d8          	mov    -0x28(%rbp),%rdx
  4071e8:	48 89 de             	mov    %rbx,%rsi
  4071eb:	48 89 c7             	mov    %rax,%rdi
  4071ee:	e8 46 11 00 00       	callq  408339 <_ZSt22__uninitialized_copy_aISt13move_iteratorIPiES1_iET0_T_S4_S3_RSaIT1_E>
  4071f3:	48 83 c4 28          	add    $0x28,%rsp
  4071f7:	5b                   	pop    %rbx
  4071f8:	5d                   	pop    %rbp
  4071f9:	c3                   	retq   

00000000004071fa <_ZNSt6vectorIiSaIiEE14_M_fill_insertEN9__gnu_cxx17__normal_iteratorIPiS1_EEmRKi>:
  4071fa:	55                   	push   %rbp
  4071fb:	48 89 e5             	mov    %rsp,%rbp
  4071fe:	41 54                	push   %r12
  407200:	53                   	push   %rbx
  407201:	48 83 ec 70          	sub    $0x70,%rsp
  407205:	48 89 7d 98          	mov    %rdi,-0x68(%rbp)
  407209:	48 89 75 90          	mov    %rsi,-0x70(%rbp)
  40720d:	48 89 55 88          	mov    %rdx,-0x78(%rbp)
  407211:	48 89 4d 80          	mov    %rcx,-0x80(%rbp)
  407215:	48 83 7d 88 00       	cmpq   $0x0,-0x78(%rbp)
  40721a:	0f 84 69 04 00 00    	je     407689 <_ZNSt6vectorIiSaIiEE14_M_fill_insertEN9__gnu_cxx17__normal_iteratorIPiS1_EEmRKi+0x48f>
  407220:	48 8b 45 98          	mov    -0x68(%rbp),%rax
  407224:	48 8b 40 10          	mov    0x10(%rax),%rax
  407228:	48 89 c2             	mov    %rax,%rdx
  40722b:	48 8b 45 98          	mov    -0x68(%rbp),%rax
  40722f:	48 8b 40 08          	mov    0x8(%rax),%rax
  407233:	48 29 c2             	sub    %rax,%rdx
  407236:	48 89 d0             	mov    %rdx,%rax
  407239:	48 c1 f8 02          	sar    $0x2,%rax
  40723d:	48 3b 45 88          	cmp    -0x78(%rbp),%rax
  407241:	0f 82 e4 01 00 00    	jb     40742b <_ZNSt6vectorIiSaIiEE14_M_fill_insertEN9__gnu_cxx17__normal_iteratorIPiS1_EEmRKi+0x231>
  407247:	48 8b 45 80          	mov    -0x80(%rbp),%rax
  40724b:	8b 00                	mov    (%rax),%eax
  40724d:	89 45 ac             	mov    %eax,-0x54(%rbp)
  407250:	48 8b 45 98          	mov    -0x68(%rbp),%rax
  407254:	48 89 c7             	mov    %rax,%rdi
  407257:	e8 d6 de ff ff       	callq  405132 <_ZNSt6vectorIiSaIiEE3endEv>
  40725c:	48 89 45 b0          	mov    %rax,-0x50(%rbp)
  407260:	48 8d 55 90          	lea    -0x70(%rbp),%rdx
  407264:	48 8d 45 b0          	lea    -0x50(%rbp),%rax
  407268:	48 89 d6             	mov    %rdx,%rsi
  40726b:	48 89 c7             	mov    %rax,%rdi
  40726e:	e8 8c 0b 00 00       	callq  407dff <_ZN9__gnu_cxxmiIPiSt6vectorIiSaIiEEEENS_17__normal_iteratorIT_T0_E15difference_typeERKS8_SB_>
  407273:	48 89 45 c8          	mov    %rax,-0x38(%rbp)
  407277:	48 8b 45 98          	mov    -0x68(%rbp),%rax
  40727b:	48 8b 40 08          	mov    0x8(%rax),%rax
  40727f:	48 89 45 d0          	mov    %rax,-0x30(%rbp)
  407283:	48 8b 45 c8          	mov    -0x38(%rbp),%rax
  407287:	48 3b 45 88          	cmp    -0x78(%rbp),%rax
  40728b:	0f 86 ca 00 00 00    	jbe    40735b <_ZNSt6vectorIiSaIiEE14_M_fill_insertEN9__gnu_cxx17__normal_iteratorIPiS1_EEmRKi+0x161>
  407291:	48 8b 45 98          	mov    -0x68(%rbp),%rax
  407295:	48 89 c7             	mov    %rax,%rdi
  407298:	e8 c9 e3 ff ff       	callq  405666 <_ZNSt12_Vector_baseIiSaIiEE19_M_get_Tp_allocatorEv>
  40729d:	48 89 c1             	mov    %rax,%rcx
  4072a0:	48 8b 45 98          	mov    -0x68(%rbp),%rax
  4072a4:	48 8b 50 08          	mov    0x8(%rax),%rdx
  4072a8:	48 8b 45 98          	mov    -0x68(%rbp),%rax
  4072ac:	48 8b 40 08          	mov    0x8(%rax),%rax
  4072b0:	48 8b 75 98          	mov    -0x68(%rbp),%rsi
  4072b4:	48 8b 76 08          	mov    0x8(%rsi),%rsi
  4072b8:	48 8b 7d 88          	mov    -0x78(%rbp),%rdi
  4072bc:	48 c1 e7 02          	shl    $0x2,%rdi
  4072c0:	48 f7 df             	neg    %rdi
  4072c3:	48 01 f7             	add    %rsi,%rdi
  4072c6:	48 89 c6             	mov    %rax,%rsi
  4072c9:	e8 9c 10 00 00       	callq  40836a <_ZSt22__uninitialized_move_aIPiS0_SaIiEET0_T_S3_S2_RT1_>
  4072ce:	48 8b 45 98          	mov    -0x68(%rbp),%rax
  4072d2:	48 8b 40 08          	mov    0x8(%rax),%rax
  4072d6:	48 8b 55 88          	mov    -0x78(%rbp),%rdx
  4072da:	48 c1 e2 02          	shl    $0x2,%rdx
  4072de:	48 01 c2             	add    %rax,%rdx
  4072e1:	48 8b 45 98          	mov    -0x68(%rbp),%rax
  4072e5:	48 89 50 08          	mov    %rdx,0x8(%rax)
  4072e9:	48 8b 45 88          	mov    -0x78(%rbp),%rax
  4072ed:	48 c1 e0 02          	shl    $0x2,%rax
  4072f1:	48 f7 d8             	neg    %rax
  4072f4:	48 89 c2             	mov    %rax,%rdx
  4072f7:	48 8b 45 d0          	mov    -0x30(%rbp),%rax
  4072fb:	48 8d 1c 02          	lea    (%rdx,%rax,1),%rbx
  4072ff:	48 8d 45 90          	lea    -0x70(%rbp),%rax
  407303:	48 89 c7             	mov    %rax,%rdi
  407306:	e8 73 f2 ff ff       	callq  40657e <_ZNK9__gnu_cxx17__normal_iteratorIPiSt6vectorIiSaIiEEE4baseEv>
  40730b:	48 8b 00             	mov    (%rax),%rax
  40730e:	48 8b 55 d0          	mov    -0x30(%rbp),%rdx
  407312:	48 89 de             	mov    %rbx,%rsi
  407315:	48 89 c7             	mov    %rax,%rdi
  407318:	e8 9b 10 00 00       	callq  4083b8 <_ZSt13move_backwardIPiS0_ET0_T_S2_S1_>
  40731d:	48 8d 45 90          	lea    -0x70(%rbp),%rax
  407321:	48 89 c7             	mov    %rax,%rdi
  407324:	e8 55 f2 ff ff       	callq  40657e <_ZNK9__gnu_cxx17__normal_iteratorIPiSt6vectorIiSaIiEEE4baseEv>
  407329:	48 8b 00             	mov    (%rax),%rax
  40732c:	48 8b 55 88          	mov    -0x78(%rbp),%rdx
  407330:	48 c1 e2 02          	shl    $0x2,%rdx
  407334:	48 8d 1c 10          	lea    (%rax,%rdx,1),%rbx
  407338:	48 8d 45 90          	lea    -0x70(%rbp),%rax
  40733c:	48 89 c7             	mov    %rax,%rdi
  40733f:	e8 3a f2 ff ff       	callq  40657e <_ZNK9__gnu_cxx17__normal_iteratorIPiSt6vectorIiSaIiEEE4baseEv>
  407344:	48 8b 00             	mov    (%rax),%rax
  407347:	48 8d 55 ac          	lea    -0x54(%rbp),%rdx
  40734b:	48 89 de             	mov    %rbx,%rsi
  40734e:	48 89 c7             	mov    %rax,%rdi
  407351:	e8 a8 10 00 00       	callq  4083fe <_ZSt4fillIPiiEvT_S1_RKT0_>
  407356:	e9 82 02 00 00       	jmpq   4075dd <_ZNSt6vectorIiSaIiEE14_M_fill_insertEN9__gnu_cxx17__normal_iteratorIPiS1_EEmRKi+0x3e3>
  40735b:	48 8b 45 98          	mov    -0x68(%rbp),%rax
  40735f:	48 89 c7             	mov    %rax,%rdi
  407362:	e8 ff e2 ff ff       	callq  405666 <_ZNSt12_Vector_baseIiSaIiEE19_M_get_Tp_allocatorEv>
  407367:	48 89 c1             	mov    %rax,%rcx
  40736a:	48 8b 45 c8          	mov    -0x38(%rbp),%rax
  40736e:	48 8b 55 88          	mov    -0x78(%rbp),%rdx
  407372:	48 89 d6             	mov    %rdx,%rsi
  407375:	48 29 c6             	sub    %rax,%rsi
  407378:	48 8b 45 98          	mov    -0x68(%rbp),%rax
  40737c:	48 8b 40 08          	mov    0x8(%rax),%rax
  407380:	48 8d 55 ac          	lea    -0x54(%rbp),%rdx
  407384:	48 89 c7             	mov    %rax,%rdi
  407387:	e8 b8 10 00 00       	callq  408444 <_ZSt24__uninitialized_fill_n_aIPimiiEvT_T0_RKT1_RSaIT2_E>
  40738c:	48 8b 45 98          	mov    -0x68(%rbp),%rax
  407390:	48 8b 40 08          	mov    0x8(%rax),%rax
  407394:	48 8b 55 c8          	mov    -0x38(%rbp),%rdx
  407398:	48 8b 4d 88          	mov    -0x78(%rbp),%rcx
  40739c:	48 29 d1             	sub    %rdx,%rcx
  40739f:	48 89 ca             	mov    %rcx,%rdx
  4073a2:	48 c1 e2 02          	shl    $0x2,%rdx
  4073a6:	48 01 c2             	add    %rax,%rdx
  4073a9:	48 8b 45 98          	mov    -0x68(%rbp),%rax
  4073ad:	48 89 50 08          	mov    %rdx,0x8(%rax)
  4073b1:	48 8b 45 98          	mov    -0x68(%rbp),%rax
  4073b5:	48 89 c7             	mov    %rax,%rdi
  4073b8:	e8 a9 e2 ff ff       	callq  405666 <_ZNSt12_Vector_baseIiSaIiEE19_M_get_Tp_allocatorEv>
  4073bd:	49 89 c4             	mov    %rax,%r12
  4073c0:	48 8b 45 98          	mov    -0x68(%rbp),%rax
  4073c4:	48 8b 58 08          	mov    0x8(%rax),%rbx
  4073c8:	48 8d 45 90          	lea    -0x70(%rbp),%rax
  4073cc:	48 89 c7             	mov    %rax,%rdi
  4073cf:	e8 aa f1 ff ff       	callq  40657e <_ZNK9__gnu_cxx17__normal_iteratorIPiSt6vectorIiSaIiEEE4baseEv>
  4073d4:	48 8b 00             	mov    (%rax),%rax
  4073d7:	48 8b 75 d0          	mov    -0x30(%rbp),%rsi
  4073db:	4c 89 e1             	mov    %r12,%rcx
  4073de:	48 89 da             	mov    %rbx,%rdx
  4073e1:	48 89 c7             	mov    %rax,%rdi
  4073e4:	e8 81 0f 00 00       	callq  40836a <_ZSt22__uninitialized_move_aIPiS0_SaIiEET0_T_S3_S2_RT1_>
  4073e9:	48 8b 45 98          	mov    -0x68(%rbp),%rax
  4073ed:	48 8b 40 08          	mov    0x8(%rax),%rax
  4073f1:	48 8b 55 c8          	mov    -0x38(%rbp),%rdx
  4073f5:	48 c1 e2 02          	shl    $0x2,%rdx
  4073f9:	48 01 c2             	add    %rax,%rdx
  4073fc:	48 8b 45 98          	mov    -0x68(%rbp),%rax
  407400:	48 89 50 08          	mov    %rdx,0x8(%rax)
  407404:	48 8d 45 90          	lea    -0x70(%rbp),%rax
  407408:	48 89 c7             	mov    %rax,%rdi
  40740b:	e8 6e f1 ff ff       	callq  40657e <_ZNK9__gnu_cxx17__normal_iteratorIPiSt6vectorIiSaIiEEE4baseEv>
  407410:	48 8b 00             	mov    (%rax),%rax
  407413:	48 8d 55 ac          	lea    -0x54(%rbp),%rdx
  407417:	48 8b 4d d0          	mov    -0x30(%rbp),%rcx
  40741b:	48 89 ce             	mov    %rcx,%rsi
  40741e:	48 89 c7             	mov    %rax,%rdi
  407421:	e8 d8 0f 00 00       	callq  4083fe <_ZSt4fillIPiiEvT_S1_RKT0_>
  407426:	e9 b2 01 00 00       	jmpq   4075dd <_ZNSt6vectorIiSaIiEE14_M_fill_insertEN9__gnu_cxx17__normal_iteratorIPiS1_EEmRKi+0x3e3>
  40742b:	48 8b 4d 88          	mov    -0x78(%rbp),%rcx
  40742f:	48 8b 45 98          	mov    -0x68(%rbp),%rax
  407433:	ba d8 96 40 00       	mov    $0x4096d8,%edx
  407438:	48 89 ce             	mov    %rcx,%rsi
  40743b:	48 89 c7             	mov    %rax,%rdi
  40743e:	e8 67 fc ff ff       	callq  4070aa <_ZNKSt6vectorIiSaIiEE12_M_check_lenEmPKc>
  407443:	48 89 45 d8          	mov    %rax,-0x28(%rbp)
  407447:	48 8b 45 98          	mov    -0x68(%rbp),%rax
  40744b:	48 89 c7             	mov    %rax,%rdi
  40744e:	e8 89 dd ff ff       	callq  4051dc <_ZNSt6vectorIiSaIiEE5beginEv>
  407453:	48 89 45 b0          	mov    %rax,-0x50(%rbp)
  407457:	48 8d 55 b0          	lea    -0x50(%rbp),%rdx
  40745b:	48 8d 45 90          	lea    -0x70(%rbp),%rax
  40745f:	48 89 d6             	mov    %rdx,%rsi
  407462:	48 89 c7             	mov    %rax,%rdi
  407465:	e8 95 09 00 00       	callq  407dff <_ZN9__gnu_cxxmiIPiSt6vectorIiSaIiEEEENS_17__normal_iteratorIT_T0_E15difference_typeERKS8_SB_>
  40746a:	48 89 45 e0          	mov    %rax,-0x20(%rbp)
  40746e:	48 8b 45 98          	mov    -0x68(%rbp),%rax
  407472:	48 8b 55 d8          	mov    -0x28(%rbp),%rdx
  407476:	48 89 d6             	mov    %rdx,%rsi
  407479:	48 89 c7             	mov    %rax,%rdi
  40747c:	e8 f3 fc ff ff       	callq  407174 <_ZNSt12_Vector_baseIiSaIiEE11_M_allocateEm>
  407481:	48 89 45 e8          	mov    %rax,-0x18(%rbp)
  407485:	48 8b 45 e8          	mov    -0x18(%rbp),%rax
  407489:	48 89 45 c0          	mov    %rax,-0x40(%rbp)
  40748d:	48 8b 45 98          	mov    -0x68(%rbp),%rax
  407491:	48 89 c7             	mov    %rax,%rdi
  407494:	e8 cd e1 ff ff       	callq  405666 <_ZNSt12_Vector_baseIiSaIiEE19_M_get_Tp_allocatorEv>
  407499:	48 89 c1             	mov    %rax,%rcx
  40749c:	48 8b 45 e0          	mov    -0x20(%rbp),%rax
  4074a0:	48 8d 14 85 00 00 00 	lea    0x0(,%rax,4),%rdx
  4074a7:	00 
  4074a8:	48 8b 45 e8          	mov    -0x18(%rbp),%rax
  4074ac:	48 8d 3c 02          	lea    (%rdx,%rax,1),%rdi
  4074b0:	48 8b 55 80          	mov    -0x80(%rbp),%rdx
  4074b4:	48 8b 45 88          	mov    -0x78(%rbp),%rax
  4074b8:	48 89 c6             	mov    %rax,%rsi
  4074bb:	e8 84 0f 00 00       	callq  408444 <_ZSt24__uninitialized_fill_n_aIPimiiEvT_T0_RKT1_RSaIT2_E>
  4074c0:	48 c7 45 c0 00 00 00 	movq   $0x0,-0x40(%rbp)
  4074c7:	00 
  4074c8:	48 8b 45 98          	mov    -0x68(%rbp),%rax
  4074cc:	48 89 c7             	mov    %rax,%rdi
  4074cf:	e8 92 e1 ff ff       	callq  405666 <_ZNSt12_Vector_baseIiSaIiEE19_M_get_Tp_allocatorEv>
  4074d4:	48 89 c3             	mov    %rax,%rbx
  4074d7:	48 8d 45 90          	lea    -0x70(%rbp),%rax
  4074db:	48 89 c7             	mov    %rax,%rdi
  4074de:	e8 9b f0 ff ff       	callq  40657e <_ZNK9__gnu_cxx17__normal_iteratorIPiSt6vectorIiSaIiEEE4baseEv>
  4074e3:	48 8b 30             	mov    (%rax),%rsi
  4074e6:	48 8b 45 98          	mov    -0x68(%rbp),%rax
  4074ea:	48 8b 00             	mov    (%rax),%rax
  4074ed:	48 8b 55 e8          	mov    -0x18(%rbp),%rdx
  4074f1:	48 89 d9             	mov    %rbx,%rcx
  4074f4:	48 89 c7             	mov    %rax,%rdi
  4074f7:	e8 b0 fc ff ff       	callq  4071ac <_ZSt34__uninitialized_move_if_noexcept_aIPiS0_SaIiEET0_T_S3_S2_RT1_>
  4074fc:	48 89 45 c0          	mov    %rax,-0x40(%rbp)
  407500:	48 8b 45 88          	mov    -0x78(%rbp),%rax
  407504:	48 c1 e0 02          	shl    $0x2,%rax
  407508:	48 01 45 c0          	add    %rax,-0x40(%rbp)
  40750c:	48 8b 45 98          	mov    -0x68(%rbp),%rax
  407510:	48 89 c7             	mov    %rax,%rdi
  407513:	e8 4e e1 ff ff       	callq  405666 <_ZNSt12_Vector_baseIiSaIiEE19_M_get_Tp_allocatorEv>
  407518:	49 89 c4             	mov    %rax,%r12
  40751b:	48 8b 45 98          	mov    -0x68(%rbp),%rax
  40751f:	48 8b 58 08          	mov    0x8(%rax),%rbx
  407523:	48 8d 45 90          	lea    -0x70(%rbp),%rax
  407527:	48 89 c7             	mov    %rax,%rdi
  40752a:	e8 4f f0 ff ff       	callq  40657e <_ZNK9__gnu_cxx17__normal_iteratorIPiSt6vectorIiSaIiEEE4baseEv>
  40752f:	48 8b 00             	mov    (%rax),%rax
  407532:	48 8b 55 c0          	mov    -0x40(%rbp),%rdx
  407536:	4c 89 e1             	mov    %r12,%rcx
  407539:	48 89 de             	mov    %rbx,%rsi
  40753c:	48 89 c7             	mov    %rax,%rdi
  40753f:	e8 68 fc ff ff       	callq  4071ac <_ZSt34__uninitialized_move_if_noexcept_aIPiS0_SaIiEET0_T_S3_S2_RT1_>
  407544:	48 89 45 c0          	mov    %rax,-0x40(%rbp)
  407548:	48 8b 45 98          	mov    -0x68(%rbp),%rax
  40754c:	48 89 c7             	mov    %rax,%rdi
  40754f:	e8 12 e1 ff ff       	callq  405666 <_ZNSt12_Vector_baseIiSaIiEE19_M_get_Tp_allocatorEv>
  407554:	48 89 c2             	mov    %rax,%rdx
  407557:	48 8b 45 98          	mov    -0x68(%rbp),%rax
  40755b:	48 8b 48 08          	mov    0x8(%rax),%rcx
  40755f:	48 8b 45 98          	mov    -0x68(%rbp),%rax
  407563:	48 8b 00             	mov    (%rax),%rax
  407566:	48 89 ce             	mov    %rcx,%rsi
  407569:	48 89 c7             	mov    %rax,%rdi
  40756c:	e8 03 e1 ff ff       	callq  405674 <_ZSt8_DestroyIPiiEvT_S1_RSaIT0_E>
  407571:	48 8b 45 98          	mov    -0x68(%rbp),%rax
  407575:	48 8b 40 10          	mov    0x10(%rax),%rax
  407579:	48 89 c2             	mov    %rax,%rdx
  40757c:	48 8b 45 98          	mov    -0x68(%rbp),%rax
  407580:	48 8b 00             	mov    (%rax),%rax
  407583:	48 29 c2             	sub    %rax,%rdx
  407586:	48 89 d0             	mov    %rdx,%rax
  407589:	48 c1 f8 02          	sar    $0x2,%rax
  40758d:	48 89 c2             	mov    %rax,%rdx
  407590:	48 8b 45 98          	mov    -0x68(%rbp),%rax
  407594:	48 8b 08             	mov    (%rax),%rcx
  407597:	48 8b 45 98          	mov    -0x68(%rbp),%rax
  40759b:	48 89 ce             	mov    %rcx,%rsi
  40759e:	48 89 c7             	mov    %rax,%rdi
  4075a1:	e8 9a f3 ff ff       	callq  406940 <_ZNSt12_Vector_baseIiSaIiEE13_M_deallocateEPim>
  4075a6:	48 8b 45 98          	mov    -0x68(%rbp),%rax
  4075aa:	48 8b 55 e8          	mov    -0x18(%rbp),%rdx
  4075ae:	48 89 10             	mov    %rdx,(%rax)
  4075b1:	48 8b 45 98          	mov    -0x68(%rbp),%rax
  4075b5:	48 8b 55 c0          	mov    -0x40(%rbp),%rdx
  4075b9:	48 89 50 08          	mov    %rdx,0x8(%rax)
  4075bd:	48 8b 45 d8          	mov    -0x28(%rbp),%rax
  4075c1:	48 8d 14 85 00 00 00 	lea    0x0(,%rax,4),%rdx
  4075c8:	00 
  4075c9:	48 8b 45 e8          	mov    -0x18(%rbp),%rax
  4075cd:	48 01 c2             	add    %rax,%rdx
  4075d0:	48 8b 45 98          	mov    -0x68(%rbp),%rax
  4075d4:	48 89 50 10          	mov    %rdx,0x10(%rax)
  4075d8:	e9 ac 00 00 00       	jmpq   407689 <_ZNSt6vectorIiSaIiEE14_M_fill_insertEN9__gnu_cxx17__normal_iteratorIPiS1_EEmRKi+0x48f>
  4075dd:	e9 a7 00 00 00       	jmpq   407689 <_ZNSt6vectorIiSaIiEE14_M_fill_insertEN9__gnu_cxx17__normal_iteratorIPiS1_EEmRKi+0x48f>
  4075e2:	48 89 c3             	mov    %rax,%rbx
  4075e5:	e8 16 9b ff ff       	callq  401100 <__cxa_end_catch@plt>
  4075ea:	48 89 d8             	mov    %rbx,%rax
  4075ed:	48 89 c7             	mov    %rax,%rdi
  4075f0:	e8 9b 9b ff ff       	callq  401190 <_Unwind_Resume@plt>
  4075f5:	48 89 c7             	mov    %rax,%rdi
  4075f8:	e8 23 9b ff ff       	callq  401120 <__cxa_begin_catch@plt>
  4075fd:	48 83 7d c0 00       	cmpq   $0x0,-0x40(%rbp)
  407602:	75 47                	jne    40764b <_ZNSt6vectorIiSaIiEE14_M_fill_insertEN9__gnu_cxx17__normal_iteratorIPiS1_EEmRKi+0x451>
  407604:	48 8b 45 98          	mov    -0x68(%rbp),%rax
  407608:	48 89 c7             	mov    %rax,%rdi
  40760b:	e8 56 e0 ff ff       	callq  405666 <_ZNSt12_Vector_baseIiSaIiEE19_M_get_Tp_allocatorEv>
  407610:	48 8b 55 88          	mov    -0x78(%rbp),%rdx
  407614:	48 8b 4d e0          	mov    -0x20(%rbp),%rcx
  407618:	48 01 ca             	add    %rcx,%rdx
  40761b:	48 8d 0c 95 00 00 00 	lea    0x0(,%rdx,4),%rcx
  407622:	00 
  407623:	48 8b 55 e8          	mov    -0x18(%rbp),%rdx
  407627:	48 8d 34 11          	lea    (%rcx,%rdx,1),%rsi
  40762b:	48 8b 55 e0          	mov    -0x20(%rbp),%rdx
  40762f:	48 8d 0c 95 00 00 00 	lea    0x0(,%rdx,4),%rcx
  407636:	00 
  407637:	48 8b 55 e8          	mov    -0x18(%rbp),%rdx
  40763b:	48 01 d1             	add    %rdx,%rcx
  40763e:	48 89 c2             	mov    %rax,%rdx
  407641:	48 89 cf             	mov    %rcx,%rdi
  407644:	e8 2b e0 ff ff       	callq  405674 <_ZSt8_DestroyIPiiEvT_S1_RSaIT0_E>
  407649:	eb 22                	jmp    40766d <_ZNSt6vectorIiSaIiEE14_M_fill_insertEN9__gnu_cxx17__normal_iteratorIPiS1_EEmRKi+0x473>
  40764b:	48 8b 45 98          	mov    -0x68(%rbp),%rax
  40764f:	48 89 c7             	mov    %rax,%rdi
  407652:	e8 0f e0 ff ff       	callq  405666 <_ZNSt12_Vector_baseIiSaIiEE19_M_get_Tp_allocatorEv>
  407657:	48 89 c2             	mov    %rax,%rdx
  40765a:	48 8b 4d c0          	mov    -0x40(%rbp),%rcx
  40765e:	48 8b 45 e8          	mov    -0x18(%rbp),%rax
  407662:	48 89 ce             	mov    %rcx,%rsi
  407665:	48 89 c7             	mov    %rax,%rdi
  407668:	e8 07 e0 ff ff       	callq  405674 <_ZSt8_DestroyIPiiEvT_S1_RSaIT0_E>
  40766d:	48 8b 45 98          	mov    -0x68(%rbp),%rax
  407671:	48 8b 55 d8          	mov    -0x28(%rbp),%rdx
  407675:	48 8b 4d e8          	mov    -0x18(%rbp),%rcx
  407679:	48 89 ce             	mov    %rcx,%rsi
  40767c:	48 89 c7             	mov    %rax,%rdi
  40767f:	e8 bc f2 ff ff       	callq  406940 <_ZNSt12_Vector_baseIiSaIiEE13_M_deallocateEPim>
  407684:	e8 57 99 ff ff       	callq  400fe0 <__cxa_rethrow@plt>
  407689:	48 83 c4 70          	add    $0x70,%rsp
  40768d:	5b                   	pop    %rbx
  40768e:	41 5c                	pop    %r12
  407690:	5d                   	pop    %rbp
  407691:	c3                   	retq   

0000000000407692 <_ZNSt16allocator_traitsISaI4areaEE9constructIS0_IS0_EEEDTcl12_S_constructfp_fp0_spcl7forwardIT0_Efp1_EEERS1_PT_DpOS4_>:
  407692:	55                   	push   %rbp
  407693:	48 89 e5             	mov    %rsp,%rbp
  407696:	48 83 ec 20          	sub    $0x20,%rsp
  40769a:	48 89 7d f8          	mov    %rdi,-0x8(%rbp)
  40769e:	48 89 75 f0          	mov    %rsi,-0x10(%rbp)
  4076a2:	48 89 55 e8          	mov    %rdx,-0x18(%rbp)
  4076a6:	48 8b 45 e8          	mov    -0x18(%rbp),%rax
  4076aa:	48 89 c7             	mov    %rax,%rdi
  4076ad:	e8 da e3 ff ff       	callq  405a8c <_ZSt7forwardI4areaEOT_RNSt16remove_referenceIS1_E4typeE>
  4076b2:	48 89 c2             	mov    %rax,%rdx
  4076b5:	48 8b 4d f0          	mov    -0x10(%rbp),%rcx
  4076b9:	48 8b 45 f8          	mov    -0x8(%rbp),%rax
  4076bd:	48 89 ce             	mov    %rcx,%rsi
  4076c0:	48 89 c7             	mov    %rax,%rdi
  4076c3:	e8 ad 0d 00 00       	callq  408475 <_ZNSt16allocator_traitsISaI4areaEE12_S_constructIS0_IS0_EEENSt9enable_ifIXsrNS2_18__construct_helperIT_IDpT0_EEE5valueEvE4typeERS1_PS6_DpOS7_>
  4076c8:	c9                   	leaveq 
  4076c9:	c3                   	retq   

00000000004076ca <_ZNSt6vectorI4areaSaIS0_EE19_M_emplace_back_auxIIS0_EEEvDpOT_>:
  4076ca:	55                   	push   %rbp
  4076cb:	48 89 e5             	mov    %rsp,%rbp
  4076ce:	53                   	push   %rbx
  4076cf:	48 83 ec 38          	sub    $0x38,%rsp
  4076d3:	48 89 7d c8          	mov    %rdi,-0x38(%rbp)
  4076d7:	48 89 75 c0          	mov    %rsi,-0x40(%rbp)
  4076db:	48 8b 45 c8          	mov    -0x38(%rbp),%rax
  4076df:	ba a6 96 40 00       	mov    $0x4096a6,%edx
  4076e4:	be 01 00 00 00       	mov    $0x1,%esi
  4076e9:	48 89 c7             	mov    %rax,%rdi
  4076ec:	e8 71 02 00 00       	callq  407962 <_ZNKSt6vectorI4areaSaIS0_EE12_M_check_lenEmPKc>
  4076f1:	48 89 45 e0          	mov    %rax,-0x20(%rbp)
  4076f5:	48 8b 45 c8          	mov    -0x38(%rbp),%rax
  4076f9:	48 8b 55 e0          	mov    -0x20(%rbp),%rdx
  4076fd:	48 89 d6             	mov    %rdx,%rsi
  407700:	48 89 c7             	mov    %rax,%rdi
  407703:	e8 24 03 00 00       	callq  407a2c <_ZNSt12_Vector_baseI4areaSaIS0_EE11_M_allocateEm>
  407708:	48 89 45 e8          	mov    %rax,-0x18(%rbp)
  40770c:	48 8b 45 e8          	mov    -0x18(%rbp),%rax
  407710:	48 89 45 d8          	mov    %rax,-0x28(%rbp)
  407714:	48 8b 45 c0          	mov    -0x40(%rbp),%rax
  407718:	48 89 c7             	mov    %rax,%rdi
  40771b:	e8 6c e3 ff ff       	callq  405a8c <_ZSt7forwardI4areaEOT_RNSt16remove_referenceIS1_E4typeE>
  407720:	48 89 c3             	mov    %rax,%rbx
  407723:	48 8b 45 c8          	mov    -0x38(%rbp),%rax
  407727:	48 89 c7             	mov    %rax,%rdi
  40772a:	e8 d3 db ff ff       	callq  405302 <_ZNKSt6vectorI4areaSaIS0_EE4sizeEv>
  40772f:	48 89 c2             	mov    %rax,%rdx
  407732:	48 89 d0             	mov    %rdx,%rax
  407735:	48 01 c0             	add    %rax,%rax
  407738:	48 01 d0             	add    %rdx,%rax
  40773b:	48 c1 e0 02          	shl    $0x2,%rax
  40773f:	48 89 c2             	mov    %rax,%rdx
  407742:	48 8b 45 e8          	mov    -0x18(%rbp),%rax
  407746:	48 8d 0c 02          	lea    (%rdx,%rax,1),%rcx
  40774a:	48 8b 45 c8          	mov    -0x38(%rbp),%rax
  40774e:	48 89 da             	mov    %rbx,%rdx
  407751:	48 89 ce             	mov    %rcx,%rsi
  407754:	48 89 c7             	mov    %rax,%rdi
  407757:	e8 36 ff ff ff       	callq  407692 <_ZNSt16allocator_traitsISaI4areaEE9constructIS0_IS0_EEEDTcl12_S_constructfp_fp0_spcl7forwardIT0_Efp1_EEERS1_PT_DpOS4_>
  40775c:	48 c7 45 d8 00 00 00 	movq   $0x0,-0x28(%rbp)
  407763:	00 
  407764:	48 8b 45 c8          	mov    -0x38(%rbp),%rax
  407768:	48 89 c7             	mov    %rax,%rdi
  40776b:	e8 7e dd ff ff       	callq  4054ee <_ZNSt12_Vector_baseI4areaSaIS0_EE19_M_get_Tp_allocatorEv>
  407770:	48 89 c1             	mov    %rax,%rcx
  407773:	48 8b 45 c8          	mov    -0x38(%rbp),%rax
  407777:	48 8b 70 08          	mov    0x8(%rax),%rsi
  40777b:	48 8b 45 c8          	mov    -0x38(%rbp),%rax
  40777f:	48 8b 00             	mov    (%rax),%rax
  407782:	48 8b 55 e8          	mov    -0x18(%rbp),%rdx
  407786:	48 89 c7             	mov    %rax,%rdi
  407789:	e8 d6 02 00 00       	callq  407a64 <_ZSt34__uninitialized_move_if_noexcept_aIP4areaS1_SaIS0_EET0_T_S4_S3_RT1_>
  40778e:	48 89 45 d8          	mov    %rax,-0x28(%rbp)
  407792:	48 83 45 d8 0c       	addq   $0xc,-0x28(%rbp)
  407797:	48 8b 45 c8          	mov    -0x38(%rbp),%rax
  40779b:	48 89 c7             	mov    %rax,%rdi
  40779e:	e8 4b dd ff ff       	callq  4054ee <_ZNSt12_Vector_baseI4areaSaIS0_EE19_M_get_Tp_allocatorEv>
  4077a3:	48 89 c2             	mov    %rax,%rdx
  4077a6:	48 8b 45 c8          	mov    -0x38(%rbp),%rax
  4077aa:	48 8b 48 08          	mov    0x8(%rax),%rcx
  4077ae:	48 8b 45 c8          	mov    -0x38(%rbp),%rax
  4077b2:	48 8b 00             	mov    (%rax),%rax
  4077b5:	48 89 ce             	mov    %rcx,%rsi
  4077b8:	48 89 c7             	mov    %rax,%rdi
  4077bb:	e8 3c dd ff ff       	callq  4054fc <_ZSt8_DestroyIP4areaS0_EvT_S2_RSaIT0_E>
  4077c0:	48 8b 45 c8          	mov    -0x38(%rbp),%rax
  4077c4:	48 8b 40 10          	mov    0x10(%rax),%rax
  4077c8:	48 89 c2             	mov    %rax,%rdx
  4077cb:	48 8b 45 c8          	mov    -0x38(%rbp),%rax
  4077cf:	48 8b 00             	mov    (%rax),%rax
  4077d2:	48 29 c2             	sub    %rax,%rdx
  4077d5:	48 89 d0             	mov    %rdx,%rax
  4077d8:	48 c1 f8 02          	sar    $0x2,%rax
  4077dc:	48 89 c2             	mov    %rax,%rdx
  4077df:	48 b8 ab aa aa aa aa 	movabs $0xaaaaaaaaaaaaaaab,%rax
  4077e6:	aa aa aa 
  4077e9:	48 0f af c2          	imul   %rdx,%rax
  4077ed:	48 89 c2             	mov    %rax,%rdx
  4077f0:	48 8b 45 c8          	mov    -0x38(%rbp),%rax
  4077f4:	48 8b 08             	mov    (%rax),%rcx
  4077f7:	48 8b 45 c8          	mov    -0x38(%rbp),%rax
  4077fb:	48 89 ce             	mov    %rcx,%rsi
  4077fe:	48 89 c7             	mov    %rax,%rdi
  407801:	e8 d6 ef ff ff       	callq  4067dc <_ZNSt12_Vector_baseI4areaSaIS0_EE13_M_deallocateEPS0_m>
  407806:	48 8b 45 c8          	mov    -0x38(%rbp),%rax
  40780a:	48 8b 55 e8          	mov    -0x18(%rbp),%rdx
  40780e:	48 89 10             	mov    %rdx,(%rax)
  407811:	48 8b 45 c8          	mov    -0x38(%rbp),%rax
  407815:	48 8b 55 d8          	mov    -0x28(%rbp),%rdx
  407819:	48 89 50 08          	mov    %rdx,0x8(%rax)
  40781d:	48 8b 55 e0          	mov    -0x20(%rbp),%rdx
  407821:	48 89 d0             	mov    %rdx,%rax
  407824:	48 01 c0             	add    %rax,%rax
  407827:	48 01 d0             	add    %rdx,%rax
  40782a:	48 c1 e0 02          	shl    $0x2,%rax
  40782e:	48 89 c2             	mov    %rax,%rdx
  407831:	48 8b 45 e8          	mov    -0x18(%rbp),%rax
  407835:	48 01 c2             	add    %rax,%rdx
  407838:	48 8b 45 c8          	mov    -0x38(%rbp),%rax
  40783c:	48 89 50 10          	mov    %rdx,0x10(%rax)
  407840:	e9 97 00 00 00       	jmpq   4078dc <_ZNSt6vectorI4areaSaIS0_EE19_M_emplace_back_auxIIS0_EEEvDpOT_+0x212>
  407845:	48 89 c3             	mov    %rax,%rbx
  407848:	e8 b3 98 ff ff       	callq  401100 <__cxa_end_catch@plt>
  40784d:	48 89 d8             	mov    %rbx,%rax
  407850:	48 89 c7             	mov    %rax,%rdi
  407853:	e8 38 99 ff ff       	callq  401190 <_Unwind_Resume@plt>
  407858:	48 89 c7             	mov    %rax,%rdi
  40785b:	e8 c0 98 ff ff       	callq  401120 <__cxa_begin_catch@plt>
  407860:	48 83 7d d8 00       	cmpq   $0x0,-0x28(%rbp)
  407865:	75 37                	jne    40789e <_ZNSt6vectorI4areaSaIS0_EE19_M_emplace_back_auxIIS0_EEEvDpOT_+0x1d4>
  407867:	48 8b 45 c8          	mov    -0x38(%rbp),%rax
  40786b:	48 89 c7             	mov    %rax,%rdi
  40786e:	e8 8f da ff ff       	callq  405302 <_ZNKSt6vectorI4areaSaIS0_EE4sizeEv>
  407873:	48 89 c2             	mov    %rax,%rdx
  407876:	48 89 d0             	mov    %rdx,%rax
  407879:	48 01 c0             	add    %rax,%rax
  40787c:	48 01 d0             	add    %rdx,%rax
  40787f:	48 c1 e0 02          	shl    $0x2,%rax
  407883:	48 89 c2             	mov    %rax,%rdx
  407886:	48 8b 45 e8          	mov    -0x18(%rbp),%rax
  40788a:	48 01 c2             	add    %rax,%rdx
  40788d:	48 8b 45 c8          	mov    -0x38(%rbp),%rax
  407891:	48 89 d6             	mov    %rdx,%rsi
  407894:	48 89 c7             	mov    %rax,%rdi
  407897:	e8 e0 ea ff ff       	callq  40637c <_ZNSt16allocator_traitsISaI4areaEE7destroyIS0_EEvRS1_PT_>
  40789c:	eb 22                	jmp    4078c0 <_ZNSt6vectorI4areaSaIS0_EE19_M_emplace_back_auxIIS0_EEEvDpOT_+0x1f6>
  40789e:	48 8b 45 c8          	mov    -0x38(%rbp),%rax
  4078a2:	48 89 c7             	mov    %rax,%rdi
  4078a5:	e8 44 dc ff ff       	callq  4054ee <_ZNSt12_Vector_baseI4areaSaIS0_EE19_M_get_Tp_allocatorEv>
  4078aa:	48 89 c2             	mov    %rax,%rdx
  4078ad:	48 8b 4d d8          	mov    -0x28(%rbp),%rcx
  4078b1:	48 8b 45 e8          	mov    -0x18(%rbp),%rax
  4078b5:	48 89 ce             	mov    %rcx,%rsi
  4078b8:	48 89 c7             	mov    %rax,%rdi
  4078bb:	e8 3c dc ff ff       	callq  4054fc <_ZSt8_DestroyIP4areaS0_EvT_S2_RSaIT0_E>
  4078c0:	48 8b 45 c8          	mov    -0x38(%rbp),%rax
  4078c4:	48 8b 55 e0          	mov    -0x20(%rbp),%rdx
  4078c8:	48 8b 4d e8          	mov    -0x18(%rbp),%rcx
  4078cc:	48 89 ce             	mov    %rcx,%rsi
  4078cf:	48 89 c7             	mov    %rax,%rdi
  4078d2:	e8 05 ef ff ff       	callq  4067dc <_ZNSt12_Vector_baseI4areaSaIS0_EE13_M_deallocateEPS0_m>
  4078d7:	e8 04 97 ff ff       	callq  400fe0 <__cxa_rethrow@plt>
  4078dc:	48 83 c4 38          	add    $0x38,%rsp
  4078e0:	5b                   	pop    %rbx
  4078e1:	5d                   	pop    %rbp
  4078e2:	c3                   	retq   

00000000004078e3 <_ZNSt16allocator_traitsISaI4areaEE12_S_constructIS0_IRKS0_EEENSt9enable_ifIXsrNS2_18__construct_helperIT_IDpT0_EEE5valueEvE4typeERS1_PS8_DpOS9_>:
  4078e3:	55                   	push   %rbp
  4078e4:	48 89 e5             	mov    %rsp,%rbp
  4078e7:	48 83 ec 20          	sub    $0x20,%rsp
  4078eb:	48 89 7d f8          	mov    %rdi,-0x8(%rbp)
  4078ef:	48 89 75 f0          	mov    %rsi,-0x10(%rbp)
  4078f3:	48 89 55 e8          	mov    %rdx,-0x18(%rbp)
  4078f7:	48 8b 45 e8          	mov    -0x18(%rbp),%rax
  4078fb:	48 89 c7             	mov    %rax,%rdi
  4078fe:	e8 50 d4 ff ff       	callq  404d53 <_ZSt7forwardIRK4areaEOT_RNSt16remove_referenceIS3_E4typeE>
  407903:	48 89 c2             	mov    %rax,%rdx
  407906:	48 8b 4d f0          	mov    -0x10(%rbp),%rcx
  40790a:	48 8b 45 f8          	mov    -0x8(%rbp),%rax
  40790e:	48 89 ce             	mov    %rcx,%rsi
  407911:	48 89 c7             	mov    %rax,%rdi
  407914:	e8 95 0b 00 00       	callq  4084ae <_ZN9__gnu_cxx13new_allocatorI4areaE9constructIS1_IRKS1_EEEvPT_DpOT0_>
  407919:	c9                   	leaveq 
  40791a:	c3                   	retq   

000000000040791b <_ZSt13move_backwardIP4areaS1_ET0_T_S3_S2_>:
  40791b:	55                   	push   %rbp
  40791c:	48 89 e5             	mov    %rsp,%rbp
  40791f:	53                   	push   %rbx
  407920:	48 83 ec 28          	sub    $0x28,%rsp
  407924:	48 89 7d e8          	mov    %rdi,-0x18(%rbp)
  407928:	48 89 75 e0          	mov    %rsi,-0x20(%rbp)
  40792c:	48 89 55 d8          	mov    %rdx,-0x28(%rbp)
  407930:	48 8b 45 e0          	mov    -0x20(%rbp),%rax
  407934:	48 89 c7             	mov    %rax,%rdi
  407937:	e8 be 0b 00 00       	callq  4084fa <_ZSt12__miter_baseIP4areaENSt11_Miter_baseIT_E13iterator_typeES3_>
  40793c:	48 89 c3             	mov    %rax,%rbx
  40793f:	48 8b 45 e8          	mov    -0x18(%rbp),%rax
  407943:	48 89 c7             	mov    %rax,%rdi
  407946:	e8 af 0b 00 00       	callq  4084fa <_ZSt12__miter_baseIP4areaENSt11_Miter_baseIT_E13iterator_typeES3_>
  40794b:	48 8b 55 d8          	mov    -0x28(%rbp),%rdx
  40794f:	48 89 de             	mov    %rbx,%rsi
  407952:	48 89 c7             	mov    %rax,%rdi
  407955:	e8 ba 0b 00 00       	callq  408514 <_ZSt23__copy_move_backward_a2ILb1EP4areaS1_ET1_T0_S3_S2_>
  40795a:	48 83 c4 28          	add    $0x28,%rsp
  40795e:	5b                   	pop    %rbx
  40795f:	5d                   	pop    %rbp
  407960:	c3                   	retq   
  407961:	90                   	nop

0000000000407962 <_ZNKSt6vectorI4areaSaIS0_EE12_M_check_lenEmPKc>:
  407962:	55                   	push   %rbp
  407963:	48 89 e5             	mov    %rsp,%rbp
  407966:	53                   	push   %rbx
  407967:	48 83 ec 38          	sub    $0x38,%rsp
  40796b:	48 89 7d d8          	mov    %rdi,-0x28(%rbp)
  40796f:	48 89 75 d0          	mov    %rsi,-0x30(%rbp)
  407973:	48 89 55 c8          	mov    %rdx,-0x38(%rbp)
  407977:	48 8b 45 d8          	mov    -0x28(%rbp),%rax
  40797b:	48 89 c7             	mov    %rax,%rdi
  40797e:	e8 e9 0b 00 00       	callq  40856c <_ZNKSt6vectorI4areaSaIS0_EE8max_sizeEv>
  407983:	48 89 c3             	mov    %rax,%rbx
  407986:	48 8b 45 d8          	mov    -0x28(%rbp),%rax
  40798a:	48 89 c7             	mov    %rax,%rdi
  40798d:	e8 70 d9 ff ff       	callq  405302 <_ZNKSt6vectorI4areaSaIS0_EE4sizeEv>
  407992:	48 29 c3             	sub    %rax,%rbx
  407995:	48 89 da             	mov    %rbx,%rdx
  407998:	48 8b 45 d0          	mov    -0x30(%rbp),%rax
  40799c:	48 39 c2             	cmp    %rax,%rdx
  40799f:	0f 92 c0             	setb   %al
  4079a2:	84 c0                	test   %al,%al
  4079a4:	74 0c                	je     4079b2 <_ZNKSt6vectorI4areaSaIS0_EE12_M_check_lenEmPKc+0x50>
  4079a6:	48 8b 45 c8          	mov    -0x38(%rbp),%rax
  4079aa:	48 89 c7             	mov    %rax,%rdi
  4079ad:	e8 7e 95 ff ff       	callq  400f30 <_ZSt20__throw_length_errorPKc@plt>
  4079b2:	48 8b 45 d8          	mov    -0x28(%rbp),%rax
  4079b6:	48 89 c7             	mov    %rax,%rdi
  4079b9:	e8 44 d9 ff ff       	callq  405302 <_ZNKSt6vectorI4areaSaIS0_EE4sizeEv>
  4079be:	48 89 c3             	mov    %rax,%rbx
  4079c1:	48 8b 45 d8          	mov    -0x28(%rbp),%rax
  4079c5:	48 89 c7             	mov    %rax,%rdi
  4079c8:	e8 35 d9 ff ff       	callq  405302 <_ZNKSt6vectorI4areaSaIS0_EE4sizeEv>
  4079cd:	48 89 45 e0          	mov    %rax,-0x20(%rbp)
  4079d1:	48 8d 55 d0          	lea    -0x30(%rbp),%rdx
  4079d5:	48 8d 45 e0          	lea    -0x20(%rbp),%rax
  4079d9:	48 89 d6             	mov    %rdx,%rsi
  4079dc:	48 89 c7             	mov    %rax,%rdi
  4079df:	e8 bc ad ff ff       	callq  4027a0 <_ZSt3maxImERKT_S2_S2_>
  4079e4:	48 8b 00             	mov    (%rax),%rax
  4079e7:	48 01 d8             	add    %rbx,%rax
  4079ea:	48 89 45 e8          	mov    %rax,-0x18(%rbp)
  4079ee:	48 8b 45 d8          	mov    -0x28(%rbp),%rax
  4079f2:	48 89 c7             	mov    %rax,%rdi
  4079f5:	e8 08 d9 ff ff       	callq  405302 <_ZNKSt6vectorI4areaSaIS0_EE4sizeEv>
  4079fa:	48 3b 45 e8          	cmp    -0x18(%rbp),%rax
  4079fe:	77 12                	ja     407a12 <_ZNKSt6vectorI4areaSaIS0_EE12_M_check_lenEmPKc+0xb0>
  407a00:	48 8b 45 d8          	mov    -0x28(%rbp),%rax
  407a04:	48 89 c7             	mov    %rax,%rdi
  407a07:	e8 60 0b 00 00       	callq  40856c <_ZNKSt6vectorI4areaSaIS0_EE8max_sizeEv>
  407a0c:	48 3b 45 e8          	cmp    -0x18(%rbp),%rax
  407a10:	73 0e                	jae    407a20 <_ZNKSt6vectorI4areaSaIS0_EE12_M_check_lenEmPKc+0xbe>
  407a12:	48 8b 45 d8          	mov    -0x28(%rbp),%rax
  407a16:	48 89 c7             	mov    %rax,%rdi
  407a19:	e8 4e 0b 00 00       	callq  40856c <_ZNKSt6vectorI4areaSaIS0_EE8max_sizeEv>
  407a1e:	eb 04                	jmp    407a24 <_ZNKSt6vectorI4areaSaIS0_EE12_M_check_lenEmPKc+0xc2>
  407a20:	48 8b 45 e8          	mov    -0x18(%rbp),%rax
  407a24:	48 83 c4 38          	add    $0x38,%rsp
  407a28:	5b                   	pop    %rbx
  407a29:	5d                   	pop    %rbp
  407a2a:	c3                   	retq   
  407a2b:	90                   	nop

0000000000407a2c <_ZNSt12_Vector_baseI4areaSaIS0_EE11_M_allocateEm>:
  407a2c:	55                   	push   %rbp
  407a2d:	48 89 e5             	mov    %rsp,%rbp
  407a30:	48 83 ec 10          	sub    $0x10,%rsp
  407a34:	48 89 7d f8          	mov    %rdi,-0x8(%rbp)
  407a38:	48 89 75 f0          	mov    %rsi,-0x10(%rbp)
  407a3c:	48 83 7d f0 00       	cmpq   $0x0,-0x10(%rbp)
  407a41:	74 1a                	je     407a5d <_ZNSt12_Vector_baseI4areaSaIS0_EE11_M_allocateEm+0x31>
  407a43:	48 8b 45 f8          	mov    -0x8(%rbp),%rax
  407a47:	48 8b 4d f0          	mov    -0x10(%rbp),%rcx
  407a4b:	ba 00 00 00 00       	mov    $0x0,%edx
  407a50:	48 89 ce             	mov    %rcx,%rsi
  407a53:	48 89 c7             	mov    %rax,%rdi
  407a56:	e8 33 0b 00 00       	callq  40858e <_ZN9__gnu_cxx13new_allocatorI4areaE8allocateEmPKv>
  407a5b:	eb 05                	jmp    407a62 <_ZNSt12_Vector_baseI4areaSaIS0_EE11_M_allocateEm+0x36>
  407a5d:	b8 00 00 00 00       	mov    $0x0,%eax
  407a62:	c9                   	leaveq 
  407a63:	c3                   	retq   

0000000000407a64 <_ZSt34__uninitialized_move_if_noexcept_aIP4areaS1_SaIS0_EET0_T_S4_S3_RT1_>:
  407a64:	55                   	push   %rbp
  407a65:	48 89 e5             	mov    %rsp,%rbp
  407a68:	53                   	push   %rbx
  407a69:	48 83 ec 28          	sub    $0x28,%rsp
  407a6d:	48 89 7d e8          	mov    %rdi,-0x18(%rbp)
  407a71:	48 89 75 e0          	mov    %rsi,-0x20(%rbp)
  407a75:	48 89 55 d8          	mov    %rdx,-0x28(%rbp)
  407a79:	48 89 4d d0          	mov    %rcx,-0x30(%rbp)
  407a7d:	48 8b 45 e0          	mov    -0x20(%rbp),%rax
  407a81:	48 89 c7             	mov    %rax,%rdi
  407a84:	e8 50 0b 00 00       	callq  4085d9 <_ZSt32__make_move_if_noexcept_iteratorIP4areaS1_ET0_T_>
  407a89:	48 89 c3             	mov    %rax,%rbx
  407a8c:	48 8b 45 e8          	mov    -0x18(%rbp),%rax
  407a90:	48 89 c7             	mov    %rax,%rdi
  407a93:	e8 41 0b 00 00       	callq  4085d9 <_ZSt32__make_move_if_noexcept_iteratorIP4areaS1_ET0_T_>
  407a98:	48 8b 4d d0          	mov    -0x30(%rbp),%rcx
  407a9c:	48 8b 55 d8          	mov    -0x28(%rbp),%rdx
  407aa0:	48 89 de             	mov    %rbx,%rsi
  407aa3:	48 89 c7             	mov    %rax,%rdi
  407aa6:	e8 3c 0b 00 00       	callq  4085e7 <_ZSt22__uninitialized_copy_aIP4areaS1_S0_ET0_T_S3_S2_RSaIT1_E>
  407aab:	48 83 c4 28          	add    $0x28,%rsp
  407aaf:	5b                   	pop    %rbx
  407ab0:	5d                   	pop    %rbp
  407ab1:	c3                   	retq   

0000000000407ab2 <_ZSt19__iterator_categoryIN9__gnu_cxx17__normal_iteratorIP4areaSt6vectorIS2_SaIS2_EEEEENSt15iterator_traitsIT_E17iterator_categoryERKS9_>:
  407ab2:	55                   	push   %rbp
  407ab3:	48 89 e5             	mov    %rsp,%rbp
  407ab6:	48 89 7d f8          	mov    %rdi,-0x8(%rbp)
  407aba:	5d                   	pop    %rbp
  407abb:	c3                   	retq   

0000000000407abc <_ZSt10__distanceIN9__gnu_cxx17__normal_iteratorIP4areaSt6vectorIS2_SaIS2_EEEEENSt15iterator_traitsIT_E15difference_typeES9_S9_St26random_access_iterator_tag>:
  407abc:	55                   	push   %rbp
  407abd:	48 89 e5             	mov    %rsp,%rbp
  407ac0:	48 83 ec 20          	sub    $0x20,%rsp
  407ac4:	48 89 7d f0          	mov    %rdi,-0x10(%rbp)
  407ac8:	48 89 75 e0          	mov    %rsi,-0x20(%rbp)
  407acc:	48 8d 55 f0          	lea    -0x10(%rbp),%rdx
  407ad0:	48 8d 45 e0          	lea    -0x20(%rbp),%rax
  407ad4:	48 89 d6             	mov    %rdx,%rsi
  407ad7:	48 89 c7             	mov    %rax,%rdi
  407ada:	e8 3c e0 ff ff       	callq  405b1b <_ZN9__gnu_cxxmiIP4areaSt6vectorIS1_SaIS1_EEEENS_17__normal_iteratorIT_T0_E15difference_typeERKS9_SC_>
  407adf:	c9                   	leaveq 
  407ae0:	c3                   	retq   

0000000000407ae1 <_ZSt9__advanceIN9__gnu_cxx17__normal_iteratorIP4areaSt6vectorIS2_SaIS2_EEEElEvRT_T0_St26random_access_iterator_tag>:
  407ae1:	55                   	push   %rbp
  407ae2:	48 89 e5             	mov    %rsp,%rbp
  407ae5:	48 83 ec 10          	sub    $0x10,%rsp
  407ae9:	48 89 7d f8          	mov    %rdi,-0x8(%rbp)
  407aed:	48 89 75 f0          	mov    %rsi,-0x10(%rbp)
  407af1:	48 8d 55 f0          	lea    -0x10(%rbp),%rdx
  407af5:	48 8b 45 f8          	mov    -0x8(%rbp),%rax
  407af9:	48 89 d6             	mov    %rdx,%rsi
  407afc:	48 89 c7             	mov    %rax,%rdi
  407aff:	e8 14 0b 00 00       	callq  408618 <_ZN9__gnu_cxx17__normal_iteratorIP4areaSt6vectorIS1_SaIS1_EEEpLERKl>
  407b04:	c9                   	leaveq 
  407b05:	c3                   	retq   

0000000000407b06 <_ZSt12__miter_baseIN9__gnu_cxx17__normal_iteratorIP4areaSt6vectorIS2_SaIS2_EEEEENSt11_Miter_baseIT_E13iterator_typeES9_>:
  407b06:	55                   	push   %rbp
  407b07:	48 89 e5             	mov    %rsp,%rbp
  407b0a:	48 83 ec 10          	sub    $0x10,%rsp
  407b0e:	48 89 7d f0          	mov    %rdi,-0x10(%rbp)
  407b12:	48 8b 45 f0          	mov    -0x10(%rbp),%rax
  407b16:	48 89 c7             	mov    %rax,%rdi
  407b19:	e8 35 0b 00 00       	callq  408653 <_ZNSt10_Iter_baseIN9__gnu_cxx17__normal_iteratorIP4areaSt6vectorIS2_SaIS2_EEEELb0EE7_S_baseES7_>
  407b1e:	c9                   	leaveq 
  407b1f:	c3                   	retq   

0000000000407b20 <_ZSt14__copy_move_a2ILb1EN9__gnu_cxx17__normal_iteratorIP4areaSt6vectorIS2_SaIS2_EEEES7_ET1_T0_S9_S8_>:
  407b20:	55                   	push   %rbp
  407b21:	48 89 e5             	mov    %rsp,%rbp
  407b24:	41 54                	push   %r12
  407b26:	53                   	push   %rbx
  407b27:	48 83 ec 40          	sub    $0x40,%rsp
  407b2b:	48 89 7d d0          	mov    %rdi,-0x30(%rbp)
  407b2f:	48 89 75 c0          	mov    %rsi,-0x40(%rbp)
  407b33:	48 89 55 b0          	mov    %rdx,-0x50(%rbp)
  407b37:	48 8b 45 b0          	mov    -0x50(%rbp),%rax
  407b3b:	48 89 c7             	mov    %rax,%rdi
  407b3e:	e8 1e 0b 00 00       	callq  408661 <_ZSt12__niter_baseIN9__gnu_cxx17__normal_iteratorIP4areaSt6vectorIS2_SaIS2_EEEEENSt11_Niter_baseIT_E13iterator_typeES9_>
  407b43:	49 89 c4             	mov    %rax,%r12
  407b46:	48 8b 45 c0          	mov    -0x40(%rbp),%rax
  407b4a:	48 89 c7             	mov    %rax,%rdi
  407b4d:	e8 0f 0b 00 00       	callq  408661 <_ZSt12__niter_baseIN9__gnu_cxx17__normal_iteratorIP4areaSt6vectorIS2_SaIS2_EEEEENSt11_Niter_baseIT_E13iterator_typeES9_>
  407b52:	48 89 c3             	mov    %rax,%rbx
  407b55:	48 8b 45 d0          	mov    -0x30(%rbp),%rax
  407b59:	48 89 c7             	mov    %rax,%rdi
  407b5c:	e8 00 0b 00 00       	callq  408661 <_ZSt12__niter_baseIN9__gnu_cxx17__normal_iteratorIP4areaSt6vectorIS2_SaIS2_EEEEENSt11_Niter_baseIT_E13iterator_typeES9_>
  407b61:	4c 89 e2             	mov    %r12,%rdx
  407b64:	48 89 de             	mov    %rbx,%rsi
  407b67:	48 89 c7             	mov    %rax,%rdi
  407b6a:	e8 0c 0b 00 00       	callq  40867b <_ZSt13__copy_move_aILb1EP4areaS1_ET1_T0_S3_S2_>
  407b6f:	48 89 45 e8          	mov    %rax,-0x18(%rbp)
  407b73:	48 8d 55 e8          	lea    -0x18(%rbp),%rdx
  407b77:	48 8d 45 e0          	lea    -0x20(%rbp),%rax
  407b7b:	48 89 d6             	mov    %rdx,%rsi
  407b7e:	48 89 c7             	mov    %rax,%rdi
  407b81:	e8 aa d8 ff ff       	callq  405430 <_ZN9__gnu_cxx17__normal_iteratorIP4areaSt6vectorIS1_SaIS1_EEEC1ERKS2_>
  407b86:	48 8b 45 e0          	mov    -0x20(%rbp),%rax
  407b8a:	48 83 c4 40          	add    $0x40,%rsp
  407b8e:	5b                   	pop    %rbx
  407b8f:	41 5c                	pop    %r12
  407b91:	5d                   	pop    %rbp
  407b92:	c3                   	retq   

0000000000407b93 <_ZNSt16allocator_traitsISaI4areaEE10_S_destroyIS0_EENSt9enable_ifIXsrNS2_16__destroy_helperIT_EE5valueEvE4typeERS1_PS6_>:
  407b93:	55                   	push   %rbp
  407b94:	48 89 e5             	mov    %rsp,%rbp
  407b97:	48 83 ec 10          	sub    $0x10,%rsp
  407b9b:	48 89 7d f8          	mov    %rdi,-0x8(%rbp)
  407b9f:	48 89 75 f0          	mov    %rsi,-0x10(%rbp)
  407ba3:	48 8b 55 f0          	mov    -0x10(%rbp),%rdx
  407ba7:	48 8b 45 f8          	mov    -0x8(%rbp),%rax
  407bab:	48 89 d6             	mov    %rdx,%rsi
  407bae:	48 89 c7             	mov    %rax,%rdi
  407bb1:	e8 f6 0a 00 00       	callq  4086ac <_ZN9__gnu_cxx13new_allocatorI4areaE7destroyIS1_EEvPT_>
  407bb6:	c9                   	leaveq 
  407bb7:	c3                   	retq   

0000000000407bb8 <_ZNSt16allocator_traitsISaIiEE9constructIiIiEEEDTcl12_S_constructfp_fp0_spcl7forwardIT0_Efp1_EEERS0_PT_DpOS3_>:
  407bb8:	55                   	push   %rbp
  407bb9:	48 89 e5             	mov    %rsp,%rbp
  407bbc:	48 83 ec 20          	sub    $0x20,%rsp
  407bc0:	48 89 7d f8          	mov    %rdi,-0x8(%rbp)
  407bc4:	48 89 75 f0          	mov    %rsi,-0x10(%rbp)
  407bc8:	48 89 55 e8          	mov    %rdx,-0x18(%rbp)
  407bcc:	48 8b 45 e8          	mov    -0x18(%rbp),%rax
  407bd0:	48 89 c7             	mov    %rax,%rdi
  407bd3:	e8 f9 e8 ff ff       	callq  4064d1 <_ZSt7forwardIiEOT_RNSt16remove_referenceIS0_E4typeE>
  407bd8:	48 89 c2             	mov    %rax,%rdx
  407bdb:	48 8b 4d f0          	mov    -0x10(%rbp),%rcx
  407bdf:	48 8b 45 f8          	mov    -0x8(%rbp),%rax
  407be3:	48 89 ce             	mov    %rcx,%rsi
  407be6:	48 89 c7             	mov    %rax,%rdi
  407be9:	e8 cc 0a 00 00       	callq  4086ba <_ZNSt16allocator_traitsISaIiEE12_S_constructIiIiEEENSt9enable_ifIXsrNS1_18__construct_helperIT_IDpT0_EEE5valueEvE4typeERS0_PS5_DpOS6_>
  407bee:	c9                   	leaveq 
  407bef:	c3                   	retq   

0000000000407bf0 <_ZNSt6vectorIiSaIiEE19_M_emplace_back_auxIIiEEEvDpOT_>:
  407bf0:	55                   	push   %rbp
  407bf1:	48 89 e5             	mov    %rsp,%rbp
  407bf4:	53                   	push   %rbx
  407bf5:	48 83 ec 38          	sub    $0x38,%rsp
  407bf9:	48 89 7d c8          	mov    %rdi,-0x38(%rbp)
  407bfd:	48 89 75 c0          	mov    %rsi,-0x40(%rbp)
  407c01:	48 8b 45 c8          	mov    -0x38(%rbp),%rax
  407c05:	ba a6 96 40 00       	mov    $0x4096a6,%edx
  407c0a:	be 01 00 00 00       	mov    $0x1,%esi
  407c0f:	48 89 c7             	mov    %rax,%rdi
  407c12:	e8 93 f4 ff ff       	callq  4070aa <_ZNKSt6vectorIiSaIiEE12_M_check_lenEmPKc>
  407c17:	48 89 45 e0          	mov    %rax,-0x20(%rbp)
  407c1b:	48 8b 45 c8          	mov    -0x38(%rbp),%rax
  407c1f:	48 8b 55 e0          	mov    -0x20(%rbp),%rdx
  407c23:	48 89 d6             	mov    %rdx,%rsi
  407c26:	48 89 c7             	mov    %rax,%rdi
  407c29:	e8 46 f5 ff ff       	callq  407174 <_ZNSt12_Vector_baseIiSaIiEE11_M_allocateEm>
  407c2e:	48 89 45 e8          	mov    %rax,-0x18(%rbp)
  407c32:	48 8b 45 e8          	mov    -0x18(%rbp),%rax
  407c36:	48 89 45 d8          	mov    %rax,-0x28(%rbp)
  407c3a:	48 8b 45 c0          	mov    -0x40(%rbp),%rax
  407c3e:	48 89 c7             	mov    %rax,%rdi
  407c41:	e8 8b e8 ff ff       	callq  4064d1 <_ZSt7forwardIiEOT_RNSt16remove_referenceIS0_E4typeE>
  407c46:	48 89 c3             	mov    %rax,%rbx
  407c49:	48 8b 45 c8          	mov    -0x38(%rbp),%rax
  407c4d:	48 89 c7             	mov    %rax,%rdi
  407c50:	e8 b7 d4 ff ff       	callq  40510c <_ZNKSt6vectorIiSaIiEE4sizeEv>
  407c55:	48 8d 14 85 00 00 00 	lea    0x0(,%rax,4),%rdx
  407c5c:	00 
  407c5d:	48 8b 45 e8          	mov    -0x18(%rbp),%rax
  407c61:	48 8d 0c 02          	lea    (%rdx,%rax,1),%rcx
  407c65:	48 8b 45 c8          	mov    -0x38(%rbp),%rax
  407c69:	48 89 da             	mov    %rbx,%rdx
  407c6c:	48 89 ce             	mov    %rcx,%rsi
  407c6f:	48 89 c7             	mov    %rax,%rdi
  407c72:	e8 41 ff ff ff       	callq  407bb8 <_ZNSt16allocator_traitsISaIiEE9constructIiIiEEEDTcl12_S_constructfp_fp0_spcl7forwardIT0_Efp1_EEERS0_PT_DpOS3_>
  407c77:	48 c7 45 d8 00 00 00 	movq   $0x0,-0x28(%rbp)
  407c7e:	00 
  407c7f:	48 8b 45 c8          	mov    -0x38(%rbp),%rax
  407c83:	48 89 c7             	mov    %rax,%rdi
  407c86:	e8 db d9 ff ff       	callq  405666 <_ZNSt12_Vector_baseIiSaIiEE19_M_get_Tp_allocatorEv>
  407c8b:	48 89 c1             	mov    %rax,%rcx
  407c8e:	48 8b 45 c8          	mov    -0x38(%rbp),%rax
  407c92:	48 8b 70 08          	mov    0x8(%rax),%rsi
  407c96:	48 8b 45 c8          	mov    -0x38(%rbp),%rax
  407c9a:	48 8b 00             	mov    (%rax),%rax
  407c9d:	48 8b 55 e8          	mov    -0x18(%rbp),%rdx
  407ca1:	48 89 c7             	mov    %rax,%rdi
  407ca4:	e8 03 f5 ff ff       	callq  4071ac <_ZSt34__uninitialized_move_if_noexcept_aIPiS0_SaIiEET0_T_S3_S2_RT1_>
  407ca9:	48 89 45 d8          	mov    %rax,-0x28(%rbp)
  407cad:	48 83 45 d8 04       	addq   $0x4,-0x28(%rbp)
  407cb2:	48 8b 45 c8          	mov    -0x38(%rbp),%rax
  407cb6:	48 89 c7             	mov    %rax,%rdi
  407cb9:	e8 a8 d9 ff ff       	callq  405666 <_ZNSt12_Vector_baseIiSaIiEE19_M_get_Tp_allocatorEv>
  407cbe:	48 89 c2             	mov    %rax,%rdx
  407cc1:	48 8b 45 c8          	mov    -0x38(%rbp),%rax
  407cc5:	48 8b 48 08          	mov    0x8(%rax),%rcx
  407cc9:	48 8b 45 c8          	mov    -0x38(%rbp),%rax
  407ccd:	48 8b 00             	mov    (%rax),%rax
  407cd0:	48 89 ce             	mov    %rcx,%rsi
  407cd3:	48 89 c7             	mov    %rax,%rdi
  407cd6:	e8 99 d9 ff ff       	callq  405674 <_ZSt8_DestroyIPiiEvT_S1_RSaIT0_E>
  407cdb:	48 8b 45 c8          	mov    -0x38(%rbp),%rax
  407cdf:	48 8b 40 10          	mov    0x10(%rax),%rax
  407ce3:	48 89 c2             	mov    %rax,%rdx
  407ce6:	48 8b 45 c8          	mov    -0x38(%rbp),%rax
  407cea:	48 8b 00             	mov    (%rax),%rax
  407ced:	48 29 c2             	sub    %rax,%rdx
  407cf0:	48 89 d0             	mov    %rdx,%rax
  407cf3:	48 c1 f8 02          	sar    $0x2,%rax
  407cf7:	48 89 c2             	mov    %rax,%rdx
  407cfa:	48 8b 45 c8          	mov    -0x38(%rbp),%rax
  407cfe:	48 8b 08             	mov    (%rax),%rcx
  407d01:	48 8b 45 c8          	mov    -0x38(%rbp),%rax
  407d05:	48 89 ce             	mov    %rcx,%rsi
  407d08:	48 89 c7             	mov    %rax,%rdi
  407d0b:	e8 30 ec ff ff       	callq  406940 <_ZNSt12_Vector_baseIiSaIiEE13_M_deallocateEPim>
  407d10:	48 8b 45 c8          	mov    -0x38(%rbp),%rax
  407d14:	48 8b 55 e8          	mov    -0x18(%rbp),%rdx
  407d18:	48 89 10             	mov    %rdx,(%rax)
  407d1b:	48 8b 45 c8          	mov    -0x38(%rbp),%rax
  407d1f:	48 8b 55 d8          	mov    -0x28(%rbp),%rdx
  407d23:	48 89 50 08          	mov    %rdx,0x8(%rax)
  407d27:	48 8b 45 e0          	mov    -0x20(%rbp),%rax
  407d2b:	48 8d 14 85 00 00 00 	lea    0x0(,%rax,4),%rdx
  407d32:	00 
  407d33:	48 8b 45 e8          	mov    -0x18(%rbp),%rax
  407d37:	48 01 c2             	add    %rax,%rdx
  407d3a:	48 8b 45 c8          	mov    -0x38(%rbp),%rax
  407d3e:	48 89 50 10          	mov    %rdx,0x10(%rax)
  407d42:	e9 8c 00 00 00       	jmpq   407dd3 <_ZNSt6vectorIiSaIiEE19_M_emplace_back_auxIIiEEEvDpOT_+0x1e3>
  407d47:	48 89 c3             	mov    %rax,%rbx
  407d4a:	e8 b1 93 ff ff       	callq  401100 <__cxa_end_catch@plt>
  407d4f:	48 89 d8             	mov    %rbx,%rax
  407d52:	48 89 c7             	mov    %rax,%rdi
  407d55:	e8 36 94 ff ff       	callq  401190 <_Unwind_Resume@plt>
  407d5a:	48 89 c7             	mov    %rax,%rdi
  407d5d:	e8 be 93 ff ff       	callq  401120 <__cxa_begin_catch@plt>
  407d62:	48 83 7d d8 00       	cmpq   $0x0,-0x28(%rbp)
  407d67:	75 2c                	jne    407d95 <_ZNSt6vectorIiSaIiEE19_M_emplace_back_auxIIiEEEvDpOT_+0x1a5>
  407d69:	48 8b 45 c8          	mov    -0x38(%rbp),%rax
  407d6d:	48 89 c7             	mov    %rax,%rdi
  407d70:	e8 97 d3 ff ff       	callq  40510c <_ZNKSt6vectorIiSaIiEE4sizeEv>
  407d75:	48 8d 14 85 00 00 00 	lea    0x0(,%rax,4),%rdx
  407d7c:	00 
  407d7d:	48 8b 45 e8          	mov    -0x18(%rbp),%rax
  407d81:	48 01 c2             	add    %rax,%rdx
  407d84:	48 8b 45 c8          	mov    -0x38(%rbp),%rax
  407d88:	48 89 d6             	mov    %rdx,%rsi
  407d8b:	48 89 c7             	mov    %rax,%rdi
  407d8e:	e8 f9 e7 ff ff       	callq  40658c <_ZNSt16allocator_traitsISaIiEE7destroyIiEEvRS0_PT_>
  407d93:	eb 22                	jmp    407db7 <_ZNSt6vectorIiSaIiEE19_M_emplace_back_auxIIiEEEvDpOT_+0x1c7>
  407d95:	48 8b 45 c8          	mov    -0x38(%rbp),%rax
  407d99:	48 89 c7             	mov    %rax,%rdi
  407d9c:	e8 c5 d8 ff ff       	callq  405666 <_ZNSt12_Vector_baseIiSaIiEE19_M_get_Tp_allocatorEv>
  407da1:	48 89 c2             	mov    %rax,%rdx
  407da4:	48 8b 4d d8          	mov    -0x28(%rbp),%rcx
  407da8:	48 8b 45 e8          	mov    -0x18(%rbp),%rax
  407dac:	48 89 ce             	mov    %rcx,%rsi
  407daf:	48 89 c7             	mov    %rax,%rdi
  407db2:	e8 bd d8 ff ff       	callq  405674 <_ZSt8_DestroyIPiiEvT_S1_RSaIT0_E>
  407db7:	48 8b 45 c8          	mov    -0x38(%rbp),%rax
  407dbb:	48 8b 55 e0          	mov    -0x20(%rbp),%rdx
  407dbf:	48 8b 4d e8          	mov    -0x18(%rbp),%rcx
  407dc3:	48 89 ce             	mov    %rcx,%rsi
  407dc6:	48 89 c7             	mov    %rax,%rdi
  407dc9:	e8 72 eb ff ff       	callq  406940 <_ZNSt12_Vector_baseIiSaIiEE13_M_deallocateEPim>
  407dce:	e8 0d 92 ff ff       	callq  400fe0 <__cxa_rethrow@plt>
  407dd3:	48 83 c4 38          	add    $0x38,%rsp
  407dd7:	5b                   	pop    %rbx
  407dd8:	5d                   	pop    %rbp
  407dd9:	c3                   	retq   

0000000000407dda <_ZNSt16allocator_traitsISaIiEE10_S_destroyIiEENSt9enable_ifIXsrNS1_16__destroy_helperIT_EE5valueEvE4typeERS0_PS5_>:
  407dda:	55                   	push   %rbp
  407ddb:	48 89 e5             	mov    %rsp,%rbp
  407dde:	48 83 ec 10          	sub    $0x10,%rsp
  407de2:	48 89 7d f8          	mov    %rdi,-0x8(%rbp)
  407de6:	48 89 75 f0          	mov    %rsi,-0x10(%rbp)
  407dea:	48 8b 55 f0          	mov    -0x10(%rbp),%rdx
  407dee:	48 8b 45 f8          	mov    -0x8(%rbp),%rax
  407df2:	48 89 d6             	mov    %rdx,%rsi
  407df5:	48 89 c7             	mov    %rax,%rdi
  407df8:	e8 f5 08 00 00       	callq  4086f2 <_ZN9__gnu_cxx13new_allocatorIiE7destroyIiEEvPT_>
  407dfd:	c9                   	leaveq 
  407dfe:	c3                   	retq   

0000000000407dff <_ZN9__gnu_cxxmiIPiSt6vectorIiSaIiEEEENS_17__normal_iteratorIT_T0_E15difference_typeERKS8_SB_>:
  407dff:	55                   	push   %rbp
  407e00:	48 89 e5             	mov    %rsp,%rbp
  407e03:	53                   	push   %rbx
  407e04:	48 83 ec 18          	sub    $0x18,%rsp
  407e08:	48 89 7d e8          	mov    %rdi,-0x18(%rbp)
  407e0c:	48 89 75 e0          	mov    %rsi,-0x20(%rbp)
  407e10:	48 8b 45 e8          	mov    -0x18(%rbp),%rax
  407e14:	48 89 c7             	mov    %rax,%rdi
  407e17:	e8 62 e7 ff ff       	callq  40657e <_ZNK9__gnu_cxx17__normal_iteratorIPiSt6vectorIiSaIiEEE4baseEv>
  407e1c:	48 8b 00             	mov    (%rax),%rax
  407e1f:	48 89 c3             	mov    %rax,%rbx
  407e22:	48 8b 45 e0          	mov    -0x20(%rbp),%rax
  407e26:	48 89 c7             	mov    %rax,%rdi
  407e29:	e8 50 e7 ff ff       	callq  40657e <_ZNK9__gnu_cxx17__normal_iteratorIPiSt6vectorIiSaIiEEE4baseEv>
  407e2e:	48 8b 00             	mov    (%rax),%rax
  407e31:	48 29 c3             	sub    %rax,%rbx
  407e34:	48 89 d8             	mov    %rbx,%rax
  407e37:	48 c1 f8 02          	sar    $0x2,%rax
  407e3b:	48 83 c4 18          	add    $0x18,%rsp
  407e3f:	5b                   	pop    %rbx
  407e40:	5d                   	pop    %rbp
  407e41:	c3                   	retq   

0000000000407e42 <_ZNSaI4areaEC1Ev>:
  407e42:	55                   	push   %rbp
  407e43:	48 89 e5             	mov    %rsp,%rbp
  407e46:	48 83 ec 10          	sub    $0x10,%rsp
  407e4a:	48 89 7d f8          	mov    %rdi,-0x8(%rbp)
  407e4e:	48 8b 45 f8          	mov    -0x8(%rbp),%rax
  407e52:	48 89 c7             	mov    %rax,%rdi
  407e55:	e8 a6 08 00 00       	callq  408700 <_ZN9__gnu_cxx13new_allocatorI4areaEC1Ev>
  407e5a:	c9                   	leaveq 
  407e5b:	c3                   	retq   

0000000000407e5c <_ZN9__gnu_cxx13new_allocatorI4areaED1Ev>:
  407e5c:	55                   	push   %rbp
  407e5d:	48 89 e5             	mov    %rsp,%rbp
  407e60:	48 89 7d f8          	mov    %rdi,-0x8(%rbp)
  407e64:	5d                   	pop    %rbp
  407e65:	c3                   	retq   

0000000000407e66 <_ZN9__gnu_cxx13new_allocatorI4areaE10deallocateEPS1_m>:
  407e66:	55                   	push   %rbp
  407e67:	48 89 e5             	mov    %rsp,%rbp
  407e6a:	48 83 ec 20          	sub    $0x20,%rsp
  407e6e:	48 89 7d f8          	mov    %rdi,-0x8(%rbp)
  407e72:	48 89 75 f0          	mov    %rsi,-0x10(%rbp)
  407e76:	48 89 55 e8          	mov    %rdx,-0x18(%rbp)
  407e7a:	48 8b 45 f0          	mov    -0x10(%rbp),%rax
  407e7e:	48 89 c7             	mov    %rax,%rdi
  407e81:	e8 3a 91 ff ff       	callq  400fc0 <_ZdlPv@plt>
  407e86:	c9                   	leaveq 
  407e87:	c3                   	retq   

0000000000407e88 <_ZNSt12_Destroy_auxILb1EE9__destroyIP4areaEEvT_S4_>:
  407e88:	55                   	push   %rbp
  407e89:	48 89 e5             	mov    %rsp,%rbp
  407e8c:	48 89 7d f8          	mov    %rdi,-0x8(%rbp)
  407e90:	48 89 75 f0          	mov    %rsi,-0x10(%rbp)
  407e94:	5d                   	pop    %rbp
  407e95:	c3                   	retq   

0000000000407e96 <_ZNSaI4nodeEC1Ev>:
  407e96:	55                   	push   %rbp
  407e97:	48 89 e5             	mov    %rsp,%rbp
  407e9a:	48 83 ec 10          	sub    $0x10,%rsp
  407e9e:	48 89 7d f8          	mov    %rdi,-0x8(%rbp)
  407ea2:	48 8b 45 f8          	mov    -0x8(%rbp),%rax
  407ea6:	48 89 c7             	mov    %rax,%rdi
  407ea9:	e8 5c 08 00 00       	callq  40870a <_ZN9__gnu_cxx13new_allocatorI4nodeEC1Ev>
  407eae:	c9                   	leaveq 
  407eaf:	c3                   	retq   

0000000000407eb0 <_ZN9__gnu_cxx13new_allocatorI4nodeED1Ev>:
  407eb0:	55                   	push   %rbp
  407eb1:	48 89 e5             	mov    %rsp,%rbp
  407eb4:	48 89 7d f8          	mov    %rdi,-0x8(%rbp)
  407eb8:	5d                   	pop    %rbp
  407eb9:	c3                   	retq   

0000000000407eba <_ZN9__gnu_cxx13new_allocatorI4nodeE10deallocateEPS1_m>:
  407eba:	55                   	push   %rbp
  407ebb:	48 89 e5             	mov    %rsp,%rbp
  407ebe:	48 83 ec 20          	sub    $0x20,%rsp
  407ec2:	48 89 7d f8          	mov    %rdi,-0x8(%rbp)
  407ec6:	48 89 75 f0          	mov    %rsi,-0x10(%rbp)
  407eca:	48 89 55 e8          	mov    %rdx,-0x18(%rbp)
  407ece:	48 8b 45 f0          	mov    -0x10(%rbp),%rax
  407ed2:	48 89 c7             	mov    %rax,%rdi
  407ed5:	e8 e6 90 ff ff       	callq  400fc0 <_ZdlPv@plt>
  407eda:	c9                   	leaveq 
  407edb:	c3                   	retq   

0000000000407edc <_ZNSt12_Destroy_auxILb1EE9__destroyIP4nodeEEvT_S4_>:
  407edc:	55                   	push   %rbp
  407edd:	48 89 e5             	mov    %rsp,%rbp
  407ee0:	48 89 7d f8          	mov    %rdi,-0x8(%rbp)
  407ee4:	48 89 75 f0          	mov    %rsi,-0x10(%rbp)
  407ee8:	5d                   	pop    %rbp
  407ee9:	c3                   	retq   

0000000000407eea <_ZNSaIiEC1Ev>:
  407eea:	55                   	push   %rbp
  407eeb:	48 89 e5             	mov    %rsp,%rbp
  407eee:	48 83 ec 10          	sub    $0x10,%rsp
  407ef2:	48 89 7d f8          	mov    %rdi,-0x8(%rbp)
  407ef6:	48 8b 45 f8          	mov    -0x8(%rbp),%rax
  407efa:	48 89 c7             	mov    %rax,%rdi
  407efd:	e8 12 08 00 00       	callq  408714 <_ZN9__gnu_cxx13new_allocatorIiEC1Ev>
  407f02:	c9                   	leaveq 
  407f03:	c3                   	retq   

0000000000407f04 <_ZN9__gnu_cxx13new_allocatorIiED1Ev>:
  407f04:	55                   	push   %rbp
  407f05:	48 89 e5             	mov    %rsp,%rbp
  407f08:	48 89 7d f8          	mov    %rdi,-0x8(%rbp)
  407f0c:	5d                   	pop    %rbp
  407f0d:	c3                   	retq   

0000000000407f0e <_ZN9__gnu_cxx13new_allocatorIiE10deallocateEPim>:
  407f0e:	55                   	push   %rbp
  407f0f:	48 89 e5             	mov    %rsp,%rbp
  407f12:	48 83 ec 20          	sub    $0x20,%rsp
  407f16:	48 89 7d f8          	mov    %rdi,-0x8(%rbp)
  407f1a:	48 89 75 f0          	mov    %rsi,-0x10(%rbp)
  407f1e:	48 89 55 e8          	mov    %rdx,-0x18(%rbp)
  407f22:	48 8b 45 f0          	mov    -0x10(%rbp),%rax
  407f26:	48 89 c7             	mov    %rax,%rdi
  407f29:	e8 92 90 ff ff       	callq  400fc0 <_ZdlPv@plt>
  407f2e:	c9                   	leaveq 
  407f2f:	c3                   	retq   

0000000000407f30 <_ZNSt12_Destroy_auxILb1EE9__destroyIPiEEvT_S3_>:
  407f30:	55                   	push   %rbp
  407f31:	48 89 e5             	mov    %rsp,%rbp
  407f34:	48 89 7d f8          	mov    %rdi,-0x8(%rbp)
  407f38:	48 89 75 f0          	mov    %rsi,-0x10(%rbp)
  407f3c:	5d                   	pop    %rbp
  407f3d:	c3                   	retq   

0000000000407f3e <_ZNSt16allocator_traitsISaI4nodeEE12_S_constructIS0_IS0_EEENSt9enable_ifIXsrNS2_18__construct_helperIT_IDpT0_EEE5valueEvE4typeERS1_PS6_DpOS7_>:
  407f3e:	55                   	push   %rbp
  407f3f:	48 89 e5             	mov    %rsp,%rbp
  407f42:	48 83 ec 20          	sub    $0x20,%rsp
  407f46:	48 89 7d f8          	mov    %rdi,-0x8(%rbp)
  407f4a:	48 89 75 f0          	mov    %rsi,-0x10(%rbp)
  407f4e:	48 89 55 e8          	mov    %rdx,-0x18(%rbp)
  407f52:	48 8b 45 e8          	mov    -0x18(%rbp),%rax
  407f56:	48 89 c7             	mov    %rax,%rdi
  407f59:	e8 3f d7 ff ff       	callq  40569d <_ZSt7forwardI4nodeEOT_RNSt16remove_referenceIS1_E4typeE>
  407f5e:	48 89 c2             	mov    %rax,%rdx
  407f61:	48 8b 4d f0          	mov    -0x10(%rbp),%rcx
  407f65:	48 8b 45 f8          	mov    -0x8(%rbp),%rax
  407f69:	48 89 ce             	mov    %rcx,%rsi
  407f6c:	48 89 c7             	mov    %rax,%rdi
  407f6f:	e8 aa 07 00 00       	callq  40871e <_ZN9__gnu_cxx13new_allocatorI4nodeE9constructIS1_IS1_EEEvPT_DpOT0_>
  407f74:	c9                   	leaveq 
  407f75:	c3                   	retq   

0000000000407f76 <_ZNKSt6vectorI4nodeSaIS0_EE12_M_check_lenEmPKc>:
  407f76:	55                   	push   %rbp
  407f77:	48 89 e5             	mov    %rsp,%rbp
  407f7a:	53                   	push   %rbx
  407f7b:	48 83 ec 38          	sub    $0x38,%rsp
  407f7f:	48 89 7d d8          	mov    %rdi,-0x28(%rbp)
  407f83:	48 89 75 d0          	mov    %rsi,-0x30(%rbp)
  407f87:	48 89 55 c8          	mov    %rdx,-0x38(%rbp)
  407f8b:	48 8b 45 d8          	mov    -0x28(%rbp),%rax
  407f8f:	48 89 c7             	mov    %rax,%rdi
  407f92:	e8 cf 07 00 00       	callq  408766 <_ZNKSt6vectorI4nodeSaIS0_EE8max_sizeEv>
  407f97:	48 89 c3             	mov    %rax,%rbx
  407f9a:	48 8b 45 d8          	mov    -0x28(%rbp),%rax
  407f9e:	48 89 c7             	mov    %rax,%rdi
  407fa1:	e8 88 d7 ff ff       	callq  40572e <_ZNKSt6vectorI4nodeSaIS0_EE4sizeEv>
  407fa6:	48 29 c3             	sub    %rax,%rbx
  407fa9:	48 89 da             	mov    %rbx,%rdx
  407fac:	48 8b 45 d0          	mov    -0x30(%rbp),%rax
  407fb0:	48 39 c2             	cmp    %rax,%rdx
  407fb3:	0f 92 c0             	setb   %al
  407fb6:	84 c0                	test   %al,%al
  407fb8:	74 0c                	je     407fc6 <_ZNKSt6vectorI4nodeSaIS0_EE12_M_check_lenEmPKc+0x50>
  407fba:	48 8b 45 c8          	mov    -0x38(%rbp),%rax
  407fbe:	48 89 c7             	mov    %rax,%rdi
  407fc1:	e8 6a 8f ff ff       	callq  400f30 <_ZSt20__throw_length_errorPKc@plt>
  407fc6:	48 8b 45 d8          	mov    -0x28(%rbp),%rax
  407fca:	48 89 c7             	mov    %rax,%rdi
  407fcd:	e8 5c d7 ff ff       	callq  40572e <_ZNKSt6vectorI4nodeSaIS0_EE4sizeEv>
  407fd2:	48 89 c3             	mov    %rax,%rbx
  407fd5:	48 8b 45 d8          	mov    -0x28(%rbp),%rax
  407fd9:	48 89 c7             	mov    %rax,%rdi
  407fdc:	e8 4d d7 ff ff       	callq  40572e <_ZNKSt6vectorI4nodeSaIS0_EE4sizeEv>
  407fe1:	48 89 45 e0          	mov    %rax,-0x20(%rbp)
  407fe5:	48 8d 55 d0          	lea    -0x30(%rbp),%rdx
  407fe9:	48 8d 45 e0          	lea    -0x20(%rbp),%rax
  407fed:	48 89 d6             	mov    %rdx,%rsi
  407ff0:	48 89 c7             	mov    %rax,%rdi
  407ff3:	e8 a8 a7 ff ff       	callq  4027a0 <_ZSt3maxImERKT_S2_S2_>
  407ff8:	48 8b 00             	mov    (%rax),%rax
  407ffb:	48 01 d8             	add    %rbx,%rax
  407ffe:	48 89 45 e8          	mov    %rax,-0x18(%rbp)
  408002:	48 8b 45 d8          	mov    -0x28(%rbp),%rax
  408006:	48 89 c7             	mov    %rax,%rdi
  408009:	e8 20 d7 ff ff       	callq  40572e <_ZNKSt6vectorI4nodeSaIS0_EE4sizeEv>
  40800e:	48 3b 45 e8          	cmp    -0x18(%rbp),%rax
  408012:	77 12                	ja     408026 <_ZNKSt6vectorI4nodeSaIS0_EE12_M_check_lenEmPKc+0xb0>
  408014:	48 8b 45 d8          	mov    -0x28(%rbp),%rax
  408018:	48 89 c7             	mov    %rax,%rdi
  40801b:	e8 46 07 00 00       	callq  408766 <_ZNKSt6vectorI4nodeSaIS0_EE8max_sizeEv>
  408020:	48 3b 45 e8          	cmp    -0x18(%rbp),%rax
  408024:	73 0e                	jae    408034 <_ZNKSt6vectorI4nodeSaIS0_EE12_M_check_lenEmPKc+0xbe>
  408026:	48 8b 45 d8          	mov    -0x28(%rbp),%rax
  40802a:	48 89 c7             	mov    %rax,%rdi
  40802d:	e8 34 07 00 00       	callq  408766 <_ZNKSt6vectorI4nodeSaIS0_EE8max_sizeEv>
  408032:	eb 04                	jmp    408038 <_ZNKSt6vectorI4nodeSaIS0_EE12_M_check_lenEmPKc+0xc2>
  408034:	48 8b 45 e8          	mov    -0x18(%rbp),%rax
  408038:	48 83 c4 38          	add    $0x38,%rsp
  40803c:	5b                   	pop    %rbx
  40803d:	5d                   	pop    %rbp
  40803e:	c3                   	retq   
  40803f:	90                   	nop

0000000000408040 <_ZNSt12_Vector_baseI4nodeSaIS0_EE11_M_allocateEm>:
  408040:	55                   	push   %rbp
  408041:	48 89 e5             	mov    %rsp,%rbp
  408044:	48 83 ec 10          	sub    $0x10,%rsp
  408048:	48 89 7d f8          	mov    %rdi,-0x8(%rbp)
  40804c:	48 89 75 f0          	mov    %rsi,-0x10(%rbp)
  408050:	48 83 7d f0 00       	cmpq   $0x0,-0x10(%rbp)
  408055:	74 1a                	je     408071 <_ZNSt12_Vector_baseI4nodeSaIS0_EE11_M_allocateEm+0x31>
  408057:	48 8b 45 f8          	mov    -0x8(%rbp),%rax
  40805b:	48 8b 4d f0          	mov    -0x10(%rbp),%rcx
  40805f:	ba 00 00 00 00       	mov    $0x0,%edx
  408064:	48 89 ce             	mov    %rcx,%rsi
  408067:	48 89 c7             	mov    %rax,%rdi
  40806a:	e8 19 07 00 00       	callq  408788 <_ZN9__gnu_cxx13new_allocatorI4nodeE8allocateEmPKv>
  40806f:	eb 05                	jmp    408076 <_ZNSt12_Vector_baseI4nodeSaIS0_EE11_M_allocateEm+0x36>
  408071:	b8 00 00 00 00       	mov    $0x0,%eax
  408076:	c9                   	leaveq 
  408077:	c3                   	retq   

0000000000408078 <_ZSt34__uninitialized_move_if_noexcept_aIP4nodeS1_SaIS0_EET0_T_S4_S3_RT1_>:
  408078:	55                   	push   %rbp
  408079:	48 89 e5             	mov    %rsp,%rbp
  40807c:	53                   	push   %rbx
  40807d:	48 83 ec 28          	sub    $0x28,%rsp
  408081:	48 89 7d e8          	mov    %rdi,-0x18(%rbp)
  408085:	48 89 75 e0          	mov    %rsi,-0x20(%rbp)
  408089:	48 89 55 d8          	mov    %rdx,-0x28(%rbp)
  40808d:	48 89 4d d0          	mov    %rcx,-0x30(%rbp)
  408091:	48 8b 45 e0          	mov    -0x20(%rbp),%rax
  408095:	48 89 c7             	mov    %rax,%rdi
  408098:	e8 2d 07 00 00       	callq  4087ca <_ZSt32__make_move_if_noexcept_iteratorIP4nodeSt13move_iteratorIS1_EET0_T_>
  40809d:	48 89 c3             	mov    %rax,%rbx
  4080a0:	48 8b 45 e8          	mov    -0x18(%rbp),%rax
  4080a4:	48 89 c7             	mov    %rax,%rdi
  4080a7:	e8 1e 07 00 00       	callq  4087ca <_ZSt32__make_move_if_noexcept_iteratorIP4nodeSt13move_iteratorIS1_EET0_T_>
  4080ac:	48 8b 4d d0          	mov    -0x30(%rbp),%rcx
  4080b0:	48 8b 55 d8          	mov    -0x28(%rbp),%rdx
  4080b4:	48 89 de             	mov    %rbx,%rsi
  4080b7:	48 89 c7             	mov    %rax,%rdi
  4080ba:	e8 30 07 00 00       	callq  4087ef <_ZSt22__uninitialized_copy_aISt13move_iteratorIP4nodeES2_S1_ET0_T_S5_S4_RSaIT1_E>
  4080bf:	48 83 c4 28          	add    $0x28,%rsp
  4080c3:	5b                   	pop    %rbx
  4080c4:	5d                   	pop    %rbp
  4080c5:	c3                   	retq   

00000000004080c6 <_ZNSt16allocator_traitsISaI4nodeEE7destroyIS0_EEvRS1_PT_>:
  4080c6:	55                   	push   %rbp
  4080c7:	48 89 e5             	mov    %rsp,%rbp
  4080ca:	48 83 ec 10          	sub    $0x10,%rsp
  4080ce:	48 89 7d f8          	mov    %rdi,-0x8(%rbp)
  4080d2:	48 89 75 f0          	mov    %rsi,-0x10(%rbp)
  4080d6:	48 8b 55 f0          	mov    -0x10(%rbp),%rdx
  4080da:	48 8b 45 f8          	mov    -0x8(%rbp),%rax
  4080de:	48 89 d6             	mov    %rdx,%rsi
  4080e1:	48 89 c7             	mov    %rax,%rdi
  4080e4:	e8 37 07 00 00       	callq  408820 <_ZNSt16allocator_traitsISaI4nodeEE10_S_destroyIS0_EENSt9enable_ifIXsrNS2_16__destroy_helperIT_EE5valueEvE4typeERS1_PS6_>
  4080e9:	c9                   	leaveq 
  4080ea:	c3                   	retq   

00000000004080eb <_ZN9__gnu_cxxmiIP4nodeSt6vectorIS1_SaIS1_EEEENS_17__normal_iteratorIT_T0_E15difference_typeERKS9_SC_>:
  4080eb:	55                   	push   %rbp
  4080ec:	48 89 e5             	mov    %rsp,%rbp
  4080ef:	53                   	push   %rbx
  4080f0:	48 83 ec 18          	sub    $0x18,%rsp
  4080f4:	48 89 7d e8          	mov    %rdi,-0x18(%rbp)
  4080f8:	48 89 75 e0          	mov    %rsi,-0x20(%rbp)
  4080fc:	48 8b 45 e8          	mov    -0x18(%rbp),%rax
  408100:	48 89 c7             	mov    %rax,%rdi
  408103:	e8 74 00 00 00       	callq  40817c <_ZNK9__gnu_cxx17__normal_iteratorIP4nodeSt6vectorIS1_SaIS1_EEE4baseEv>
  408108:	48 8b 00             	mov    (%rax),%rax
  40810b:	48 89 c3             	mov    %rax,%rbx
  40810e:	48 8b 45 e0          	mov    -0x20(%rbp),%rax
  408112:	48 89 c7             	mov    %rax,%rdi
  408115:	e8 62 00 00 00       	callq  40817c <_ZNK9__gnu_cxx17__normal_iteratorIP4nodeSt6vectorIS1_SaIS1_EEE4baseEv>
  40811a:	48 8b 00             	mov    (%rax),%rax
  40811d:	48 29 c3             	sub    %rax,%rbx
  408120:	48 89 d8             	mov    %rbx,%rax
  408123:	48 c1 f8 03          	sar    $0x3,%rax
  408127:	48 83 c4 18          	add    $0x18,%rsp
  40812b:	5b                   	pop    %rbx
  40812c:	5d                   	pop    %rbp
  40812d:	c3                   	retq   

000000000040812e <_ZSt22__uninitialized_move_aIP4nodeS1_SaIS0_EET0_T_S4_S3_RT1_>:
  40812e:	55                   	push   %rbp
  40812f:	48 89 e5             	mov    %rsp,%rbp
  408132:	53                   	push   %rbx
  408133:	48 83 ec 28          	sub    $0x28,%rsp
  408137:	48 89 7d e8          	mov    %rdi,-0x18(%rbp)
  40813b:	48 89 75 e0          	mov    %rsi,-0x20(%rbp)
  40813f:	48 89 55 d8          	mov    %rdx,-0x28(%rbp)
  408143:	48 89 4d d0          	mov    %rcx,-0x30(%rbp)
  408147:	48 8b 45 e0          	mov    -0x20(%rbp),%rax
  40814b:	48 89 c7             	mov    %rax,%rdi
  40814e:	e8 f2 06 00 00       	callq  408845 <_ZSt18make_move_iteratorIP4nodeESt13move_iteratorIT_ES3_>
  408153:	48 89 c3             	mov    %rax,%rbx
  408156:	48 8b 45 e8          	mov    -0x18(%rbp),%rax
  40815a:	48 89 c7             	mov    %rax,%rdi
  40815d:	e8 e3 06 00 00       	callq  408845 <_ZSt18make_move_iteratorIP4nodeESt13move_iteratorIT_ES3_>
  408162:	48 8b 4d d0          	mov    -0x30(%rbp),%rcx
  408166:	48 8b 55 d8          	mov    -0x28(%rbp),%rdx
  40816a:	48 89 de             	mov    %rbx,%rsi
  40816d:	48 89 c7             	mov    %rax,%rdi
  408170:	e8 7a 06 00 00       	callq  4087ef <_ZSt22__uninitialized_copy_aISt13move_iteratorIP4nodeES2_S1_ET0_T_S5_S4_RSaIT1_E>
  408175:	48 83 c4 28          	add    $0x28,%rsp
  408179:	5b                   	pop    %rbx
  40817a:	5d                   	pop    %rbp
  40817b:	c3                   	retq   

000000000040817c <_ZNK9__gnu_cxx17__normal_iteratorIP4nodeSt6vectorIS1_SaIS1_EEE4baseEv>:
  40817c:	55                   	push   %rbp
  40817d:	48 89 e5             	mov    %rsp,%rbp
  408180:	48 89 7d f8          	mov    %rdi,-0x8(%rbp)
  408184:	48 8b 45 f8          	mov    -0x8(%rbp),%rax
  408188:	5d                   	pop    %rbp
  408189:	c3                   	retq   

000000000040818a <_ZSt13move_backwardIP4nodeS1_ET0_T_S3_S2_>:
  40818a:	55                   	push   %rbp
  40818b:	48 89 e5             	mov    %rsp,%rbp
  40818e:	53                   	push   %rbx
  40818f:	48 83 ec 28          	sub    $0x28,%rsp
  408193:	48 89 7d e8          	mov    %rdi,-0x18(%rbp)
  408197:	48 89 75 e0          	mov    %rsi,-0x20(%rbp)
  40819b:	48 89 55 d8          	mov    %rdx,-0x28(%rbp)
  40819f:	48 8b 45 e0          	mov    -0x20(%rbp),%rax
  4081a3:	48 89 c7             	mov    %rax,%rdi
  4081a6:	e8 bf 06 00 00       	callq  40886a <_ZSt12__miter_baseIP4nodeENSt11_Miter_baseIT_E13iterator_typeES3_>
  4081ab:	48 89 c3             	mov    %rax,%rbx
  4081ae:	48 8b 45 e8          	mov    -0x18(%rbp),%rax
  4081b2:	48 89 c7             	mov    %rax,%rdi
  4081b5:	e8 b0 06 00 00       	callq  40886a <_ZSt12__miter_baseIP4nodeENSt11_Miter_baseIT_E13iterator_typeES3_>
  4081ba:	48 8b 55 d8          	mov    -0x28(%rbp),%rdx
  4081be:	48 89 de             	mov    %rbx,%rsi
  4081c1:	48 89 c7             	mov    %rax,%rdi
  4081c4:	e8 bb 06 00 00       	callq  408884 <_ZSt23__copy_move_backward_a2ILb1EP4nodeS1_ET1_T0_S3_S2_>
  4081c9:	48 83 c4 28          	add    $0x28,%rsp
  4081cd:	5b                   	pop    %rbx
  4081ce:	5d                   	pop    %rbp
  4081cf:	c3                   	retq   

00000000004081d0 <_ZSt4fillIP4nodeS0_EvT_S2_RKT0_>:
  4081d0:	55                   	push   %rbp
  4081d1:	48 89 e5             	mov    %rsp,%rbp
  4081d4:	53                   	push   %rbx
  4081d5:	48 83 ec 28          	sub    $0x28,%rsp
  4081d9:	48 89 7d e8          	mov    %rdi,-0x18(%rbp)
  4081dd:	48 89 75 e0          	mov    %rsi,-0x20(%rbp)
  4081e1:	48 89 55 d8          	mov    %rdx,-0x28(%rbp)
  4081e5:	48 8b 45 e0          	mov    -0x20(%rbp),%rax
  4081e9:	48 89 c7             	mov    %rax,%rdi
  4081ec:	e8 eb 06 00 00       	callq  4088dc <_ZSt12__niter_baseIP4nodeENSt11_Niter_baseIT_E13iterator_typeES3_>
  4081f1:	48 89 c3             	mov    %rax,%rbx
  4081f4:	48 8b 45 e8          	mov    -0x18(%rbp),%rax
  4081f8:	48 89 c7             	mov    %rax,%rdi
  4081fb:	e8 dc 06 00 00       	callq  4088dc <_ZSt12__niter_baseIP4nodeENSt11_Niter_baseIT_E13iterator_typeES3_>
  408200:	48 8b 55 d8          	mov    -0x28(%rbp),%rdx
  408204:	48 89 de             	mov    %rbx,%rsi
  408207:	48 89 c7             	mov    %rax,%rdi
  40820a:	e8 e7 06 00 00       	callq  4088f6 <_ZSt8__fill_aIP4nodeS0_EN9__gnu_cxx11__enable_ifIXntsrSt11__is_scalarIT0_E7__valueEvE6__typeET_S9_RKS5_>
  40820f:	48 83 c4 28          	add    $0x28,%rsp
  408213:	5b                   	pop    %rbx
  408214:	5d                   	pop    %rbp
  408215:	c3                   	retq   

0000000000408216 <_ZSt24__uninitialized_fill_n_aIP4nodemS0_S0_EvT_T0_RKT1_RSaIT2_E>:
  408216:	55                   	push   %rbp
  408217:	48 89 e5             	mov    %rsp,%rbp
  40821a:	48 83 ec 20          	sub    $0x20,%rsp
  40821e:	48 89 7d f8          	mov    %rdi,-0x8(%rbp)
  408222:	48 89 75 f0          	mov    %rsi,-0x10(%rbp)
  408226:	48 89 55 e8          	mov    %rdx,-0x18(%rbp)
  40822a:	48 89 4d e0          	mov    %rcx,-0x20(%rbp)
  40822e:	48 8b 55 e8          	mov    -0x18(%rbp),%rdx
  408232:	48 8b 4d f0          	mov    -0x10(%rbp),%rcx
  408236:	48 8b 45 f8          	mov    -0x8(%rbp),%rax
  40823a:	48 89 ce             	mov    %rcx,%rsi
  40823d:	48 89 c7             	mov    %rax,%rdi
  408240:	e8 e2 06 00 00       	callq  408927 <_ZSt20uninitialized_fill_nIP4nodemS0_EvT_T0_RKT1_>
  408245:	c9                   	leaveq 
  408246:	c3                   	retq   
  408247:	90                   	nop

0000000000408248 <_ZNSt6vectorI4nodeSaIS0_EE5beginEv>:
  408248:	55                   	push   %rbp
  408249:	48 89 e5             	mov    %rsp,%rbp
  40824c:	48 83 ec 20          	sub    $0x20,%rsp
  408250:	48 89 7d e8          	mov    %rdi,-0x18(%rbp)
  408254:	48 8b 55 e8          	mov    -0x18(%rbp),%rdx
  408258:	48 8d 45 f0          	lea    -0x10(%rbp),%rax
  40825c:	48 89 d6             	mov    %rdx,%rsi
  40825f:	48 89 c7             	mov    %rax,%rdi
  408262:	e8 55 e9 ff ff       	callq  406bbc <_ZN9__gnu_cxx17__normal_iteratorIP4nodeSt6vectorIS1_SaIS1_EEEC1ERKS2_>
  408267:	48 8b 45 f0          	mov    -0x10(%rbp),%rax
  40826b:	c9                   	leaveq 
  40826c:	c3                   	retq   
  40826d:	90                   	nop

000000000040826e <_ZN9__gnu_cxx13new_allocatorIiE9constructIiIRKiEEEvPT_DpOT0_>:
  40826e:	55                   	push   %rbp
  40826f:	48 89 e5             	mov    %rsp,%rbp
  408272:	53                   	push   %rbx
  408273:	48 83 ec 28          	sub    $0x28,%rsp
  408277:	48 89 7d e8          	mov    %rdi,-0x18(%rbp)
  40827b:	48 89 75 e0          	mov    %rsi,-0x20(%rbp)
  40827f:	48 89 55 d8          	mov    %rdx,-0x28(%rbp)
  408283:	48 8b 45 d8          	mov    -0x28(%rbp),%rax
  408287:	48 89 c7             	mov    %rax,%rdi
  40828a:	e8 13 c9 ff ff       	callq  404ba2 <_ZSt7forwardIRKiEOT_RNSt16remove_referenceIS2_E4typeE>
  40828f:	8b 18                	mov    (%rax),%ebx
  408291:	48 8b 45 e0          	mov    -0x20(%rbp),%rax
  408295:	48 89 c6             	mov    %rax,%rsi
  408298:	bf 04 00 00 00       	mov    $0x4,%edi
  40829d:	e8 5e 99 ff ff       	callq  401c00 <_ZnwmPv>
  4082a2:	48 85 c0             	test   %rax,%rax
  4082a5:	74 02                	je     4082a9 <_ZN9__gnu_cxx13new_allocatorIiE9constructIiIRKiEEEvPT_DpOT0_+0x3b>
  4082a7:	89 18                	mov    %ebx,(%rax)
  4082a9:	48 83 c4 28          	add    $0x28,%rsp
  4082ad:	5b                   	pop    %rbx
  4082ae:	5d                   	pop    %rbp
  4082af:	c3                   	retq   

00000000004082b0 <_ZNKSt6vectorIiSaIiEE8max_sizeEv>:
  4082b0:	55                   	push   %rbp
  4082b1:	48 89 e5             	mov    %rsp,%rbp
  4082b4:	48 83 ec 10          	sub    $0x10,%rsp
  4082b8:	48 89 7d f8          	mov    %rdi,-0x8(%rbp)
  4082bc:	48 8b 45 f8          	mov    -0x8(%rbp),%rax
  4082c0:	48 89 c7             	mov    %rax,%rdi
  4082c3:	e8 a6 06 00 00       	callq  40896e <_ZNKSt12_Vector_baseIiSaIiEE19_M_get_Tp_allocatorEv>
  4082c8:	48 89 c7             	mov    %rax,%rdi
  4082cb:	e8 84 06 00 00       	callq  408954 <_ZNSt16allocator_traitsISaIiEE8max_sizeERKS0_>
  4082d0:	c9                   	leaveq 
  4082d1:	c3                   	retq   

00000000004082d2 <_ZN9__gnu_cxx13new_allocatorIiE8allocateEmPKv>:
  4082d2:	55                   	push   %rbp
  4082d3:	48 89 e5             	mov    %rsp,%rbp
  4082d6:	48 83 ec 20          	sub    $0x20,%rsp
  4082da:	48 89 7d f8          	mov    %rdi,-0x8(%rbp)
  4082de:	48 89 75 f0          	mov    %rsi,-0x10(%rbp)
  4082e2:	48 89 55 e8          	mov    %rdx,-0x18(%rbp)
  4082e6:	48 8b 45 f8          	mov    -0x8(%rbp),%rax
  4082ea:	48 89 c7             	mov    %rax,%rdi
  4082ed:	e8 8a 06 00 00       	callq  40897c <_ZNK9__gnu_cxx13new_allocatorIiE8max_sizeEv>
  4082f2:	48 3b 45 f0          	cmp    -0x10(%rbp),%rax
  4082f6:	0f 92 c0             	setb   %al
  4082f9:	84 c0                	test   %al,%al
  4082fb:	74 05                	je     408302 <_ZN9__gnu_cxx13new_allocatorIiE8allocateEmPKv+0x30>
  4082fd:	e8 0e 8e ff ff       	callq  401110 <_ZSt17__throw_bad_allocv@plt>
  408302:	48 8b 45 f0          	mov    -0x10(%rbp),%rax
  408306:	48 c1 e0 02          	shl    $0x2,%rax
  40830a:	48 89 c7             	mov    %rax,%rdi
  40830d:	e8 6e 8e ff ff       	callq  401180 <_Znwm@plt>
  408312:	c9                   	leaveq 
  408313:	c3                   	retq   

0000000000408314 <_ZSt32__make_move_if_noexcept_iteratorIPiSt13move_iteratorIS0_EET0_T_>:
  408314:	55                   	push   %rbp
  408315:	48 89 e5             	mov    %rsp,%rbp
  408318:	48 83 ec 20          	sub    $0x20,%rsp
  40831c:	48 89 7d e8          	mov    %rdi,-0x18(%rbp)
  408320:	48 8b 55 e8          	mov    -0x18(%rbp),%rdx
  408324:	48 8d 45 f0          	lea    -0x10(%rbp),%rax
  408328:	48 89 d6             	mov    %rdx,%rsi
  40832b:	48 89 c7             	mov    %rax,%rdi
  40832e:	e8 5d 06 00 00       	callq  408990 <_ZNSt13move_iteratorIPiEC1ES0_>
  408333:	48 8b 45 f0          	mov    -0x10(%rbp),%rax
  408337:	c9                   	leaveq 
  408338:	c3                   	retq   

0000000000408339 <_ZSt22__uninitialized_copy_aISt13move_iteratorIPiES1_iET0_T_S4_S3_RSaIT1_E>:
  408339:	55                   	push   %rbp
  40833a:	48 89 e5             	mov    %rsp,%rbp
  40833d:	48 83 ec 20          	sub    $0x20,%rsp
  408341:	48 89 7d f0          	mov    %rdi,-0x10(%rbp)
  408345:	48 89 75 e0          	mov    %rsi,-0x20(%rbp)
  408349:	48 89 55 e8          	mov    %rdx,-0x18(%rbp)
  40834d:	48 89 4d f8          	mov    %rcx,-0x8(%rbp)
  408351:	48 8b 55 e8          	mov    -0x18(%rbp),%rdx
  408355:	48 8b 4d e0          	mov    -0x20(%rbp),%rcx
  408359:	48 8b 45 f0          	mov    -0x10(%rbp),%rax
  40835d:	48 89 ce             	mov    %rcx,%rsi
  408360:	48 89 c7             	mov    %rax,%rdi
  408363:	e8 41 06 00 00       	callq  4089a9 <_ZSt18uninitialized_copyISt13move_iteratorIPiES1_ET0_T_S4_S3_>
  408368:	c9                   	leaveq 
  408369:	c3                   	retq   

000000000040836a <_ZSt22__uninitialized_move_aIPiS0_SaIiEET0_T_S3_S2_RT1_>:
  40836a:	55                   	push   %rbp
  40836b:	48 89 e5             	mov    %rsp,%rbp
  40836e:	53                   	push   %rbx
  40836f:	48 83 ec 28          	sub    $0x28,%rsp
  408373:	48 89 7d e8          	mov    %rdi,-0x18(%rbp)
  408377:	48 89 75 e0          	mov    %rsi,-0x20(%rbp)
  40837b:	48 89 55 d8          	mov    %rdx,-0x28(%rbp)
  40837f:	48 89 4d d0          	mov    %rcx,-0x30(%rbp)
  408383:	48 8b 45 e0          	mov    -0x20(%rbp),%rax
  408387:	48 89 c7             	mov    %rax,%rdi
  40838a:	e8 47 06 00 00       	callq  4089d6 <_ZSt18make_move_iteratorIPiESt13move_iteratorIT_ES2_>
  40838f:	48 89 c3             	mov    %rax,%rbx
  408392:	48 8b 45 e8          	mov    -0x18(%rbp),%rax
  408396:	48 89 c7             	mov    %rax,%rdi
  408399:	e8 38 06 00 00       	callq  4089d6 <_ZSt18make_move_iteratorIPiESt13move_iteratorIT_ES2_>
  40839e:	48 8b 4d d0          	mov    -0x30(%rbp),%rcx
  4083a2:	48 8b 55 d8          	mov    -0x28(%rbp),%rdx
  4083a6:	48 89 de             	mov    %rbx,%rsi
  4083a9:	48 89 c7             	mov    %rax,%rdi
  4083ac:	e8 88 ff ff ff       	callq  408339 <_ZSt22__uninitialized_copy_aISt13move_iteratorIPiES1_iET0_T_S4_S3_RSaIT1_E>
  4083b1:	48 83 c4 28          	add    $0x28,%rsp
  4083b5:	5b                   	pop    %rbx
  4083b6:	5d                   	pop    %rbp
  4083b7:	c3                   	retq   

00000000004083b8 <_ZSt13move_backwardIPiS0_ET0_T_S2_S1_>:
  4083b8:	55                   	push   %rbp
  4083b9:	48 89 e5             	mov    %rsp,%rbp
  4083bc:	53                   	push   %rbx
  4083bd:	48 83 ec 28          	sub    $0x28,%rsp
  4083c1:	48 89 7d e8          	mov    %rdi,-0x18(%rbp)
  4083c5:	48 89 75 e0          	mov    %rsi,-0x20(%rbp)
  4083c9:	48 89 55 d8          	mov    %rdx,-0x28(%rbp)
  4083cd:	48 8b 45 e0          	mov    -0x20(%rbp),%rax
  4083d1:	48 89 c7             	mov    %rax,%rdi
  4083d4:	e8 22 06 00 00       	callq  4089fb <_ZSt12__miter_baseIPiENSt11_Miter_baseIT_E13iterator_typeES2_>
  4083d9:	48 89 c3             	mov    %rax,%rbx
  4083dc:	48 8b 45 e8          	mov    -0x18(%rbp),%rax
  4083e0:	48 89 c7             	mov    %rax,%rdi
  4083e3:	e8 13 06 00 00       	callq  4089fb <_ZSt12__miter_baseIPiENSt11_Miter_baseIT_E13iterator_typeES2_>
  4083e8:	48 8b 55 d8          	mov    -0x28(%rbp),%rdx
  4083ec:	48 89 de             	mov    %rbx,%rsi
  4083ef:	48 89 c7             	mov    %rax,%rdi
  4083f2:	e8 1e 06 00 00       	callq  408a15 <_ZSt23__copy_move_backward_a2ILb1EPiS0_ET1_T0_S2_S1_>
  4083f7:	48 83 c4 28          	add    $0x28,%rsp
  4083fb:	5b                   	pop    %rbx
  4083fc:	5d                   	pop    %rbp
  4083fd:	c3                   	retq   

00000000004083fe <_ZSt4fillIPiiEvT_S1_RKT0_>:
  4083fe:	55                   	push   %rbp
  4083ff:	48 89 e5             	mov    %rsp,%rbp
  408402:	53                   	push   %rbx
  408403:	48 83 ec 28          	sub    $0x28,%rsp
  408407:	48 89 7d e8          	mov    %rdi,-0x18(%rbp)
  40840b:	48 89 75 e0          	mov    %rsi,-0x20(%rbp)
  40840f:	48 89 55 d8          	mov    %rdx,-0x28(%rbp)
  408413:	48 8b 45 e0          	mov    -0x20(%rbp),%rax
  408417:	48 89 c7             	mov    %rax,%rdi
  40841a:	e8 4e 06 00 00       	callq  408a6d <_ZSt12__niter_baseIPiENSt11_Niter_baseIT_E13iterator_typeES2_>
  40841f:	48 89 c3             	mov    %rax,%rbx
  408422:	48 8b 45 e8          	mov    -0x18(%rbp),%rax
  408426:	48 89 c7             	mov    %rax,%rdi
  408429:	e8 3f 06 00 00       	callq  408a6d <_ZSt12__niter_baseIPiENSt11_Niter_baseIT_E13iterator_typeES2_>
  40842e:	48 8b 55 d8          	mov    -0x28(%rbp),%rdx
  408432:	48 89 de             	mov    %rbx,%rsi
  408435:	48 89 c7             	mov    %rax,%rdi
  408438:	e8 4a 06 00 00       	callq  408a87 <_ZSt8__fill_aIPiiEN9__gnu_cxx11__enable_ifIXsrSt11__is_scalarIT0_E7__valueEvE6__typeET_S8_RKS4_>
  40843d:	48 83 c4 28          	add    $0x28,%rsp
  408441:	5b                   	pop    %rbx
  408442:	5d                   	pop    %rbp
  408443:	c3                   	retq   

0000000000408444 <_ZSt24__uninitialized_fill_n_aIPimiiEvT_T0_RKT1_RSaIT2_E>:
  408444:	55                   	push   %rbp
  408445:	48 89 e5             	mov    %rsp,%rbp
  408448:	48 83 ec 20          	sub    $0x20,%rsp
  40844c:	48 89 7d f8          	mov    %rdi,-0x8(%rbp)
  408450:	48 89 75 f0          	mov    %rsi,-0x10(%rbp)
  408454:	48 89 55 e8          	mov    %rdx,-0x18(%rbp)
  408458:	48 89 4d e0          	mov    %rcx,-0x20(%rbp)
  40845c:	48 8b 55 e8          	mov    -0x18(%rbp),%rdx
  408460:	48 8b 4d f0          	mov    -0x10(%rbp),%rcx
  408464:	48 8b 45 f8          	mov    -0x8(%rbp),%rax
  408468:	48 89 ce             	mov    %rcx,%rsi
  40846b:	48 89 c7             	mov    %rax,%rdi
  40846e:	e8 49 06 00 00       	callq  408abc <_ZSt20uninitialized_fill_nIPimiEvT_T0_RKT1_>
  408473:	c9                   	leaveq 
  408474:	c3                   	retq   

0000000000408475 <_ZNSt16allocator_traitsISaI4areaEE12_S_constructIS0_IS0_EEENSt9enable_ifIXsrNS2_18__construct_helperIT_IDpT0_EEE5valueEvE4typeERS1_PS6_DpOS7_>:
  408475:	55                   	push   %rbp
  408476:	48 89 e5             	mov    %rsp,%rbp
  408479:	48 83 ec 20          	sub    $0x20,%rsp
  40847d:	48 89 7d f8          	mov    %rdi,-0x8(%rbp)
  408481:	48 89 75 f0          	mov    %rsi,-0x10(%rbp)
  408485:	48 89 55 e8          	mov    %rdx,-0x18(%rbp)
  408489:	48 8b 45 e8          	mov    -0x18(%rbp),%rax
  40848d:	48 89 c7             	mov    %rax,%rdi
  408490:	e8 f7 d5 ff ff       	callq  405a8c <_ZSt7forwardI4areaEOT_RNSt16remove_referenceIS1_E4typeE>
  408495:	48 89 c2             	mov    %rax,%rdx
  408498:	48 8b 4d f0          	mov    -0x10(%rbp),%rcx
  40849c:	48 8b 45 f8          	mov    -0x8(%rbp),%rax
  4084a0:	48 89 ce             	mov    %rcx,%rsi
  4084a3:	48 89 c7             	mov    %rax,%rdi
  4084a6:	e8 3f 06 00 00       	callq  408aea <_ZN9__gnu_cxx13new_allocatorI4areaE9constructIS1_IS1_EEEvPT_DpOT0_>
  4084ab:	c9                   	leaveq 
  4084ac:	c3                   	retq   
  4084ad:	90                   	nop

00000000004084ae <_ZN9__gnu_cxx13new_allocatorI4areaE9constructIS1_IRKS1_EEEvPT_DpOT0_>:
  4084ae:	55                   	push   %rbp
  4084af:	48 89 e5             	mov    %rsp,%rbp
  4084b2:	53                   	push   %rbx
  4084b3:	48 83 ec 28          	sub    $0x28,%rsp
  4084b7:	48 89 7d e8          	mov    %rdi,-0x18(%rbp)
  4084bb:	48 89 75 e0          	mov    %rsi,-0x20(%rbp)
  4084bf:	48 89 55 d8          	mov    %rdx,-0x28(%rbp)
  4084c3:	48 8b 45 d8          	mov    -0x28(%rbp),%rax
  4084c7:	48 89 c7             	mov    %rax,%rdi
  4084ca:	e8 84 c8 ff ff       	callq  404d53 <_ZSt7forwardIRK4areaEOT_RNSt16remove_referenceIS3_E4typeE>
  4084cf:	48 89 c3             	mov    %rax,%rbx
  4084d2:	48 8b 45 e0          	mov    -0x20(%rbp),%rax
  4084d6:	48 89 c6             	mov    %rax,%rsi
  4084d9:	bf 0c 00 00 00       	mov    $0xc,%edi
  4084de:	e8 1d 97 ff ff       	callq  401c00 <_ZnwmPv>
  4084e3:	48 85 c0             	test   %rax,%rax
  4084e6:	74 0b                	je     4084f3 <_ZN9__gnu_cxx13new_allocatorI4areaE9constructIS1_IRKS1_EEEvPT_DpOT0_+0x45>
  4084e8:	48 89 de             	mov    %rbx,%rsi
  4084eb:	48 89 c7             	mov    %rax,%rdi
  4084ee:	e8 7b c2 ff ff       	callq  40476e <_ZN4areaC1ERKS_>
  4084f3:	48 83 c4 28          	add    $0x28,%rsp
  4084f7:	5b                   	pop    %rbx
  4084f8:	5d                   	pop    %rbp
  4084f9:	c3                   	retq   

00000000004084fa <_ZSt12__miter_baseIP4areaENSt11_Miter_baseIT_E13iterator_typeES3_>:
  4084fa:	55                   	push   %rbp
  4084fb:	48 89 e5             	mov    %rsp,%rbp
  4084fe:	48 83 ec 10          	sub    $0x10,%rsp
  408502:	48 89 7d f8          	mov    %rdi,-0x8(%rbp)
  408506:	48 8b 45 f8          	mov    -0x8(%rbp),%rax
  40850a:	48 89 c7             	mov    %rax,%rdi
  40850d:	e8 24 06 00 00       	callq  408b36 <_ZNSt10_Iter_baseIP4areaLb0EE7_S_baseES1_>
  408512:	c9                   	leaveq 
  408513:	c3                   	retq   

0000000000408514 <_ZSt23__copy_move_backward_a2ILb1EP4areaS1_ET1_T0_S3_S2_>:
  408514:	55                   	push   %rbp
  408515:	48 89 e5             	mov    %rsp,%rbp
  408518:	41 54                	push   %r12
  40851a:	53                   	push   %rbx
  40851b:	48 83 ec 20          	sub    $0x20,%rsp
  40851f:	48 89 7d e8          	mov    %rdi,-0x18(%rbp)
  408523:	48 89 75 e0          	mov    %rsi,-0x20(%rbp)
  408527:	48 89 55 d8          	mov    %rdx,-0x28(%rbp)
  40852b:	48 8b 45 d8          	mov    -0x28(%rbp),%rax
  40852f:	48 89 c7             	mov    %rax,%rdi
  408532:	e8 0d 06 00 00       	callq  408b44 <_ZSt12__niter_baseIP4areaENSt11_Niter_baseIT_E13iterator_typeES3_>
  408537:	49 89 c4             	mov    %rax,%r12
  40853a:	48 8b 45 e0          	mov    -0x20(%rbp),%rax
  40853e:	48 89 c7             	mov    %rax,%rdi
  408541:	e8 fe 05 00 00       	callq  408b44 <_ZSt12__niter_baseIP4areaENSt11_Niter_baseIT_E13iterator_typeES3_>
  408546:	48 89 c3             	mov    %rax,%rbx
  408549:	48 8b 45 e8          	mov    -0x18(%rbp),%rax
  40854d:	48 89 c7             	mov    %rax,%rdi
  408550:	e8 ef 05 00 00       	callq  408b44 <_ZSt12__niter_baseIP4areaENSt11_Niter_baseIT_E13iterator_typeES3_>
  408555:	4c 89 e2             	mov    %r12,%rdx
  408558:	48 89 de             	mov    %rbx,%rsi
  40855b:	48 89 c7             	mov    %rax,%rdi
  40855e:	e8 fb 05 00 00       	callq  408b5e <_ZSt22__copy_move_backward_aILb1EP4areaS1_ET1_T0_S3_S2_>
  408563:	48 83 c4 20          	add    $0x20,%rsp
  408567:	5b                   	pop    %rbx
  408568:	41 5c                	pop    %r12
  40856a:	5d                   	pop    %rbp
  40856b:	c3                   	retq   

000000000040856c <_ZNKSt6vectorI4areaSaIS0_EE8max_sizeEv>:
  40856c:	55                   	push   %rbp
  40856d:	48 89 e5             	mov    %rsp,%rbp
  408570:	48 83 ec 10          	sub    $0x10,%rsp
  408574:	48 89 7d f8          	mov    %rdi,-0x8(%rbp)
  408578:	48 8b 45 f8          	mov    -0x8(%rbp),%rax
  40857c:	48 89 c7             	mov    %rax,%rdi
  40857f:	e8 26 06 00 00       	callq  408baa <_ZNKSt12_Vector_baseI4areaSaIS0_EE19_M_get_Tp_allocatorEv>
  408584:	48 89 c7             	mov    %rax,%rdi
  408587:	e8 03 06 00 00       	callq  408b8f <_ZNSt16allocator_traitsISaI4areaEE8max_sizeERKS1_>
  40858c:	c9                   	leaveq 
  40858d:	c3                   	retq   

000000000040858e <_ZN9__gnu_cxx13new_allocatorI4areaE8allocateEmPKv>:
  40858e:	55                   	push   %rbp
  40858f:	48 89 e5             	mov    %rsp,%rbp
  408592:	48 83 ec 20          	sub    $0x20,%rsp
  408596:	48 89 7d f8          	mov    %rdi,-0x8(%rbp)
  40859a:	48 89 75 f0          	mov    %rsi,-0x10(%rbp)
  40859e:	48 89 55 e8          	mov    %rdx,-0x18(%rbp)
  4085a2:	48 8b 45 f8          	mov    -0x8(%rbp),%rax
  4085a6:	48 89 c7             	mov    %rax,%rdi
  4085a9:	e8 0a 06 00 00       	callq  408bb8 <_ZNK9__gnu_cxx13new_allocatorI4areaE8max_sizeEv>
  4085ae:	48 3b 45 f0          	cmp    -0x10(%rbp),%rax
  4085b2:	0f 92 c0             	setb   %al
  4085b5:	84 c0                	test   %al,%al
  4085b7:	74 05                	je     4085be <_ZN9__gnu_cxx13new_allocatorI4areaE8allocateEmPKv+0x30>
  4085b9:	e8 52 8b ff ff       	callq  401110 <_ZSt17__throw_bad_allocv@plt>
  4085be:	48 8b 55 f0          	mov    -0x10(%rbp),%rdx
  4085c2:	48 89 d0             	mov    %rdx,%rax
  4085c5:	48 01 c0             	add    %rax,%rax
  4085c8:	48 01 d0             	add    %rdx,%rax
  4085cb:	48 c1 e0 02          	shl    $0x2,%rax
  4085cf:	48 89 c7             	mov    %rax,%rdi
  4085d2:	e8 a9 8b ff ff       	callq  401180 <_Znwm@plt>
  4085d7:	c9                   	leaveq 
  4085d8:	c3                   	retq   

00000000004085d9 <_ZSt32__make_move_if_noexcept_iteratorIP4areaS1_ET0_T_>:
  4085d9:	55                   	push   %rbp
  4085da:	48 89 e5             	mov    %rsp,%rbp
  4085dd:	48 89 7d f8          	mov    %rdi,-0x8(%rbp)
  4085e1:	48 8b 45 f8          	mov    -0x8(%rbp),%rax
  4085e5:	5d                   	pop    %rbp
  4085e6:	c3                   	retq   

00000000004085e7 <_ZSt22__uninitialized_copy_aIP4areaS1_S0_ET0_T_S3_S2_RSaIT1_E>:
  4085e7:	55                   	push   %rbp
  4085e8:	48 89 e5             	mov    %rsp,%rbp
  4085eb:	48 83 ec 20          	sub    $0x20,%rsp
  4085ef:	48 89 7d f8          	mov    %rdi,-0x8(%rbp)
  4085f3:	48 89 75 f0          	mov    %rsi,-0x10(%rbp)
  4085f7:	48 89 55 e8          	mov    %rdx,-0x18(%rbp)
  4085fb:	48 89 4d e0          	mov    %rcx,-0x20(%rbp)
  4085ff:	48 8b 55 e8          	mov    -0x18(%rbp),%rdx
  408603:	48 8b 4d f0          	mov    -0x10(%rbp),%rcx
  408607:	48 8b 45 f8          	mov    -0x8(%rbp),%rax
  40860b:	48 89 ce             	mov    %rcx,%rsi
  40860e:	48 89 c7             	mov    %rax,%rdi
  408611:	e8 b6 05 00 00       	callq  408bcc <_ZSt18uninitialized_copyIP4areaS1_ET0_T_S3_S2_>
  408616:	c9                   	leaveq 
  408617:	c3                   	retq   

0000000000408618 <_ZN9__gnu_cxx17__normal_iteratorIP4areaSt6vectorIS1_SaIS1_EEEpLERKl>:
  408618:	55                   	push   %rbp
  408619:	48 89 e5             	mov    %rsp,%rbp
  40861c:	48 89 7d f8          	mov    %rdi,-0x8(%rbp)
  408620:	48 89 75 f0          	mov    %rsi,-0x10(%rbp)
  408624:	48 8b 45 f8          	mov    -0x8(%rbp),%rax
  408628:	48 8b 08             	mov    (%rax),%rcx
  40862b:	48 8b 45 f0          	mov    -0x10(%rbp),%rax
  40862f:	48 8b 00             	mov    (%rax),%rax
  408632:	48 89 c2             	mov    %rax,%rdx
  408635:	48 89 d0             	mov    %rdx,%rax
  408638:	48 01 c0             	add    %rax,%rax
  40863b:	48 01 d0             	add    %rdx,%rax
  40863e:	48 c1 e0 02          	shl    $0x2,%rax
  408642:	48 8d 14 01          	lea    (%rcx,%rax,1),%rdx
  408646:	48 8b 45 f8          	mov    -0x8(%rbp),%rax
  40864a:	48 89 10             	mov    %rdx,(%rax)
  40864d:	48 8b 45 f8          	mov    -0x8(%rbp),%rax
  408651:	5d                   	pop    %rbp
  408652:	c3                   	retq   

0000000000408653 <_ZNSt10_Iter_baseIN9__gnu_cxx17__normal_iteratorIP4areaSt6vectorIS2_SaIS2_EEEELb0EE7_S_baseES7_>:
  408653:	55                   	push   %rbp
  408654:	48 89 e5             	mov    %rsp,%rbp
  408657:	48 89 7d f0          	mov    %rdi,-0x10(%rbp)
  40865b:	48 8b 45 f0          	mov    -0x10(%rbp),%rax
  40865f:	5d                   	pop    %rbp
  408660:	c3                   	retq   

0000000000408661 <_ZSt12__niter_baseIN9__gnu_cxx17__normal_iteratorIP4areaSt6vectorIS2_SaIS2_EEEEENSt11_Niter_baseIT_E13iterator_typeES9_>:
  408661:	55                   	push   %rbp
  408662:	48 89 e5             	mov    %rsp,%rbp
  408665:	48 83 ec 10          	sub    $0x10,%rsp
  408669:	48 89 7d f0          	mov    %rdi,-0x10(%rbp)
  40866d:	48 8b 45 f0          	mov    -0x10(%rbp),%rax
  408671:	48 89 c7             	mov    %rax,%rdi
  408674:	e8 80 05 00 00       	callq  408bf9 <_ZNSt10_Iter_baseIN9__gnu_cxx17__normal_iteratorIP4areaSt6vectorIS2_SaIS2_EEEELb1EE7_S_baseES7_>
  408679:	c9                   	leaveq 
  40867a:	c3                   	retq   

000000000040867b <_ZSt13__copy_move_aILb1EP4areaS1_ET1_T0_S3_S2_>:
  40867b:	55                   	push   %rbp
  40867c:	48 89 e5             	mov    %rsp,%rbp
  40867f:	48 83 ec 30          	sub    $0x30,%rsp
  408683:	48 89 7d e8          	mov    %rdi,-0x18(%rbp)
  408687:	48 89 75 e0          	mov    %rsi,-0x20(%rbp)
  40868b:	48 89 55 d8          	mov    %rdx,-0x28(%rbp)
  40868f:	c6 45 ff 00          	movb   $0x0,-0x1(%rbp)
  408693:	48 8b 55 d8          	mov    -0x28(%rbp),%rdx
  408697:	48 8b 4d e0          	mov    -0x20(%rbp),%rcx
  40869b:	48 8b 45 e8          	mov    -0x18(%rbp),%rax
  40869f:	48 89 ce             	mov    %rcx,%rsi
  4086a2:	48 89 c7             	mov    %rax,%rdi
  4086a5:	e8 6c 05 00 00       	callq  408c16 <_ZNSt11__copy_moveILb1ELb0ESt26random_access_iterator_tagE8__copy_mIP4areaS4_EET0_T_S6_S5_>
  4086aa:	c9                   	leaveq 
  4086ab:	c3                   	retq   

00000000004086ac <_ZN9__gnu_cxx13new_allocatorI4areaE7destroyIS1_EEvPT_>:
  4086ac:	55                   	push   %rbp
  4086ad:	48 89 e5             	mov    %rsp,%rbp
  4086b0:	48 89 7d f8          	mov    %rdi,-0x8(%rbp)
  4086b4:	48 89 75 f0          	mov    %rsi,-0x10(%rbp)
  4086b8:	5d                   	pop    %rbp
  4086b9:	c3                   	retq   

00000000004086ba <_ZNSt16allocator_traitsISaIiEE12_S_constructIiIiEEENSt9enable_ifIXsrNS1_18__construct_helperIT_IDpT0_EEE5valueEvE4typeERS0_PS5_DpOS6_>:
  4086ba:	55                   	push   %rbp
  4086bb:	48 89 e5             	mov    %rsp,%rbp
  4086be:	48 83 ec 20          	sub    $0x20,%rsp
  4086c2:	48 89 7d f8          	mov    %rdi,-0x8(%rbp)
  4086c6:	48 89 75 f0          	mov    %rsi,-0x10(%rbp)
  4086ca:	48 89 55 e8          	mov    %rdx,-0x18(%rbp)
  4086ce:	48 8b 45 e8          	mov    -0x18(%rbp),%rax
  4086d2:	48 89 c7             	mov    %rax,%rdi
  4086d5:	e8 f7 dd ff ff       	callq  4064d1 <_ZSt7forwardIiEOT_RNSt16remove_referenceIS0_E4typeE>
  4086da:	48 89 c2             	mov    %rax,%rdx
  4086dd:	48 8b 4d f0          	mov    -0x10(%rbp),%rcx
  4086e1:	48 8b 45 f8          	mov    -0x8(%rbp),%rax
  4086e5:	48 89 ce             	mov    %rcx,%rsi
  4086e8:	48 89 c7             	mov    %rax,%rdi
  4086eb:	e8 9c 05 00 00       	callq  408c8c <_ZN9__gnu_cxx13new_allocatorIiE9constructIiIiEEEvPT_DpOT0_>
  4086f0:	c9                   	leaveq 
  4086f1:	c3                   	retq   

00000000004086f2 <_ZN9__gnu_cxx13new_allocatorIiE7destroyIiEEvPT_>:
  4086f2:	55                   	push   %rbp
  4086f3:	48 89 e5             	mov    %rsp,%rbp
  4086f6:	48 89 7d f8          	mov    %rdi,-0x8(%rbp)
  4086fa:	48 89 75 f0          	mov    %rsi,-0x10(%rbp)
  4086fe:	5d                   	pop    %rbp
  4086ff:	c3                   	retq   

0000000000408700 <_ZN9__gnu_cxx13new_allocatorI4areaEC1Ev>:
  408700:	55                   	push   %rbp
  408701:	48 89 e5             	mov    %rsp,%rbp
  408704:	48 89 7d f8          	mov    %rdi,-0x8(%rbp)
  408708:	5d                   	pop    %rbp
  408709:	c3                   	retq   

000000000040870a <_ZN9__gnu_cxx13new_allocatorI4nodeEC1Ev>:
  40870a:	55                   	push   %rbp
  40870b:	48 89 e5             	mov    %rsp,%rbp
  40870e:	48 89 7d f8          	mov    %rdi,-0x8(%rbp)
  408712:	5d                   	pop    %rbp
  408713:	c3                   	retq   

0000000000408714 <_ZN9__gnu_cxx13new_allocatorIiEC1Ev>:
  408714:	55                   	push   %rbp
  408715:	48 89 e5             	mov    %rsp,%rbp
  408718:	48 89 7d f8          	mov    %rdi,-0x8(%rbp)
  40871c:	5d                   	pop    %rbp
  40871d:	c3                   	retq   

000000000040871e <_ZN9__gnu_cxx13new_allocatorI4nodeE9constructIS1_IS1_EEEvPT_DpOT0_>:
  40871e:	55                   	push   %rbp
  40871f:	48 89 e5             	mov    %rsp,%rbp
  408722:	53                   	push   %rbx
  408723:	48 83 ec 28          	sub    $0x28,%rsp
  408727:	48 89 7d e8          	mov    %rdi,-0x18(%rbp)
  40872b:	48 89 75 e0          	mov    %rsi,-0x20(%rbp)
  40872f:	48 89 55 d8          	mov    %rdx,-0x28(%rbp)
  408733:	48 8b 45 d8          	mov    -0x28(%rbp),%rax
  408737:	48 89 c7             	mov    %rax,%rdi
  40873a:	e8 5e cf ff ff       	callq  40569d <_ZSt7forwardI4nodeEOT_RNSt16remove_referenceIS1_E4typeE>
  40873f:	48 89 c3             	mov    %rax,%rbx
  408742:	48 8b 45 e0          	mov    -0x20(%rbp),%rax
  408746:	48 89 c6             	mov    %rax,%rsi
  408749:	bf 08 00 00 00       	mov    $0x8,%edi
  40874e:	e8 ad 94 ff ff       	callq  401c00 <_ZnwmPv>
  408753:	48 85 c0             	test   %rax,%rax
  408756:	74 06                	je     40875e <_ZN9__gnu_cxx13new_allocatorI4nodeE9constructIS1_IS1_EEEvPT_DpOT0_+0x40>
  408758:	48 8b 13             	mov    (%rbx),%rdx
  40875b:	48 89 10             	mov    %rdx,(%rax)
  40875e:	48 83 c4 28          	add    $0x28,%rsp
  408762:	5b                   	pop    %rbx
  408763:	5d                   	pop    %rbp
  408764:	c3                   	retq   
  408765:	90                   	nop

0000000000408766 <_ZNKSt6vectorI4nodeSaIS0_EE8max_sizeEv>:
  408766:	55                   	push   %rbp
  408767:	48 89 e5             	mov    %rsp,%rbp
  40876a:	48 83 ec 10          	sub    $0x10,%rsp
  40876e:	48 89 7d f8          	mov    %rdi,-0x8(%rbp)
  408772:	48 8b 45 f8          	mov    -0x8(%rbp),%rax
  408776:	48 89 c7             	mov    %rax,%rdi
  408779:	e8 6a 05 00 00       	callq  408ce8 <_ZNKSt12_Vector_baseI4nodeSaIS0_EE19_M_get_Tp_allocatorEv>
  40877e:	48 89 c7             	mov    %rax,%rdi
  408781:	e8 48 05 00 00       	callq  408cce <_ZNSt16allocator_traitsISaI4nodeEE8max_sizeERKS1_>
  408786:	c9                   	leaveq 
  408787:	c3                   	retq   

0000000000408788 <_ZN9__gnu_cxx13new_allocatorI4nodeE8allocateEmPKv>:
  408788:	55                   	push   %rbp
  408789:	48 89 e5             	mov    %rsp,%rbp
  40878c:	48 83 ec 20          	sub    $0x20,%rsp
  408790:	48 89 7d f8          	mov    %rdi,-0x8(%rbp)
  408794:	48 89 75 f0          	mov    %rsi,-0x10(%rbp)
  408798:	48 89 55 e8          	mov    %rdx,-0x18(%rbp)
  40879c:	48 8b 45 f8          	mov    -0x8(%rbp),%rax
  4087a0:	48 89 c7             	mov    %rax,%rdi
  4087a3:	e8 4e 05 00 00       	callq  408cf6 <_ZNK9__gnu_cxx13new_allocatorI4nodeE8max_sizeEv>
  4087a8:	48 3b 45 f0          	cmp    -0x10(%rbp),%rax
  4087ac:	0f 92 c0             	setb   %al
  4087af:	84 c0                	test   %al,%al
  4087b1:	74 05                	je     4087b8 <_ZN9__gnu_cxx13new_allocatorI4nodeE8allocateEmPKv+0x30>
  4087b3:	e8 58 89 ff ff       	callq  401110 <_ZSt17__throw_bad_allocv@plt>
  4087b8:	48 8b 45 f0          	mov    -0x10(%rbp),%rax
  4087bc:	48 c1 e0 03          	shl    $0x3,%rax
  4087c0:	48 89 c7             	mov    %rax,%rdi
  4087c3:	e8 b8 89 ff ff       	callq  401180 <_Znwm@plt>
  4087c8:	c9                   	leaveq 
  4087c9:	c3                   	retq   

00000000004087ca <_ZSt32__make_move_if_noexcept_iteratorIP4nodeSt13move_iteratorIS1_EET0_T_>:
  4087ca:	55                   	push   %rbp
  4087cb:	48 89 e5             	mov    %rsp,%rbp
  4087ce:	48 83 ec 20          	sub    $0x20,%rsp
  4087d2:	48 89 7d e8          	mov    %rdi,-0x18(%rbp)
  4087d6:	48 8b 55 e8          	mov    -0x18(%rbp),%rdx
  4087da:	48 8d 45 f0          	lea    -0x10(%rbp),%rax
  4087de:	48 89 d6             	mov    %rdx,%rsi
  4087e1:	48 89 c7             	mov    %rax,%rdi
  4087e4:	e8 21 05 00 00       	callq  408d0a <_ZNSt13move_iteratorIP4nodeEC1ES1_>
  4087e9:	48 8b 45 f0          	mov    -0x10(%rbp),%rax
  4087ed:	c9                   	leaveq 
  4087ee:	c3                   	retq   

00000000004087ef <_ZSt22__uninitialized_copy_aISt13move_iteratorIP4nodeES2_S1_ET0_T_S5_S4_RSaIT1_E>:
  4087ef:	55                   	push   %rbp
  4087f0:	48 89 e5             	mov    %rsp,%rbp
  4087f3:	48 83 ec 20          	sub    $0x20,%rsp
  4087f7:	48 89 7d f0          	mov    %rdi,-0x10(%rbp)
  4087fb:	48 89 75 e0          	mov    %rsi,-0x20(%rbp)
  4087ff:	48 89 55 e8          	mov    %rdx,-0x18(%rbp)
  408803:	48 89 4d f8          	mov    %rcx,-0x8(%rbp)
  408807:	48 8b 55 e8          	mov    -0x18(%rbp),%rdx
  40880b:	48 8b 4d e0          	mov    -0x20(%rbp),%rcx
  40880f:	48 8b 45 f0          	mov    -0x10(%rbp),%rax
  408813:	48 89 ce             	mov    %rcx,%rsi
  408816:	48 89 c7             	mov    %rax,%rdi
  408819:	e8 05 05 00 00       	callq  408d23 <_ZSt18uninitialized_copyISt13move_iteratorIP4nodeES2_ET0_T_S5_S4_>
  40881e:	c9                   	leaveq 
  40881f:	c3                   	retq   

0000000000408820 <_ZNSt16allocator_traitsISaI4nodeEE10_S_destroyIS0_EENSt9enable_ifIXsrNS2_16__destroy_helperIT_EE5valueEvE4typeERS1_PS6_>:
  408820:	55                   	push   %rbp
  408821:	48 89 e5             	mov    %rsp,%rbp
  408824:	48 83 ec 10          	sub    $0x10,%rsp
  408828:	48 89 7d f8          	mov    %rdi,-0x8(%rbp)
  40882c:	48 89 75 f0          	mov    %rsi,-0x10(%rbp)
  408830:	48 8b 55 f0          	mov    -0x10(%rbp),%rdx
  408834:	48 8b 45 f8          	mov    -0x8(%rbp),%rax
  408838:	48 89 d6             	mov    %rdx,%rsi
  40883b:	48 89 c7             	mov    %rax,%rdi
  40883e:	e8 0d 05 00 00       	callq  408d50 <_ZN9__gnu_cxx13new_allocatorI4nodeE7destroyIS1_EEvPT_>
  408843:	c9                   	leaveq 
  408844:	c3                   	retq   

0000000000408845 <_ZSt18make_move_iteratorIP4nodeESt13move_iteratorIT_ES3_>:
  408845:	55                   	push   %rbp
  408846:	48 89 e5             	mov    %rsp,%rbp
  408849:	48 83 ec 20          	sub    $0x20,%rsp
  40884d:	48 89 7d e8          	mov    %rdi,-0x18(%rbp)
  408851:	48 8b 55 e8          	mov    -0x18(%rbp),%rdx
  408855:	48 8d 45 f0          	lea    -0x10(%rbp),%rax
  408859:	48 89 d6             	mov    %rdx,%rsi
  40885c:	48 89 c7             	mov    %rax,%rdi
  40885f:	e8 a6 04 00 00       	callq  408d0a <_ZNSt13move_iteratorIP4nodeEC1ES1_>
  408864:	48 8b 45 f0          	mov    -0x10(%rbp),%rax
  408868:	c9                   	leaveq 
  408869:	c3                   	retq   

000000000040886a <_ZSt12__miter_baseIP4nodeENSt11_Miter_baseIT_E13iterator_typeES3_>:
  40886a:	55                   	push   %rbp
  40886b:	48 89 e5             	mov    %rsp,%rbp
  40886e:	48 83 ec 10          	sub    $0x10,%rsp
  408872:	48 89 7d f8          	mov    %rdi,-0x8(%rbp)
  408876:	48 8b 45 f8          	mov    -0x8(%rbp),%rax
  40887a:	48 89 c7             	mov    %rax,%rdi
  40887d:	e8 dc 04 00 00       	callq  408d5e <_ZNSt10_Iter_baseIP4nodeLb0EE7_S_baseES1_>
  408882:	c9                   	leaveq 
  408883:	c3                   	retq   

0000000000408884 <_ZSt23__copy_move_backward_a2ILb1EP4nodeS1_ET1_T0_S3_S2_>:
  408884:	55                   	push   %rbp
  408885:	48 89 e5             	mov    %rsp,%rbp
  408888:	41 54                	push   %r12
  40888a:	53                   	push   %rbx
  40888b:	48 83 ec 20          	sub    $0x20,%rsp
  40888f:	48 89 7d e8          	mov    %rdi,-0x18(%rbp)
  408893:	48 89 75 e0          	mov    %rsi,-0x20(%rbp)
  408897:	48 89 55 d8          	mov    %rdx,-0x28(%rbp)
  40889b:	48 8b 45 d8          	mov    -0x28(%rbp),%rax
  40889f:	48 89 c7             	mov    %rax,%rdi
  4088a2:	e8 35 00 00 00       	callq  4088dc <_ZSt12__niter_baseIP4nodeENSt11_Niter_baseIT_E13iterator_typeES3_>
  4088a7:	49 89 c4             	mov    %rax,%r12
  4088aa:	48 8b 45 e0          	mov    -0x20(%rbp),%rax
  4088ae:	48 89 c7             	mov    %rax,%rdi
  4088b1:	e8 26 00 00 00       	callq  4088dc <_ZSt12__niter_baseIP4nodeENSt11_Niter_baseIT_E13iterator_typeES3_>
  4088b6:	48 89 c3             	mov    %rax,%rbx
  4088b9:	48 8b 45 e8          	mov    -0x18(%rbp),%rax
  4088bd:	48 89 c7             	mov    %rax,%rdi
  4088c0:	e8 17 00 00 00       	callq  4088dc <_ZSt12__niter_baseIP4nodeENSt11_Niter_baseIT_E13iterator_typeES3_>
  4088c5:	4c 89 e2             	mov    %r12,%rdx
  4088c8:	48 89 de             	mov    %rbx,%rsi
  4088cb:	48 89 c7             	mov    %rax,%rdi
  4088ce:	e8 99 04 00 00       	callq  408d6c <_ZSt22__copy_move_backward_aILb1EP4nodeS1_ET1_T0_S3_S2_>
  4088d3:	48 83 c4 20          	add    $0x20,%rsp
  4088d7:	5b                   	pop    %rbx
  4088d8:	41 5c                	pop    %r12
  4088da:	5d                   	pop    %rbp
  4088db:	c3                   	retq   

00000000004088dc <_ZSt12__niter_baseIP4nodeENSt11_Niter_baseIT_E13iterator_typeES3_>:
  4088dc:	55                   	push   %rbp
  4088dd:	48 89 e5             	mov    %rsp,%rbp
  4088e0:	48 83 ec 10          	sub    $0x10,%rsp
  4088e4:	48 89 7d f8          	mov    %rdi,-0x8(%rbp)
  4088e8:	48 8b 45 f8          	mov    -0x8(%rbp),%rax
  4088ec:	48 89 c7             	mov    %rax,%rdi
  4088ef:	e8 6a 04 00 00       	callq  408d5e <_ZNSt10_Iter_baseIP4nodeLb0EE7_S_baseES1_>
  4088f4:	c9                   	leaveq 
  4088f5:	c3                   	retq   

00000000004088f6 <_ZSt8__fill_aIP4nodeS0_EN9__gnu_cxx11__enable_ifIXntsrSt11__is_scalarIT0_E7__valueEvE6__typeET_S9_RKS5_>:
  4088f6:	55                   	push   %rbp
  4088f7:	48 89 e5             	mov    %rsp,%rbp
  4088fa:	48 89 7d f8          	mov    %rdi,-0x8(%rbp)
  4088fe:	48 89 75 f0          	mov    %rsi,-0x10(%rbp)
  408902:	48 89 55 e8          	mov    %rdx,-0x18(%rbp)
  408906:	eb 13                	jmp    40891b <_ZSt8__fill_aIP4nodeS0_EN9__gnu_cxx11__enable_ifIXntsrSt11__is_scalarIT0_E7__valueEvE6__typeET_S9_RKS5_+0x25>
  408908:	48 8b 45 f8          	mov    -0x8(%rbp),%rax
  40890c:	48 8b 55 e8          	mov    -0x18(%rbp),%rdx
  408910:	48 8b 12             	mov    (%rdx),%rdx
  408913:	48 89 10             	mov    %rdx,(%rax)
  408916:	48 83 45 f8 08       	addq   $0x8,-0x8(%rbp)
  40891b:	48 8b 45 f8          	mov    -0x8(%rbp),%rax
  40891f:	48 3b 45 f0          	cmp    -0x10(%rbp),%rax
  408923:	75 e3                	jne    408908 <_ZSt8__fill_aIP4nodeS0_EN9__gnu_cxx11__enable_ifIXntsrSt11__is_scalarIT0_E7__valueEvE6__typeET_S9_RKS5_+0x12>
  408925:	5d                   	pop    %rbp
  408926:	c3                   	retq   

0000000000408927 <_ZSt20uninitialized_fill_nIP4nodemS0_EvT_T0_RKT1_>:
  408927:	55                   	push   %rbp
  408928:	48 89 e5             	mov    %rsp,%rbp
  40892b:	48 83 ec 20          	sub    $0x20,%rsp
  40892f:	48 89 7d f8          	mov    %rdi,-0x8(%rbp)
  408933:	48 89 75 f0          	mov    %rsi,-0x10(%rbp)
  408937:	48 89 55 e8          	mov    %rdx,-0x18(%rbp)
  40893b:	48 8b 55 e8          	mov    -0x18(%rbp),%rdx
  40893f:	48 8b 4d f0          	mov    -0x10(%rbp),%rcx
  408943:	48 8b 45 f8          	mov    -0x8(%rbp),%rax
  408947:	48 89 ce             	mov    %rcx,%rsi
  40894a:	48 89 c7             	mov    %rax,%rdi
  40894d:	e8 4b 04 00 00       	callq  408d9d <_ZNSt22__uninitialized_fill_nILb0EE15__uninit_fill_nIP4nodemS2_EEvT_T0_RKT1_>
  408952:	c9                   	leaveq 
  408953:	c3                   	retq   

0000000000408954 <_ZNSt16allocator_traitsISaIiEE8max_sizeERKS0_>:
  408954:	55                   	push   %rbp
  408955:	48 89 e5             	mov    %rsp,%rbp
  408958:	48 83 ec 10          	sub    $0x10,%rsp
  40895c:	48 89 7d f8          	mov    %rdi,-0x8(%rbp)
  408960:	48 8b 45 f8          	mov    -0x8(%rbp),%rax
  408964:	48 89 c7             	mov    %rax,%rdi
  408967:	e8 7d 04 00 00       	callq  408de9 <_ZNSt16allocator_traitsISaIiEE11_S_max_sizeIKS0_EENSt9enable_ifIXsrNS1_16__maxsize_helperIT_EE5valueEmE4typeERS6_>
  40896c:	c9                   	leaveq 
  40896d:	c3                   	retq   

000000000040896e <_ZNKSt12_Vector_baseIiSaIiEE19_M_get_Tp_allocatorEv>:
  40896e:	55                   	push   %rbp
  40896f:	48 89 e5             	mov    %rsp,%rbp
  408972:	48 89 7d f8          	mov    %rdi,-0x8(%rbp)
  408976:	48 8b 45 f8          	mov    -0x8(%rbp),%rax
  40897a:	5d                   	pop    %rbp
  40897b:	c3                   	retq   

000000000040897c <_ZNK9__gnu_cxx13new_allocatorIiE8max_sizeEv>:
  40897c:	55                   	push   %rbp
  40897d:	48 89 e5             	mov    %rsp,%rbp
  408980:	48 89 7d f8          	mov    %rdi,-0x8(%rbp)
  408984:	48 b8 ff ff ff ff ff 	movabs $0x3fffffffffffffff,%rax
  40898b:	ff ff 3f 
  40898e:	5d                   	pop    %rbp
  40898f:	c3                   	retq   

0000000000408990 <_ZNSt13move_iteratorIPiEC1ES0_>:
  408990:	55                   	push   %rbp
  408991:	48 89 e5             	mov    %rsp,%rbp
  408994:	48 89 7d f8          	mov    %rdi,-0x8(%rbp)
  408998:	48 89 75 f0          	mov    %rsi,-0x10(%rbp)
  40899c:	48 8b 45 f8          	mov    -0x8(%rbp),%rax
  4089a0:	48 8b 55 f0          	mov    -0x10(%rbp),%rdx
  4089a4:	48 89 10             	mov    %rdx,(%rax)
  4089a7:	5d                   	pop    %rbp
  4089a8:	c3                   	retq   

00000000004089a9 <_ZSt18uninitialized_copyISt13move_iteratorIPiES1_ET0_T_S4_S3_>:
  4089a9:	55                   	push   %rbp
  4089aa:	48 89 e5             	mov    %rsp,%rbp
  4089ad:	48 83 ec 20          	sub    $0x20,%rsp
  4089b1:	48 89 7d f0          	mov    %rdi,-0x10(%rbp)
  4089b5:	48 89 75 e0          	mov    %rsi,-0x20(%rbp)
  4089b9:	48 89 55 e8          	mov    %rdx,-0x18(%rbp)
  4089bd:	48 8b 55 e8          	mov    -0x18(%rbp),%rdx
  4089c1:	48 8b 4d e0          	mov    -0x20(%rbp),%rcx
  4089c5:	48 8b 45 f0          	mov    -0x10(%rbp),%rax
  4089c9:	48 89 ce             	mov    %rcx,%rsi
  4089cc:	48 89 c7             	mov    %rax,%rdi
  4089cf:	e8 2f 04 00 00       	callq  408e03 <_ZNSt20__uninitialized_copyILb1EE13__uninit_copyISt13move_iteratorIPiES3_EET0_T_S6_S5_>
  4089d4:	c9                   	leaveq 
  4089d5:	c3                   	retq   

00000000004089d6 <_ZSt18make_move_iteratorIPiESt13move_iteratorIT_ES2_>:
  4089d6:	55                   	push   %rbp
  4089d7:	48 89 e5             	mov    %rsp,%rbp
  4089da:	48 83 ec 20          	sub    $0x20,%rsp
  4089de:	48 89 7d e8          	mov    %rdi,-0x18(%rbp)
  4089e2:	48 8b 55 e8          	mov    -0x18(%rbp),%rdx
  4089e6:	48 8d 45 f0          	lea    -0x10(%rbp),%rax
  4089ea:	48 89 d6             	mov    %rdx,%rsi
  4089ed:	48 89 c7             	mov    %rax,%rdi
  4089f0:	e8 9b ff ff ff       	callq  408990 <_ZNSt13move_iteratorIPiEC1ES0_>
  4089f5:	48 8b 45 f0          	mov    -0x10(%rbp),%rax
  4089f9:	c9                   	leaveq 
  4089fa:	c3                   	retq   

00000000004089fb <_ZSt12__miter_baseIPiENSt11_Miter_baseIT_E13iterator_typeES2_>:
  4089fb:	55                   	push   %rbp
  4089fc:	48 89 e5             	mov    %rsp,%rbp
  4089ff:	48 83 ec 10          	sub    $0x10,%rsp
  408a03:	48 89 7d f8          	mov    %rdi,-0x8(%rbp)
  408a07:	48 8b 45 f8          	mov    -0x8(%rbp),%rax
  408a0b:	48 89 c7             	mov    %rax,%rdi
  408a0e:	e8 1d 04 00 00       	callq  408e30 <_ZNSt10_Iter_baseIPiLb0EE7_S_baseES0_>
  408a13:	c9                   	leaveq 
  408a14:	c3                   	retq   

0000000000408a15 <_ZSt23__copy_move_backward_a2ILb1EPiS0_ET1_T0_S2_S1_>:
  408a15:	55                   	push   %rbp
  408a16:	48 89 e5             	mov    %rsp,%rbp
  408a19:	41 54                	push   %r12
  408a1b:	53                   	push   %rbx
  408a1c:	48 83 ec 20          	sub    $0x20,%rsp
  408a20:	48 89 7d e8          	mov    %rdi,-0x18(%rbp)
  408a24:	48 89 75 e0          	mov    %rsi,-0x20(%rbp)
  408a28:	48 89 55 d8          	mov    %rdx,-0x28(%rbp)
  408a2c:	48 8b 45 d8          	mov    -0x28(%rbp),%rax
  408a30:	48 89 c7             	mov    %rax,%rdi
  408a33:	e8 35 00 00 00       	callq  408a6d <_ZSt12__niter_baseIPiENSt11_Niter_baseIT_E13iterator_typeES2_>
  408a38:	49 89 c4             	mov    %rax,%r12
  408a3b:	48 8b 45 e0          	mov    -0x20(%rbp),%rax
  408a3f:	48 89 c7             	mov    %rax,%rdi
  408a42:	e8 26 00 00 00       	callq  408a6d <_ZSt12__niter_baseIPiENSt11_Niter_baseIT_E13iterator_typeES2_>
  408a47:	48 89 c3             	mov    %rax,%rbx
  408a4a:	48 8b 45 e8          	mov    -0x18(%rbp),%rax
  408a4e:	48 89 c7             	mov    %rax,%rdi
  408a51:	e8 17 00 00 00       	callq  408a6d <_ZSt12__niter_baseIPiENSt11_Niter_baseIT_E13iterator_typeES2_>
  408a56:	4c 89 e2             	mov    %r12,%rdx
  408a59:	48 89 de             	mov    %rbx,%rsi
  408a5c:	48 89 c7             	mov    %rax,%rdi
  408a5f:	e8 da 03 00 00       	callq  408e3e <_ZSt22__copy_move_backward_aILb1EPiS0_ET1_T0_S2_S1_>
  408a64:	48 83 c4 20          	add    $0x20,%rsp
  408a68:	5b                   	pop    %rbx
  408a69:	41 5c                	pop    %r12
  408a6b:	5d                   	pop    %rbp
  408a6c:	c3                   	retq   

0000000000408a6d <_ZSt12__niter_baseIPiENSt11_Niter_baseIT_E13iterator_typeES2_>:
  408a6d:	55                   	push   %rbp
  408a6e:	48 89 e5             	mov    %rsp,%rbp
  408a71:	48 83 ec 10          	sub    $0x10,%rsp
  408a75:	48 89 7d f8          	mov    %rdi,-0x8(%rbp)
  408a79:	48 8b 45 f8          	mov    -0x8(%rbp),%rax
  408a7d:	48 89 c7             	mov    %rax,%rdi
  408a80:	e8 ab 03 00 00       	callq  408e30 <_ZNSt10_Iter_baseIPiLb0EE7_S_baseES0_>
  408a85:	c9                   	leaveq 
  408a86:	c3                   	retq   

0000000000408a87 <_ZSt8__fill_aIPiiEN9__gnu_cxx11__enable_ifIXsrSt11__is_scalarIT0_E7__valueEvE6__typeET_S8_RKS4_>:
  408a87:	55                   	push   %rbp
  408a88:	48 89 e5             	mov    %rsp,%rbp
  408a8b:	48 89 7d e8          	mov    %rdi,-0x18(%rbp)
  408a8f:	48 89 75 e0          	mov    %rsi,-0x20(%rbp)
  408a93:	48 89 55 d8          	mov    %rdx,-0x28(%rbp)
  408a97:	48 8b 45 d8          	mov    -0x28(%rbp),%rax
  408a9b:	8b 00                	mov    (%rax),%eax
  408a9d:	89 45 fc             	mov    %eax,-0x4(%rbp)
  408aa0:	eb 0e                	jmp    408ab0 <_ZSt8__fill_aIPiiEN9__gnu_cxx11__enable_ifIXsrSt11__is_scalarIT0_E7__valueEvE6__typeET_S8_RKS4_+0x29>
  408aa2:	48 8b 45 e8          	mov    -0x18(%rbp),%rax
  408aa6:	8b 55 fc             	mov    -0x4(%rbp),%edx
  408aa9:	89 10                	mov    %edx,(%rax)
  408aab:	48 83 45 e8 04       	addq   $0x4,-0x18(%rbp)
  408ab0:	48 8b 45 e8          	mov    -0x18(%rbp),%rax
  408ab4:	48 3b 45 e0          	cmp    -0x20(%rbp),%rax
  408ab8:	75 e8                	jne    408aa2 <_ZSt8__fill_aIPiiEN9__gnu_cxx11__enable_ifIXsrSt11__is_scalarIT0_E7__valueEvE6__typeET_S8_RKS4_+0x1b>
  408aba:	5d                   	pop    %rbp
  408abb:	c3                   	retq   

0000000000408abc <_ZSt20uninitialized_fill_nIPimiEvT_T0_RKT1_>:
  408abc:	55                   	push   %rbp
  408abd:	48 89 e5             	mov    %rsp,%rbp
  408ac0:	48 83 ec 20          	sub    $0x20,%rsp
  408ac4:	48 89 7d f8          	mov    %rdi,-0x8(%rbp)
  408ac8:	48 89 75 f0          	mov    %rsi,-0x10(%rbp)
  408acc:	48 89 55 e8          	mov    %rdx,-0x18(%rbp)
  408ad0:	48 8b 55 e8          	mov    -0x18(%rbp),%rdx
  408ad4:	48 8b 4d f0          	mov    -0x10(%rbp),%rcx
  408ad8:	48 8b 45 f8          	mov    -0x8(%rbp),%rax
  408adc:	48 89 ce             	mov    %rcx,%rsi
  408adf:	48 89 c7             	mov    %rax,%rdi
  408ae2:	e8 88 03 00 00       	callq  408e6f <_ZNSt22__uninitialized_fill_nILb1EE15__uninit_fill_nIPimiEEvT_T0_RKT1_>
  408ae7:	c9                   	leaveq 
  408ae8:	c3                   	retq   
  408ae9:	90                   	nop

0000000000408aea <_ZN9__gnu_cxx13new_allocatorI4areaE9constructIS1_IS1_EEEvPT_DpOT0_>:
  408aea:	55                   	push   %rbp
  408aeb:	48 89 e5             	mov    %rsp,%rbp
  408aee:	53                   	push   %rbx
  408aef:	48 83 ec 28          	sub    $0x28,%rsp
  408af3:	48 89 7d e8          	mov    %rdi,-0x18(%rbp)
  408af7:	48 89 75 e0          	mov    %rsi,-0x20(%rbp)
  408afb:	48 89 55 d8          	mov    %rdx,-0x28(%rbp)
  408aff:	48 8b 45 d8          	mov    -0x28(%rbp),%rax
  408b03:	48 89 c7             	mov    %rax,%rdi
  408b06:	e8 81 cf ff ff       	callq  405a8c <_ZSt7forwardI4areaEOT_RNSt16remove_referenceIS1_E4typeE>
  408b0b:	48 89 c3             	mov    %rax,%rbx
  408b0e:	48 8b 45 e0          	mov    -0x20(%rbp),%rax
  408b12:	48 89 c6             	mov    %rax,%rsi
  408b15:	bf 0c 00 00 00       	mov    $0xc,%edi
  408b1a:	e8 e1 90 ff ff       	callq  401c00 <_ZnwmPv>
  408b1f:	48 85 c0             	test   %rax,%rax
  408b22:	74 0b                	je     408b2f <_ZN9__gnu_cxx13new_allocatorI4areaE9constructIS1_IS1_EEEvPT_DpOT0_+0x45>
  408b24:	48 89 de             	mov    %rbx,%rsi
  408b27:	48 89 c7             	mov    %rax,%rdi
  408b2a:	e8 3f bc ff ff       	callq  40476e <_ZN4areaC1ERKS_>
  408b2f:	48 83 c4 28          	add    $0x28,%rsp
  408b33:	5b                   	pop    %rbx
  408b34:	5d                   	pop    %rbp
  408b35:	c3                   	retq   

0000000000408b36 <_ZNSt10_Iter_baseIP4areaLb0EE7_S_baseES1_>:
  408b36:	55                   	push   %rbp
  408b37:	48 89 e5             	mov    %rsp,%rbp
  408b3a:	48 89 7d f8          	mov    %rdi,-0x8(%rbp)
  408b3e:	48 8b 45 f8          	mov    -0x8(%rbp),%rax
  408b42:	5d                   	pop    %rbp
  408b43:	c3                   	retq   

0000000000408b44 <_ZSt12__niter_baseIP4areaENSt11_Niter_baseIT_E13iterator_typeES3_>:
  408b44:	55                   	push   %rbp
  408b45:	48 89 e5             	mov    %rsp,%rbp
  408b48:	48 83 ec 10          	sub    $0x10,%rsp
  408b4c:	48 89 7d f8          	mov    %rdi,-0x8(%rbp)
  408b50:	48 8b 45 f8          	mov    -0x8(%rbp),%rax
  408b54:	48 89 c7             	mov    %rax,%rdi
  408b57:	e8 da ff ff ff       	callq  408b36 <_ZNSt10_Iter_baseIP4areaLb0EE7_S_baseES1_>
  408b5c:	c9                   	leaveq 
  408b5d:	c3                   	retq   

0000000000408b5e <_ZSt22__copy_move_backward_aILb1EP4areaS1_ET1_T0_S3_S2_>:
  408b5e:	55                   	push   %rbp
  408b5f:	48 89 e5             	mov    %rsp,%rbp
  408b62:	48 83 ec 30          	sub    $0x30,%rsp
  408b66:	48 89 7d e8          	mov    %rdi,-0x18(%rbp)
  408b6a:	48 89 75 e0          	mov    %rsi,-0x20(%rbp)
  408b6e:	48 89 55 d8          	mov    %rdx,-0x28(%rbp)
  408b72:	c6 45 ff 00          	movb   $0x0,-0x1(%rbp)
  408b76:	48 8b 55 d8          	mov    -0x28(%rbp),%rdx
  408b7a:	48 8b 4d e0          	mov    -0x20(%rbp),%rcx
  408b7e:	48 8b 45 e8          	mov    -0x18(%rbp),%rax
  408b82:	48 89 ce             	mov    %rcx,%rsi
  408b85:	48 89 c7             	mov    %rax,%rdi
  408b88:	e8 0f 03 00 00       	callq  408e9c <_ZNSt20__copy_move_backwardILb1ELb0ESt26random_access_iterator_tagE13__copy_move_bIP4areaS4_EET0_T_S6_S5_>
  408b8d:	c9                   	leaveq 
  408b8e:	c3                   	retq   

0000000000408b8f <_ZNSt16allocator_traitsISaI4areaEE8max_sizeERKS1_>:
  408b8f:	55                   	push   %rbp
  408b90:	48 89 e5             	mov    %rsp,%rbp
  408b93:	48 83 ec 10          	sub    $0x10,%rsp
  408b97:	48 89 7d f8          	mov    %rdi,-0x8(%rbp)
  408b9b:	48 8b 45 f8          	mov    -0x8(%rbp),%rax
  408b9f:	48 89 c7             	mov    %rax,%rdi
  408ba2:	e8 70 03 00 00       	callq  408f17 <_ZNSt16allocator_traitsISaI4areaEE11_S_max_sizeIKS1_EENSt9enable_ifIXsrNS2_16__maxsize_helperIT_EE5valueEmE4typeERS7_>
  408ba7:	c9                   	leaveq 
  408ba8:	c3                   	retq   
  408ba9:	90                   	nop

0000000000408baa <_ZNKSt12_Vector_baseI4areaSaIS0_EE19_M_get_Tp_allocatorEv>:
  408baa:	55                   	push   %rbp
  408bab:	48 89 e5             	mov    %rsp,%rbp
  408bae:	48 89 7d f8          	mov    %rdi,-0x8(%rbp)
  408bb2:	48 8b 45 f8          	mov    -0x8(%rbp),%rax
  408bb6:	5d                   	pop    %rbp
  408bb7:	c3                   	retq   

0000000000408bb8 <_ZNK9__gnu_cxx13new_allocatorI4areaE8max_sizeEv>:
  408bb8:	55                   	push   %rbp
  408bb9:	48 89 e5             	mov    %rsp,%rbp
  408bbc:	48 89 7d f8          	mov    %rdi,-0x8(%rbp)
  408bc0:	48 b8 55 55 55 55 55 	movabs $0x1555555555555555,%rax
  408bc7:	55 55 15 
  408bca:	5d                   	pop    %rbp
  408bcb:	c3                   	retq   

0000000000408bcc <_ZSt18uninitialized_copyIP4areaS1_ET0_T_S3_S2_>:
  408bcc:	55                   	push   %rbp
  408bcd:	48 89 e5             	mov    %rsp,%rbp
  408bd0:	48 83 ec 20          	sub    $0x20,%rsp
  408bd4:	48 89 7d f8          	mov    %rdi,-0x8(%rbp)
  408bd8:	48 89 75 f0          	mov    %rsi,-0x10(%rbp)
  408bdc:	48 89 55 e8          	mov    %rdx,-0x18(%rbp)
  408be0:	48 8b 55 e8          	mov    -0x18(%rbp),%rdx
  408be4:	48 8b 4d f0          	mov    -0x10(%rbp),%rcx
  408be8:	48 8b 45 f8          	mov    -0x8(%rbp),%rax
  408bec:	48 89 ce             	mov    %rcx,%rsi
  408bef:	48 89 c7             	mov    %rax,%rdi
  408bf2:	e8 3a 03 00 00       	callq  408f31 <_ZNSt20__uninitialized_copyILb0EE13__uninit_copyIP4areaS3_EET0_T_S5_S4_>
  408bf7:	c9                   	leaveq 
  408bf8:	c3                   	retq   

0000000000408bf9 <_ZNSt10_Iter_baseIN9__gnu_cxx17__normal_iteratorIP4areaSt6vectorIS2_SaIS2_EEEELb1EE7_S_baseES7_>:
  408bf9:	55                   	push   %rbp
  408bfa:	48 89 e5             	mov    %rsp,%rbp
  408bfd:	48 83 ec 10          	sub    $0x10,%rsp
  408c01:	48 89 7d f0          	mov    %rdi,-0x10(%rbp)
  408c05:	48 8d 45 f0          	lea    -0x10(%rbp),%rax
  408c09:	48 89 c7             	mov    %rax,%rdi
  408c0c:	e8 3b c8 ff ff       	callq  40544c <_ZNK9__gnu_cxx17__normal_iteratorIP4areaSt6vectorIS1_SaIS1_EEE4baseEv>
  408c11:	48 8b 00             	mov    (%rax),%rax
  408c14:	c9                   	leaveq 
  408c15:	c3                   	retq   

0000000000408c16 <_ZNSt11__copy_moveILb1ELb0ESt26random_access_iterator_tagE8__copy_mIP4areaS4_EET0_T_S6_S5_>:
  408c16:	55                   	push   %rbp
  408c17:	48 89 e5             	mov    %rsp,%rbp
  408c1a:	48 83 ec 30          	sub    $0x30,%rsp
  408c1e:	48 89 7d e8          	mov    %rdi,-0x18(%rbp)
  408c22:	48 89 75 e0          	mov    %rsi,-0x20(%rbp)
  408c26:	48 89 55 d8          	mov    %rdx,-0x28(%rbp)
  408c2a:	48 8b 55 e0          	mov    -0x20(%rbp),%rdx
  408c2e:	48 8b 45 e8          	mov    -0x18(%rbp),%rax
  408c32:	48 29 c2             	sub    %rax,%rdx
  408c35:	48 89 d0             	mov    %rdx,%rax
  408c38:	48 c1 f8 02          	sar    $0x2,%rax
  408c3c:	48 89 c2             	mov    %rax,%rdx
  408c3f:	48 b8 ab aa aa aa aa 	movabs $0xaaaaaaaaaaaaaaab,%rax
  408c46:	aa aa aa 
  408c49:	48 0f af c2          	imul   %rdx,%rax
  408c4d:	48 89 45 f8          	mov    %rax,-0x8(%rbp)
  408c51:	eb 2b                	jmp    408c7e <_ZNSt11__copy_moveILb1ELb0ESt26random_access_iterator_tagE8__copy_mIP4areaS4_EET0_T_S6_S5_+0x68>
  408c53:	48 8b 45 e8          	mov    -0x18(%rbp),%rax
  408c57:	48 89 c7             	mov    %rax,%rdi
  408c5a:	e8 65 c0 ff ff       	callq  404cc4 <_ZSt4moveIR4areaEONSt16remove_referenceIT_E4typeEOS3_>
  408c5f:	48 8b 55 d8          	mov    -0x28(%rbp),%rdx
  408c63:	48 8b 08             	mov    (%rax),%rcx
  408c66:	48 89 0a             	mov    %rcx,(%rdx)
  408c69:	8b 40 08             	mov    0x8(%rax),%eax
  408c6c:	89 42 08             	mov    %eax,0x8(%rdx)
  408c6f:	48 83 45 e8 0c       	addq   $0xc,-0x18(%rbp)
  408c74:	48 83 45 d8 0c       	addq   $0xc,-0x28(%rbp)
  408c79:	48 83 6d f8 01       	subq   $0x1,-0x8(%rbp)
  408c7e:	48 83 7d f8 00       	cmpq   $0x0,-0x8(%rbp)
  408c83:	7f ce                	jg     408c53 <_ZNSt11__copy_moveILb1ELb0ESt26random_access_iterator_tagE8__copy_mIP4areaS4_EET0_T_S6_S5_+0x3d>
  408c85:	48 8b 45 d8          	mov    -0x28(%rbp),%rax
  408c89:	c9                   	leaveq 
  408c8a:	c3                   	retq   
  408c8b:	90                   	nop

0000000000408c8c <_ZN9__gnu_cxx13new_allocatorIiE9constructIiIiEEEvPT_DpOT0_>:
  408c8c:	55                   	push   %rbp
  408c8d:	48 89 e5             	mov    %rsp,%rbp
  408c90:	53                   	push   %rbx
  408c91:	48 83 ec 28          	sub    $0x28,%rsp
  408c95:	48 89 7d e8          	mov    %rdi,-0x18(%rbp)
  408c99:	48 89 75 e0          	mov    %rsi,-0x20(%rbp)
  408c9d:	48 89 55 d8          	mov    %rdx,-0x28(%rbp)
  408ca1:	48 8b 45 d8          	mov    -0x28(%rbp),%rax
  408ca5:	48 89 c7             	mov    %rax,%rdi
  408ca8:	e8 24 d8 ff ff       	callq  4064d1 <_ZSt7forwardIiEOT_RNSt16remove_referenceIS0_E4typeE>
  408cad:	8b 18                	mov    (%rax),%ebx
  408caf:	48 8b 45 e0          	mov    -0x20(%rbp),%rax
  408cb3:	48 89 c6             	mov    %rax,%rsi
  408cb6:	bf 04 00 00 00       	mov    $0x4,%edi
  408cbb:	e8 40 8f ff ff       	callq  401c00 <_ZnwmPv>
  408cc0:	48 85 c0             	test   %rax,%rax
  408cc3:	74 02                	je     408cc7 <_ZN9__gnu_cxx13new_allocatorIiE9constructIiIiEEEvPT_DpOT0_+0x3b>
  408cc5:	89 18                	mov    %ebx,(%rax)
  408cc7:	48 83 c4 28          	add    $0x28,%rsp
  408ccb:	5b                   	pop    %rbx
  408ccc:	5d                   	pop    %rbp
  408ccd:	c3                   	retq   

0000000000408cce <_ZNSt16allocator_traitsISaI4nodeEE8max_sizeERKS1_>:
  408cce:	55                   	push   %rbp
  408ccf:	48 89 e5             	mov    %rsp,%rbp
  408cd2:	48 83 ec 10          	sub    $0x10,%rsp
  408cd6:	48 89 7d f8          	mov    %rdi,-0x8(%rbp)
  408cda:	48 8b 45 f8          	mov    -0x8(%rbp),%rax
  408cde:	48 89 c7             	mov    %rax,%rdi
  408ce1:	e8 9e 02 00 00       	callq  408f84 <_ZNSt16allocator_traitsISaI4nodeEE11_S_max_sizeIKS1_EENSt9enable_ifIXsrNS2_16__maxsize_helperIT_EE5valueEmE4typeERS7_>
  408ce6:	c9                   	leaveq 
  408ce7:	c3                   	retq   

0000000000408ce8 <_ZNKSt12_Vector_baseI4nodeSaIS0_EE19_M_get_Tp_allocatorEv>:
  408ce8:	55                   	push   %rbp
  408ce9:	48 89 e5             	mov    %rsp,%rbp
  408cec:	48 89 7d f8          	mov    %rdi,-0x8(%rbp)
  408cf0:	48 8b 45 f8          	mov    -0x8(%rbp),%rax
  408cf4:	5d                   	pop    %rbp
  408cf5:	c3                   	retq   

0000000000408cf6 <_ZNK9__gnu_cxx13new_allocatorI4nodeE8max_sizeEv>:
  408cf6:	55                   	push   %rbp
  408cf7:	48 89 e5             	mov    %rsp,%rbp
  408cfa:	48 89 7d f8          	mov    %rdi,-0x8(%rbp)
  408cfe:	48 b8 ff ff ff ff ff 	movabs $0x1fffffffffffffff,%rax
  408d05:	ff ff 1f 
  408d08:	5d                   	pop    %rbp
  408d09:	c3                   	retq   

0000000000408d0a <_ZNSt13move_iteratorIP4nodeEC1ES1_>:
  408d0a:	55                   	push   %rbp
  408d0b:	48 89 e5             	mov    %rsp,%rbp
  408d0e:	48 89 7d f8          	mov    %rdi,-0x8(%rbp)
  408d12:	48 89 75 f0          	mov    %rsi,-0x10(%rbp)
  408d16:	48 8b 45 f8          	mov    -0x8(%rbp),%rax
  408d1a:	48 8b 55 f0          	mov    -0x10(%rbp),%rdx
  408d1e:	48 89 10             	mov    %rdx,(%rax)
  408d21:	5d                   	pop    %rbp
  408d22:	c3                   	retq   

0000000000408d23 <_ZSt18uninitialized_copyISt13move_iteratorIP4nodeES2_ET0_T_S5_S4_>:
  408d23:	55                   	push   %rbp
  408d24:	48 89 e5             	mov    %rsp,%rbp
  408d27:	48 83 ec 20          	sub    $0x20,%rsp
  408d2b:	48 89 7d f0          	mov    %rdi,-0x10(%rbp)
  408d2f:	48 89 75 e0          	mov    %rsi,-0x20(%rbp)
  408d33:	48 89 55 e8          	mov    %rdx,-0x18(%rbp)
  408d37:	48 8b 55 e8          	mov    -0x18(%rbp),%rdx
  408d3b:	48 8b 4d e0          	mov    -0x20(%rbp),%rcx
  408d3f:	48 8b 45 f0          	mov    -0x10(%rbp),%rax
  408d43:	48 89 ce             	mov    %rcx,%rsi
  408d46:	48 89 c7             	mov    %rax,%rdi
  408d49:	e8 50 02 00 00       	callq  408f9e <_ZNSt20__uninitialized_copyILb0EE13__uninit_copyISt13move_iteratorIP4nodeES4_EET0_T_S7_S6_>
  408d4e:	c9                   	leaveq 
  408d4f:	c3                   	retq   

0000000000408d50 <_ZN9__gnu_cxx13new_allocatorI4nodeE7destroyIS1_EEvPT_>:
  408d50:	55                   	push   %rbp
  408d51:	48 89 e5             	mov    %rsp,%rbp
  408d54:	48 89 7d f8          	mov    %rdi,-0x8(%rbp)
  408d58:	48 89 75 f0          	mov    %rsi,-0x10(%rbp)
  408d5c:	5d                   	pop    %rbp
  408d5d:	c3                   	retq   

0000000000408d5e <_ZNSt10_Iter_baseIP4nodeLb0EE7_S_baseES1_>:
  408d5e:	55                   	push   %rbp
  408d5f:	48 89 e5             	mov    %rsp,%rbp
  408d62:	48 89 7d f8          	mov    %rdi,-0x8(%rbp)
  408d66:	48 8b 45 f8          	mov    -0x8(%rbp),%rax
  408d6a:	5d                   	pop    %rbp
  408d6b:	c3                   	retq   

0000000000408d6c <_ZSt22__copy_move_backward_aILb1EP4nodeS1_ET1_T0_S3_S2_>:
  408d6c:	55                   	push   %rbp
  408d6d:	48 89 e5             	mov    %rsp,%rbp
  408d70:	48 83 ec 30          	sub    $0x30,%rsp
  408d74:	48 89 7d e8          	mov    %rdi,-0x18(%rbp)
  408d78:	48 89 75 e0          	mov    %rsi,-0x20(%rbp)
  408d7c:	48 89 55 d8          	mov    %rdx,-0x28(%rbp)
  408d80:	c6 45 ff 00          	movb   $0x0,-0x1(%rbp)
  408d84:	48 8b 55 d8          	mov    -0x28(%rbp),%rdx
  408d88:	48 8b 4d e0          	mov    -0x20(%rbp),%rcx
  408d8c:	48 8b 45 e8          	mov    -0x18(%rbp),%rax
  408d90:	48 89 ce             	mov    %rcx,%rsi
  408d93:	48 89 c7             	mov    %rax,%rdi
  408d96:	e8 b0 02 00 00       	callq  40904b <_ZNSt20__copy_move_backwardILb1ELb0ESt26random_access_iterator_tagE13__copy_move_bIP4nodeS4_EET0_T_S6_S5_>
  408d9b:	c9                   	leaveq 
  408d9c:	c3                   	retq   

0000000000408d9d <_ZNSt22__uninitialized_fill_nILb0EE15__uninit_fill_nIP4nodemS2_EEvT_T0_RKT1_>:
  408d9d:	55                   	push   %rbp
  408d9e:	48 89 e5             	mov    %rsp,%rbp
  408da1:	48 83 ec 30          	sub    $0x30,%rsp
  408da5:	48 89 7d e8          	mov    %rdi,-0x18(%rbp)
  408da9:	48 89 75 e0          	mov    %rsi,-0x20(%rbp)
  408dad:	48 89 55 d8          	mov    %rdx,-0x28(%rbp)
  408db1:	48 8b 45 e8          	mov    -0x18(%rbp),%rax
  408db5:	48 89 45 f8          	mov    %rax,-0x8(%rbp)
  408db9:	eb 25                	jmp    408de0 <_ZNSt22__uninitialized_fill_nILb0EE15__uninit_fill_nIP4nodemS2_EEvT_T0_RKT1_+0x43>
  408dbb:	48 8b 45 f8          	mov    -0x8(%rbp),%rax
  408dbf:	48 89 c7             	mov    %rax,%rdi
  408dc2:	e8 e8 02 00 00       	callq  4090af <_ZSt11__addressofI4nodeEPT_RS1_>
  408dc7:	48 8b 55 d8          	mov    -0x28(%rbp),%rdx
  408dcb:	48 89 d6             	mov    %rdx,%rsi
  408dce:	48 89 c7             	mov    %rax,%rdi
  408dd1:	e8 f5 02 00 00       	callq  4090cb <_ZSt10_ConstructI4nodeIRKS0_EEvPT_DpOT0_>
  408dd6:	48 83 6d e0 01       	subq   $0x1,-0x20(%rbp)
  408ddb:	48 83 45 f8 08       	addq   $0x8,-0x8(%rbp)
  408de0:	48 83 7d e0 00       	cmpq   $0x0,-0x20(%rbp)
  408de5:	75 d4                	jne    408dbb <_ZNSt22__uninitialized_fill_nILb0EE15__uninit_fill_nIP4nodemS2_EEvT_T0_RKT1_+0x1e>
  408de7:	c9                   	leaveq 
  408de8:	c3                   	retq   

0000000000408de9 <_ZNSt16allocator_traitsISaIiEE11_S_max_sizeIKS0_EENSt9enable_ifIXsrNS1_16__maxsize_helperIT_EE5valueEmE4typeERS6_>:
  408de9:	55                   	push   %rbp
  408dea:	48 89 e5             	mov    %rsp,%rbp
  408ded:	48 83 ec 10          	sub    $0x10,%rsp
  408df1:	48 89 7d f8          	mov    %rdi,-0x8(%rbp)
  408df5:	48 8b 45 f8          	mov    -0x8(%rbp),%rax
  408df9:	48 89 c7             	mov    %rax,%rdi
  408dfc:	e8 7b fb ff ff       	callq  40897c <_ZNK9__gnu_cxx13new_allocatorIiE8max_sizeEv>
  408e01:	c9                   	leaveq 
  408e02:	c3                   	retq   

0000000000408e03 <_ZNSt20__uninitialized_copyILb1EE13__uninit_copyISt13move_iteratorIPiES3_EET0_T_S6_S5_>:
  408e03:	55                   	push   %rbp
  408e04:	48 89 e5             	mov    %rsp,%rbp
  408e07:	48 83 ec 20          	sub    $0x20,%rsp
  408e0b:	48 89 7d f0          	mov    %rdi,-0x10(%rbp)
  408e0f:	48 89 75 e0          	mov    %rsi,-0x20(%rbp)
  408e13:	48 89 55 e8          	mov    %rdx,-0x18(%rbp)
  408e17:	48 8b 55 e8          	mov    -0x18(%rbp),%rdx
  408e1b:	48 8b 4d e0          	mov    -0x20(%rbp),%rcx
  408e1f:	48 8b 45 f0          	mov    -0x10(%rbp),%rax
  408e23:	48 89 ce             	mov    %rcx,%rsi
  408e26:	48 89 c7             	mov    %rax,%rdi
  408e29:	e8 e0 02 00 00       	callq  40910e <_ZSt4copyISt13move_iteratorIPiES1_ET0_T_S4_S3_>
  408e2e:	c9                   	leaveq 
  408e2f:	c3                   	retq   

0000000000408e30 <_ZNSt10_Iter_baseIPiLb0EE7_S_baseES0_>:
  408e30:	55                   	push   %rbp
  408e31:	48 89 e5             	mov    %rsp,%rbp
  408e34:	48 89 7d f8          	mov    %rdi,-0x8(%rbp)
  408e38:	48 8b 45 f8          	mov    -0x8(%rbp),%rax
  408e3c:	5d                   	pop    %rbp
  408e3d:	c3                   	retq   

0000000000408e3e <_ZSt22__copy_move_backward_aILb1EPiS0_ET1_T0_S2_S1_>:
  408e3e:	55                   	push   %rbp
  408e3f:	48 89 e5             	mov    %rsp,%rbp
  408e42:	48 83 ec 30          	sub    $0x30,%rsp
  408e46:	48 89 7d e8          	mov    %rdi,-0x18(%rbp)
  408e4a:	48 89 75 e0          	mov    %rsi,-0x20(%rbp)
  408e4e:	48 89 55 d8          	mov    %rdx,-0x28(%rbp)
  408e52:	c6 45 ff 01          	movb   $0x1,-0x1(%rbp)
  408e56:	48 8b 55 d8          	mov    -0x28(%rbp),%rdx
  408e5a:	48 8b 4d e0          	mov    -0x20(%rbp),%rcx
  408e5e:	48 8b 45 e8          	mov    -0x18(%rbp),%rax
  408e62:	48 89 ce             	mov    %rcx,%rsi
  408e65:	48 89 c7             	mov    %rax,%rdi
  408e68:	e8 e7 02 00 00       	callq  409154 <_ZNSt20__copy_move_backwardILb1ELb1ESt26random_access_iterator_tagE13__copy_move_bIiEEPT_PKS3_S6_S4_>
  408e6d:	c9                   	leaveq 
  408e6e:	c3                   	retq   

0000000000408e6f <_ZNSt22__uninitialized_fill_nILb1EE15__uninit_fill_nIPimiEEvT_T0_RKT1_>:
  408e6f:	55                   	push   %rbp
  408e70:	48 89 e5             	mov    %rsp,%rbp
  408e73:	48 83 ec 20          	sub    $0x20,%rsp
  408e77:	48 89 7d f8          	mov    %rdi,-0x8(%rbp)
  408e7b:	48 89 75 f0          	mov    %rsi,-0x10(%rbp)
  408e7f:	48 89 55 e8          	mov    %rdx,-0x18(%rbp)
  408e83:	48 8b 55 e8          	mov    -0x18(%rbp),%rdx
  408e87:	48 8b 4d f0          	mov    -0x10(%rbp),%rcx
  408e8b:	48 8b 45 f8          	mov    -0x8(%rbp),%rax
  408e8f:	48 89 ce             	mov    %rcx,%rsi
  408e92:	48 89 c7             	mov    %rax,%rdi
  408e95:	e8 32 03 00 00       	callq  4091cc <_ZSt6fill_nIPimiET_S1_T0_RKT1_>
  408e9a:	c9                   	leaveq 
  408e9b:	c3                   	retq   

0000000000408e9c <_ZNSt20__copy_move_backwardILb1ELb0ESt26random_access_iterator_tagE13__copy_move_bIP4areaS4_EET0_T_S6_S5_>:
  408e9c:	55                   	push   %rbp
  408e9d:	48 89 e5             	mov    %rsp,%rbp
  408ea0:	53                   	push   %rbx
  408ea1:	48 83 ec 38          	sub    $0x38,%rsp
  408ea5:	48 89 7d d8          	mov    %rdi,-0x28(%rbp)
  408ea9:	48 89 75 d0          	mov    %rsi,-0x30(%rbp)
  408ead:	48 89 55 c8          	mov    %rdx,-0x38(%rbp)
  408eb1:	48 8b 55 d0          	mov    -0x30(%rbp),%rdx
  408eb5:	48 8b 45 d8          	mov    -0x28(%rbp),%rax
  408eb9:	48 29 c2             	sub    %rax,%rdx
  408ebc:	48 89 d0             	mov    %rdx,%rax
  408ebf:	48 c1 f8 02          	sar    $0x2,%rax
  408ec3:	48 89 c2             	mov    %rax,%rdx
  408ec6:	48 b8 ab aa aa aa aa 	movabs $0xaaaaaaaaaaaaaaab,%rax
  408ecd:	aa aa aa 
  408ed0:	48 0f af c2          	imul   %rdx,%rax
  408ed4:	48 89 45 e8          	mov    %rax,-0x18(%rbp)
  408ed8:	eb 2b                	jmp    408f05 <_ZNSt20__copy_move_backwardILb1ELb0ESt26random_access_iterator_tagE13__copy_move_bIP4areaS4_EET0_T_S6_S5_+0x69>
  408eda:	48 83 6d c8 0c       	subq   $0xc,-0x38(%rbp)
  408edf:	48 8b 5d c8          	mov    -0x38(%rbp),%rbx
  408ee3:	48 83 6d d0 0c       	subq   $0xc,-0x30(%rbp)
  408ee8:	48 8b 45 d0          	mov    -0x30(%rbp),%rax
  408eec:	48 89 c7             	mov    %rax,%rdi
  408eef:	e8 d0 bd ff ff       	callq  404cc4 <_ZSt4moveIR4areaEONSt16remove_referenceIT_E4typeEOS3_>
  408ef4:	48 8b 10             	mov    (%rax),%rdx
  408ef7:	48 89 13             	mov    %rdx,(%rbx)
  408efa:	8b 40 08             	mov    0x8(%rax),%eax
  408efd:	89 43 08             	mov    %eax,0x8(%rbx)
  408f00:	48 83 6d e8 01       	subq   $0x1,-0x18(%rbp)
  408f05:	48 83 7d e8 00       	cmpq   $0x0,-0x18(%rbp)
  408f0a:	7f ce                	jg     408eda <_ZNSt20__copy_move_backwardILb1ELb0ESt26random_access_iterator_tagE13__copy_move_bIP4areaS4_EET0_T_S6_S5_+0x3e>
  408f0c:	48 8b 45 c8          	mov    -0x38(%rbp),%rax
  408f10:	48 83 c4 38          	add    $0x38,%rsp
  408f14:	5b                   	pop    %rbx
  408f15:	5d                   	pop    %rbp
  408f16:	c3                   	retq   

0000000000408f17 <_ZNSt16allocator_traitsISaI4areaEE11_S_max_sizeIKS1_EENSt9enable_ifIXsrNS2_16__maxsize_helperIT_EE5valueEmE4typeERS7_>:
  408f17:	55                   	push   %rbp
  408f18:	48 89 e5             	mov    %rsp,%rbp
  408f1b:	48 83 ec 10          	sub    $0x10,%rsp
  408f1f:	48 89 7d f8          	mov    %rdi,-0x8(%rbp)
  408f23:	48 8b 45 f8          	mov    -0x8(%rbp),%rax
  408f27:	48 89 c7             	mov    %rax,%rdi
  408f2a:	e8 89 fc ff ff       	callq  408bb8 <_ZNK9__gnu_cxx13new_allocatorI4areaE8max_sizeEv>
  408f2f:	c9                   	leaveq 
  408f30:	c3                   	retq   

0000000000408f31 <_ZNSt20__uninitialized_copyILb0EE13__uninit_copyIP4areaS3_EET0_T_S5_S4_>:
  408f31:	55                   	push   %rbp
  408f32:	48 89 e5             	mov    %rsp,%rbp
  408f35:	48 83 ec 30          	sub    $0x30,%rsp
  408f39:	48 89 7d e8          	mov    %rdi,-0x18(%rbp)
  408f3d:	48 89 75 e0          	mov    %rsi,-0x20(%rbp)
  408f41:	48 89 55 d8          	mov    %rdx,-0x28(%rbp)
  408f45:	48 8b 45 d8          	mov    -0x28(%rbp),%rax
  408f49:	48 89 45 f8          	mov    %rax,-0x8(%rbp)
  408f4d:	eb 25                	jmp    408f74 <_ZNSt20__uninitialized_copyILb0EE13__uninit_copyIP4areaS3_EET0_T_S5_S4_+0x43>
  408f4f:	48 8b 45 f8          	mov    -0x8(%rbp),%rax
  408f53:	48 89 c7             	mov    %rax,%rdi
  408f56:	e8 a6 02 00 00       	callq  409201 <_ZSt11__addressofI4areaEPT_RS1_>
  408f5b:	48 8b 55 e8          	mov    -0x18(%rbp),%rdx
  408f5f:	48 89 d6             	mov    %rdx,%rsi
  408f62:	48 89 c7             	mov    %rax,%rdi
  408f65:	e8 b3 02 00 00       	callq  40921d <_ZSt10_ConstructI4areaIRS0_EEvPT_DpOT0_>
  408f6a:	48 83 45 e8 0c       	addq   $0xc,-0x18(%rbp)
  408f6f:	48 83 45 f8 0c       	addq   $0xc,-0x8(%rbp)
  408f74:	48 8b 45 e8          	mov    -0x18(%rbp),%rax
  408f78:	48 3b 45 e0          	cmp    -0x20(%rbp),%rax
  408f7c:	75 d1                	jne    408f4f <_ZNSt20__uninitialized_copyILb0EE13__uninit_copyIP4areaS3_EET0_T_S5_S4_+0x1e>
  408f7e:	48 8b 45 f8          	mov    -0x8(%rbp),%rax
  408f82:	c9                   	leaveq 
  408f83:	c3                   	retq   

0000000000408f84 <_ZNSt16allocator_traitsISaI4nodeEE11_S_max_sizeIKS1_EENSt9enable_ifIXsrNS2_16__maxsize_helperIT_EE5valueEmE4typeERS7_>:
  408f84:	55                   	push   %rbp
  408f85:	48 89 e5             	mov    %rsp,%rbp
  408f88:	48 83 ec 10          	sub    $0x10,%rsp
  408f8c:	48 89 7d f8          	mov    %rdi,-0x8(%rbp)
  408f90:	48 8b 45 f8          	mov    -0x8(%rbp),%rax
  408f94:	48 89 c7             	mov    %rax,%rdi
  408f97:	e8 5a fd ff ff       	callq  408cf6 <_ZNK9__gnu_cxx13new_allocatorI4nodeE8max_sizeEv>
  408f9c:	c9                   	leaveq 
  408f9d:	c3                   	retq   

0000000000408f9e <_ZNSt20__uninitialized_copyILb0EE13__uninit_copyISt13move_iteratorIP4nodeES4_EET0_T_S7_S6_>:
  408f9e:	55                   	push   %rbp
  408f9f:	48 89 e5             	mov    %rsp,%rbp
  408fa2:	53                   	push   %rbx
  408fa3:	48 83 ec 38          	sub    $0x38,%rsp
  408fa7:	48 89 7d d0          	mov    %rdi,-0x30(%rbp)
  408fab:	48 89 75 c0          	mov    %rsi,-0x40(%rbp)
  408faf:	48 89 55 c8          	mov    %rdx,-0x38(%rbp)
  408fb3:	48 8b 45 c8          	mov    -0x38(%rbp),%rax
  408fb7:	48 89 45 e8          	mov    %rax,-0x18(%rbp)
  408fbb:	eb 37                	jmp    408ff4 <_ZNSt20__uninitialized_copyILb0EE13__uninit_copyISt13move_iteratorIP4nodeES4_EET0_T_S7_S6_+0x56>
  408fbd:	48 8d 45 d0          	lea    -0x30(%rbp),%rax
  408fc1:	48 89 c7             	mov    %rax,%rdi
  408fc4:	e8 e5 02 00 00       	callq  4092ae <_ZNKSt13move_iteratorIP4nodeEdeEv>
  408fc9:	48 89 c3             	mov    %rax,%rbx
  408fcc:	48 8b 45 e8          	mov    -0x18(%rbp),%rax
  408fd0:	48 89 c7             	mov    %rax,%rdi
  408fd3:	e8 d7 00 00 00       	callq  4090af <_ZSt11__addressofI4nodeEPT_RS1_>
  408fd8:	48 89 de             	mov    %rbx,%rsi
  408fdb:	48 89 c7             	mov    %rax,%rdi
  408fde:	e8 e8 02 00 00       	callq  4092cb <_ZSt10_ConstructI4nodeIS0_EEvPT_DpOT0_>
  408fe3:	48 8d 45 d0          	lea    -0x30(%rbp),%rax
  408fe7:	48 89 c7             	mov    %rax,%rdi
  408fea:	e8 9f 02 00 00       	callq  40928e <_ZNSt13move_iteratorIP4nodeEppEv>
  408fef:	48 83 45 e8 08       	addq   $0x8,-0x18(%rbp)
  408ff4:	48 8d 55 c0          	lea    -0x40(%rbp),%rdx
  408ff8:	48 8d 45 d0          	lea    -0x30(%rbp),%rax
  408ffc:	48 89 d6             	mov    %rdx,%rsi
  408fff:	48 89 c7             	mov    %rax,%rdi
  409002:	e8 5e 02 00 00       	callq  409265 <_ZStneIP4nodeEbRKSt13move_iteratorIT_ES6_>
  409007:	84 c0                	test   %al,%al
  409009:	75 b2                	jne    408fbd <_ZNSt20__uninitialized_copyILb0EE13__uninit_copyISt13move_iteratorIP4nodeES4_EET0_T_S7_S6_+0x1f>
  40900b:	48 8b 45 e8          	mov    -0x18(%rbp),%rax
  40900f:	eb 33                	jmp    409044 <_ZNSt20__uninitialized_copyILb0EE13__uninit_copyISt13move_iteratorIP4nodeES4_EET0_T_S7_S6_+0xa6>
  409011:	48 89 c3             	mov    %rax,%rbx
  409014:	e8 e7 80 ff ff       	callq  401100 <__cxa_end_catch@plt>
  409019:	48 89 d8             	mov    %rbx,%rax
  40901c:	48 89 c7             	mov    %rax,%rdi
  40901f:	e8 6c 81 ff ff       	callq  401190 <_Unwind_Resume@plt>
  409024:	48 89 c7             	mov    %rax,%rdi
  409027:	e8 f4 80 ff ff       	callq  401120 <__cxa_begin_catch@plt>
  40902c:	48 8b 55 e8          	mov    -0x18(%rbp),%rdx
  409030:	48 8b 45 c8          	mov    -0x38(%rbp),%rax
  409034:	48 89 d6             	mov    %rdx,%rsi
  409037:	48 89 c7             	mov    %rax,%rdi
  40903a:	e8 83 d8 ff ff       	callq  4068c2 <_ZSt8_DestroyIP4nodeEvT_S2_>
  40903f:	e8 9c 7f ff ff       	callq  400fe0 <__cxa_rethrow@plt>
  409044:	48 83 c4 38          	add    $0x38,%rsp
  409048:	5b                   	pop    %rbx
  409049:	5d                   	pop    %rbp
  40904a:	c3                   	retq   

000000000040904b <_ZNSt20__copy_move_backwardILb1ELb0ESt26random_access_iterator_tagE13__copy_move_bIP4nodeS4_EET0_T_S6_S5_>:
  40904b:	55                   	push   %rbp
  40904c:	48 89 e5             	mov    %rsp,%rbp
  40904f:	53                   	push   %rbx
  409050:	48 83 ec 38          	sub    $0x38,%rsp
  409054:	48 89 7d d8          	mov    %rdi,-0x28(%rbp)
  409058:	48 89 75 d0          	mov    %rsi,-0x30(%rbp)
  40905c:	48 89 55 c8          	mov    %rdx,-0x38(%rbp)
  409060:	48 8b 55 d0          	mov    -0x30(%rbp),%rdx
  409064:	48 8b 45 d8          	mov    -0x28(%rbp),%rax
  409068:	48 29 c2             	sub    %rax,%rdx
  40906b:	48 89 d0             	mov    %rdx,%rax
  40906e:	48 c1 f8 03          	sar    $0x3,%rax
  409072:	48 89 45 e8          	mov    %rax,-0x18(%rbp)
  409076:	eb 25                	jmp    40909d <_ZNSt20__copy_move_backwardILb1ELb0ESt26random_access_iterator_tagE13__copy_move_bIP4nodeS4_EET0_T_S6_S5_+0x52>
  409078:	48 83 6d c8 08       	subq   $0x8,-0x38(%rbp)
  40907d:	48 8b 5d c8          	mov    -0x38(%rbp),%rbx
  409081:	48 83 6d d0 08       	subq   $0x8,-0x30(%rbp)
  409086:	48 8b 45 d0          	mov    -0x30(%rbp),%rax
  40908a:	48 89 c7             	mov    %rax,%rdi
  40908d:	e8 29 ba ff ff       	callq  404abb <_ZSt4moveIR4nodeEONSt16remove_referenceIT_E4typeEOS3_>
  409092:	48 8b 00             	mov    (%rax),%rax
  409095:	48 89 03             	mov    %rax,(%rbx)
  409098:	48 83 6d e8 01       	subq   $0x1,-0x18(%rbp)
  40909d:	48 83 7d e8 00       	cmpq   $0x0,-0x18(%rbp)
  4090a2:	7f d4                	jg     409078 <_ZNSt20__copy_move_backwardILb1ELb0ESt26random_access_iterator_tagE13__copy_move_bIP4nodeS4_EET0_T_S6_S5_+0x2d>
  4090a4:	48 8b 45 c8          	mov    -0x38(%rbp),%rax
  4090a8:	48 83 c4 38          	add    $0x38,%rsp
  4090ac:	5b                   	pop    %rbx
  4090ad:	5d                   	pop    %rbp
  4090ae:	c3                   	retq   

00000000004090af <_ZSt11__addressofI4nodeEPT_RS1_>:
  4090af:	55                   	push   %rbp
  4090b0:	48 89 e5             	mov    %rsp,%rbp
  4090b3:	48 89 7d f8          	mov    %rdi,-0x8(%rbp)
  4090b7:	48 8b 45 f8          	mov    -0x8(%rbp),%rax
  4090bb:	5d                   	pop    %rbp
  4090bc:	c3                   	retq   

00000000004090bd <_ZSt7forwardIRK4nodeEOT_RNSt16remove_referenceIS3_E4typeE>:
  4090bd:	55                   	push   %rbp
  4090be:	48 89 e5             	mov    %rsp,%rbp
  4090c1:	48 89 7d f8          	mov    %rdi,-0x8(%rbp)
  4090c5:	48 8b 45 f8          	mov    -0x8(%rbp),%rax
  4090c9:	5d                   	pop    %rbp
  4090ca:	c3                   	retq   

00000000004090cb <_ZSt10_ConstructI4nodeIRKS0_EEvPT_DpOT0_>:
  4090cb:	55                   	push   %rbp
  4090cc:	48 89 e5             	mov    %rsp,%rbp
  4090cf:	53                   	push   %rbx
  4090d0:	48 83 ec 18          	sub    $0x18,%rsp
  4090d4:	48 89 7d e8          	mov    %rdi,-0x18(%rbp)
  4090d8:	48 89 75 e0          	mov    %rsi,-0x20(%rbp)
  4090dc:	48 8b 45 e0          	mov    -0x20(%rbp),%rax
  4090e0:	48 89 c7             	mov    %rax,%rdi
  4090e3:	e8 d5 ff ff ff       	callq  4090bd <_ZSt7forwardIRK4nodeEOT_RNSt16remove_referenceIS3_E4typeE>
  4090e8:	48 89 c3             	mov    %rax,%rbx
  4090eb:	48 8b 45 e8          	mov    -0x18(%rbp),%rax
  4090ef:	48 89 c6             	mov    %rax,%rsi
  4090f2:	bf 08 00 00 00       	mov    $0x8,%edi
  4090f7:	e8 04 8b ff ff       	callq  401c00 <_ZnwmPv>
  4090fc:	48 85 c0             	test   %rax,%rax
  4090ff:	74 06                	je     409107 <_ZSt10_ConstructI4nodeIRKS0_EEvPT_DpOT0_+0x3c>
  409101:	48 8b 13             	mov    (%rbx),%rdx
  409104:	48 89 10             	mov    %rdx,(%rax)
  409107:	48 83 c4 18          	add    $0x18,%rsp
  40910b:	5b                   	pop    %rbx
  40910c:	5d                   	pop    %rbp
  40910d:	c3                   	retq   

000000000040910e <_ZSt4copyISt13move_iteratorIPiES1_ET0_T_S4_S3_>:
  40910e:	55                   	push   %rbp
  40910f:	48 89 e5             	mov    %rsp,%rbp
  409112:	53                   	push   %rbx
  409113:	48 83 ec 28          	sub    $0x28,%rsp
  409117:	48 89 7d e0          	mov    %rdi,-0x20(%rbp)
  40911b:	48 89 75 d0          	mov    %rsi,-0x30(%rbp)
  40911f:	48 89 55 d8          	mov    %rdx,-0x28(%rbp)
  409123:	48 8b 45 d0          	mov    -0x30(%rbp),%rax
  409127:	48 89 c7             	mov    %rax,%rdi
  40912a:	e8 df 01 00 00       	callq  40930e <_ZSt12__miter_baseISt13move_iteratorIPiEENSt11_Miter_baseIT_E13iterator_typeES4_>
  40912f:	48 89 c3             	mov    %rax,%rbx
  409132:	48 8b 45 e0          	mov    -0x20(%rbp),%rax
  409136:	48 89 c7             	mov    %rax,%rdi
  409139:	e8 d0 01 00 00       	callq  40930e <_ZSt12__miter_baseISt13move_iteratorIPiEENSt11_Miter_baseIT_E13iterator_typeES4_>
  40913e:	48 8b 55 d8          	mov    -0x28(%rbp),%rdx
  409142:	48 89 de             	mov    %rbx,%rsi
  409145:	48 89 c7             	mov    %rax,%rdi
  409148:	e8 db 01 00 00       	callq  409328 <_ZSt14__copy_move_a2ILb1EPiS0_ET1_T0_S2_S1_>
  40914d:	48 83 c4 28          	add    $0x28,%rsp
  409151:	5b                   	pop    %rbx
  409152:	5d                   	pop    %rbp
  409153:	c3                   	retq   

0000000000409154 <_ZNSt20__copy_move_backwardILb1ELb1ESt26random_access_iterator_tagE13__copy_move_bIiEEPT_PKS3_S6_S4_>:
  409154:	55                   	push   %rbp
  409155:	48 89 e5             	mov    %rsp,%rbp
  409158:	48 83 ec 30          	sub    $0x30,%rsp
  40915c:	48 89 7d e8          	mov    %rdi,-0x18(%rbp)
  409160:	48 89 75 e0          	mov    %rsi,-0x20(%rbp)
  409164:	48 89 55 d8          	mov    %rdx,-0x28(%rbp)
  409168:	48 8b 55 e0          	mov    -0x20(%rbp),%rdx
  40916c:	48 8b 45 e8          	mov    -0x18(%rbp),%rax
  409170:	48 29 c2             	sub    %rax,%rdx
  409173:	48 89 d0             	mov    %rdx,%rax
  409176:	48 c1 f8 02          	sar    $0x2,%rax
  40917a:	48 89 45 f8          	mov    %rax,-0x8(%rbp)
  40917e:	48 83 7d f8 00       	cmpq   $0x0,-0x8(%rbp)
  409183:	74 30                	je     4091b5 <_ZNSt20__copy_move_backwardILb1ELb1ESt26random_access_iterator_tagE13__copy_move_bIiEEPT_PKS3_S6_S4_+0x61>
  409185:	48 8b 45 f8          	mov    -0x8(%rbp),%rax
  409189:	48 8d 14 85 00 00 00 	lea    0x0(,%rax,4),%rdx
  409190:	00 
  409191:	48 8b 45 f8          	mov    -0x8(%rbp),%rax
  409195:	48 c1 e0 02          	shl    $0x2,%rax
  409199:	48 f7 d8             	neg    %rax
  40919c:	48 89 c1             	mov    %rax,%rcx
  40919f:	48 8b 45 d8          	mov    -0x28(%rbp),%rax
  4091a3:	48 01 c1             	add    %rax,%rcx
  4091a6:	48 8b 45 e8          	mov    -0x18(%rbp),%rax
  4091aa:	48 89 c6             	mov    %rax,%rsi
  4091ad:	48 89 cf             	mov    %rcx,%rdi
  4091b0:	e8 0b 7f ff ff       	callq  4010c0 <memmove@plt>
  4091b5:	48 8b 45 f8          	mov    -0x8(%rbp),%rax
  4091b9:	48 c1 e0 02          	shl    $0x2,%rax
  4091bd:	48 f7 d8             	neg    %rax
  4091c0:	48 89 c2             	mov    %rax,%rdx
  4091c3:	48 8b 45 d8          	mov    -0x28(%rbp),%rax
  4091c7:	48 01 d0             	add    %rdx,%rax
  4091ca:	c9                   	leaveq 
  4091cb:	c3                   	retq   

00000000004091cc <_ZSt6fill_nIPimiET_S1_T0_RKT1_>:
  4091cc:	55                   	push   %rbp
  4091cd:	48 89 e5             	mov    %rsp,%rbp
  4091d0:	48 83 ec 20          	sub    $0x20,%rsp
  4091d4:	48 89 7d f8          	mov    %rdi,-0x8(%rbp)
  4091d8:	48 89 75 f0          	mov    %rsi,-0x10(%rbp)
  4091dc:	48 89 55 e8          	mov    %rdx,-0x18(%rbp)
  4091e0:	48 8b 45 f8          	mov    -0x8(%rbp),%rax
  4091e4:	48 89 c7             	mov    %rax,%rdi
  4091e7:	e8 81 f8 ff ff       	callq  408a6d <_ZSt12__niter_baseIPiENSt11_Niter_baseIT_E13iterator_typeES2_>
  4091ec:	48 8b 55 e8          	mov    -0x18(%rbp),%rdx
  4091f0:	48 8b 4d f0          	mov    -0x10(%rbp),%rcx
  4091f4:	48 89 ce             	mov    %rcx,%rsi
  4091f7:	48 89 c7             	mov    %rax,%rdi
  4091fa:	e8 81 01 00 00       	callq  409380 <_ZSt10__fill_n_aIPimiEN9__gnu_cxx11__enable_ifIXsrSt11__is_scalarIT1_E7__valueET_E6__typeES6_T0_RKS4_>
  4091ff:	c9                   	leaveq 
  409200:	c3                   	retq   

0000000000409201 <_ZSt11__addressofI4areaEPT_RS1_>:
  409201:	55                   	push   %rbp
  409202:	48 89 e5             	mov    %rsp,%rbp
  409205:	48 89 7d f8          	mov    %rdi,-0x8(%rbp)
  409209:	48 8b 45 f8          	mov    -0x8(%rbp),%rax
  40920d:	5d                   	pop    %rbp
  40920e:	c3                   	retq   

000000000040920f <_ZSt7forwardIR4areaEOT_RNSt16remove_referenceIS2_E4typeE>:
  40920f:	55                   	push   %rbp
  409210:	48 89 e5             	mov    %rsp,%rbp
  409213:	48 89 7d f8          	mov    %rdi,-0x8(%rbp)
  409217:	48 8b 45 f8          	mov    -0x8(%rbp),%rax
  40921b:	5d                   	pop    %rbp
  40921c:	c3                   	retq   

000000000040921d <_ZSt10_ConstructI4areaIRS0_EEvPT_DpOT0_>:
  40921d:	55                   	push   %rbp
  40921e:	48 89 e5             	mov    %rsp,%rbp
  409221:	53                   	push   %rbx
  409222:	48 83 ec 18          	sub    $0x18,%rsp
  409226:	48 89 7d e8          	mov    %rdi,-0x18(%rbp)
  40922a:	48 89 75 e0          	mov    %rsi,-0x20(%rbp)
  40922e:	48 8b 45 e0          	mov    -0x20(%rbp),%rax
  409232:	48 89 c7             	mov    %rax,%rdi
  409235:	e8 d5 ff ff ff       	callq  40920f <_ZSt7forwardIR4areaEOT_RNSt16remove_referenceIS2_E4typeE>
  40923a:	48 89 c3             	mov    %rax,%rbx
  40923d:	48 8b 45 e8          	mov    -0x18(%rbp),%rax
  409241:	48 89 c6             	mov    %rax,%rsi
  409244:	bf 0c 00 00 00       	mov    $0xc,%edi
  409249:	e8 b2 89 ff ff       	callq  401c00 <_ZnwmPv>
  40924e:	48 85 c0             	test   %rax,%rax
  409251:	74 0b                	je     40925e <_ZSt10_ConstructI4areaIRS0_EEvPT_DpOT0_+0x41>
  409253:	48 89 de             	mov    %rbx,%rsi
  409256:	48 89 c7             	mov    %rax,%rdi
  409259:	e8 10 b5 ff ff       	callq  40476e <_ZN4areaC1ERKS_>
  40925e:	48 83 c4 18          	add    $0x18,%rsp
  409262:	5b                   	pop    %rbx
  409263:	5d                   	pop    %rbp
  409264:	c3                   	retq   

0000000000409265 <_ZStneIP4nodeEbRKSt13move_iteratorIT_ES6_>:
  409265:	55                   	push   %rbp
  409266:	48 89 e5             	mov    %rsp,%rbp
  409269:	48 83 ec 10          	sub    $0x10,%rsp
  40926d:	48 89 7d f8          	mov    %rdi,-0x8(%rbp)
  409271:	48 89 75 f0          	mov    %rsi,-0x10(%rbp)
  409275:	48 8b 55 f0          	mov    -0x10(%rbp),%rdx
  409279:	48 8b 45 f8          	mov    -0x8(%rbp),%rax
  40927d:	48 89 d6             	mov    %rdx,%rsi
  409280:	48 89 c7             	mov    %rax,%rdi
  409283:	e8 3b 01 00 00       	callq  4093c3 <_ZSteqIP4nodeEbRKSt13move_iteratorIT_ES6_>
  409288:	83 f0 01             	xor    $0x1,%eax
  40928b:	c9                   	leaveq 
  40928c:	c3                   	retq   
  40928d:	90                   	nop

000000000040928e <_ZNSt13move_iteratorIP4nodeEppEv>:
  40928e:	55                   	push   %rbp
  40928f:	48 89 e5             	mov    %rsp,%rbp
  409292:	48 89 7d f8          	mov    %rdi,-0x8(%rbp)
  409296:	48 8b 45 f8          	mov    -0x8(%rbp),%rax
  40929a:	48 8b 00             	mov    (%rax),%rax
  40929d:	48 8d 50 08          	lea    0x8(%rax),%rdx
  4092a1:	48 8b 45 f8          	mov    -0x8(%rbp),%rax
  4092a5:	48 89 10             	mov    %rdx,(%rax)
  4092a8:	48 8b 45 f8          	mov    -0x8(%rbp),%rax
  4092ac:	5d                   	pop    %rbp
  4092ad:	c3                   	retq   

00000000004092ae <_ZNKSt13move_iteratorIP4nodeEdeEv>:
  4092ae:	55                   	push   %rbp
  4092af:	48 89 e5             	mov    %rsp,%rbp
  4092b2:	48 83 ec 10          	sub    $0x10,%rsp
  4092b6:	48 89 7d f8          	mov    %rdi,-0x8(%rbp)
  4092ba:	48 8b 45 f8          	mov    -0x8(%rbp),%rax
  4092be:	48 8b 00             	mov    (%rax),%rax
  4092c1:	48 89 c7             	mov    %rax,%rdi
  4092c4:	e8 f2 b7 ff ff       	callq  404abb <_ZSt4moveIR4nodeEONSt16remove_referenceIT_E4typeEOS3_>
  4092c9:	c9                   	leaveq 
  4092ca:	c3                   	retq   

00000000004092cb <_ZSt10_ConstructI4nodeIS0_EEvPT_DpOT0_>:
  4092cb:	55                   	push   %rbp
  4092cc:	48 89 e5             	mov    %rsp,%rbp
  4092cf:	53                   	push   %rbx
  4092d0:	48 83 ec 18          	sub    $0x18,%rsp
  4092d4:	48 89 7d e8          	mov    %rdi,-0x18(%rbp)
  4092d8:	48 89 75 e0          	mov    %rsi,-0x20(%rbp)
  4092dc:	48 8b 45 e0          	mov    -0x20(%rbp),%rax
  4092e0:	48 89 c7             	mov    %rax,%rdi
  4092e3:	e8 b5 c3 ff ff       	callq  40569d <_ZSt7forwardI4nodeEOT_RNSt16remove_referenceIS1_E4typeE>
  4092e8:	48 89 c3             	mov    %rax,%rbx
  4092eb:	48 8b 45 e8          	mov    -0x18(%rbp),%rax
  4092ef:	48 89 c6             	mov    %rax,%rsi
  4092f2:	bf 08 00 00 00       	mov    $0x8,%edi
  4092f7:	e8 04 89 ff ff       	callq  401c00 <_ZnwmPv>
  4092fc:	48 85 c0             	test   %rax,%rax
  4092ff:	74 06                	je     409307 <_ZSt10_ConstructI4nodeIS0_EEvPT_DpOT0_+0x3c>
  409301:	48 8b 13             	mov    (%rbx),%rdx
  409304:	48 89 10             	mov    %rdx,(%rax)
  409307:	48 83 c4 18          	add    $0x18,%rsp
  40930b:	5b                   	pop    %rbx
  40930c:	5d                   	pop    %rbp
  40930d:	c3                   	retq   

000000000040930e <_ZSt12__miter_baseISt13move_iteratorIPiEENSt11_Miter_baseIT_E13iterator_typeES4_>:
  40930e:	55                   	push   %rbp
  40930f:	48 89 e5             	mov    %rsp,%rbp
  409312:	48 83 ec 10          	sub    $0x10,%rsp
  409316:	48 89 7d f0          	mov    %rdi,-0x10(%rbp)
  40931a:	48 8b 45 f0          	mov    -0x10(%rbp),%rax
  40931e:	48 89 c7             	mov    %rax,%rdi
  409321:	e8 d6 00 00 00       	callq  4093fc <_ZNSt10_Iter_baseISt13move_iteratorIPiELb1EE7_S_baseES2_>
  409326:	c9                   	leaveq 
  409327:	c3                   	retq   

0000000000409328 <_ZSt14__copy_move_a2ILb1EPiS0_ET1_T0_S2_S1_>:
  409328:	55                   	push   %rbp
  409329:	48 89 e5             	mov    %rsp,%rbp
  40932c:	41 54                	push   %r12
  40932e:	53                   	push   %rbx
  40932f:	48 83 ec 20          	sub    $0x20,%rsp
  409333:	48 89 7d e8          	mov    %rdi,-0x18(%rbp)
  409337:	48 89 75 e0          	mov    %rsi,-0x20(%rbp)
  40933b:	48 89 55 d8          	mov    %rdx,-0x28(%rbp)
  40933f:	48 8b 45 d8          	mov    -0x28(%rbp),%rax
  409343:	48 89 c7             	mov    %rax,%rdi
  409346:	e8 22 f7 ff ff       	callq  408a6d <_ZSt12__niter_baseIPiENSt11_Niter_baseIT_E13iterator_typeES2_>
  40934b:	49 89 c4             	mov    %rax,%r12
  40934e:	48 8b 45 e0          	mov    -0x20(%rbp),%rax
  409352:	48 89 c7             	mov    %rax,%rdi
  409355:	e8 13 f7 ff ff       	callq  408a6d <_ZSt12__niter_baseIPiENSt11_Niter_baseIT_E13iterator_typeES2_>
  40935a:	48 89 c3             	mov    %rax,%rbx
  40935d:	48 8b 45 e8          	mov    -0x18(%rbp),%rax
  409361:	48 89 c7             	mov    %rax,%rdi
  409364:	e8 04 f7 ff ff       	callq  408a6d <_ZSt12__niter_baseIPiENSt11_Niter_baseIT_E13iterator_typeES2_>
  409369:	4c 89 e2             	mov    %r12,%rdx
  40936c:	48 89 de             	mov    %rbx,%rsi
  40936f:	48 89 c7             	mov    %rax,%rdi
  409372:	e8 9f 00 00 00       	callq  409416 <_ZSt13__copy_move_aILb1EPiS0_ET1_T0_S2_S1_>
  409377:	48 83 c4 20          	add    $0x20,%rsp
  40937b:	5b                   	pop    %rbx
  40937c:	41 5c                	pop    %r12
  40937e:	5d                   	pop    %rbp
  40937f:	c3                   	retq   

0000000000409380 <_ZSt10__fill_n_aIPimiEN9__gnu_cxx11__enable_ifIXsrSt11__is_scalarIT1_E7__valueET_E6__typeES6_T0_RKS4_>:
  409380:	55                   	push   %rbp
  409381:	48 89 e5             	mov    %rsp,%rbp
  409384:	48 89 7d e8          	mov    %rdi,-0x18(%rbp)
  409388:	48 89 75 e0          	mov    %rsi,-0x20(%rbp)
  40938c:	48 89 55 d8          	mov    %rdx,-0x28(%rbp)
  409390:	48 8b 45 d8          	mov    -0x28(%rbp),%rax
  409394:	8b 00                	mov    (%rax),%eax
  409396:	89 45 f4             	mov    %eax,-0xc(%rbp)
  409399:	48 8b 45 e0          	mov    -0x20(%rbp),%rax
  40939d:	48 89 45 f8          	mov    %rax,-0x8(%rbp)
  4093a1:	eb 13                	jmp    4093b6 <_ZSt10__fill_n_aIPimiEN9__gnu_cxx11__enable_ifIXsrSt11__is_scalarIT1_E7__valueET_E6__typeES6_T0_RKS4_+0x36>
  4093a3:	48 8b 45 e8          	mov    -0x18(%rbp),%rax
  4093a7:	8b 55 f4             	mov    -0xc(%rbp),%edx
  4093aa:	89 10                	mov    %edx,(%rax)
  4093ac:	48 83 6d f8 01       	subq   $0x1,-0x8(%rbp)
  4093b1:	48 83 45 e8 04       	addq   $0x4,-0x18(%rbp)
  4093b6:	48 83 7d f8 00       	cmpq   $0x0,-0x8(%rbp)
  4093bb:	75 e6                	jne    4093a3 <_ZSt10__fill_n_aIPimiEN9__gnu_cxx11__enable_ifIXsrSt11__is_scalarIT1_E7__valueET_E6__typeES6_T0_RKS4_+0x23>
  4093bd:	48 8b 45 e8          	mov    -0x18(%rbp),%rax
  4093c1:	5d                   	pop    %rbp
  4093c2:	c3                   	retq   

00000000004093c3 <_ZSteqIP4nodeEbRKSt13move_iteratorIT_ES6_>:
  4093c3:	55                   	push   %rbp
  4093c4:	48 89 e5             	mov    %rsp,%rbp
  4093c7:	53                   	push   %rbx
  4093c8:	48 83 ec 18          	sub    $0x18,%rsp
  4093cc:	48 89 7d e8          	mov    %rdi,-0x18(%rbp)
  4093d0:	48 89 75 e0          	mov    %rsi,-0x20(%rbp)
  4093d4:	48 8b 45 e8          	mov    -0x18(%rbp),%rax
  4093d8:	48 89 c7             	mov    %rax,%rdi
  4093db:	e8 68 00 00 00       	callq  409448 <_ZNKSt13move_iteratorIP4nodeE4baseEv>
  4093e0:	48 89 c3             	mov    %rax,%rbx
  4093e3:	48 8b 45 e0          	mov    -0x20(%rbp),%rax
  4093e7:	48 89 c7             	mov    %rax,%rdi
  4093ea:	e8 59 00 00 00       	callq  409448 <_ZNKSt13move_iteratorIP4nodeE4baseEv>
  4093ef:	48 39 c3             	cmp    %rax,%rbx
  4093f2:	0f 94 c0             	sete   %al
  4093f5:	48 83 c4 18          	add    $0x18,%rsp
  4093f9:	5b                   	pop    %rbx
  4093fa:	5d                   	pop    %rbp
  4093fb:	c3                   	retq   

00000000004093fc <_ZNSt10_Iter_baseISt13move_iteratorIPiELb1EE7_S_baseES2_>:
  4093fc:	55                   	push   %rbp
  4093fd:	48 89 e5             	mov    %rsp,%rbp
  409400:	48 83 ec 10          	sub    $0x10,%rsp
  409404:	48 89 7d f0          	mov    %rdi,-0x10(%rbp)
  409408:	48 8d 45 f0          	lea    -0x10(%rbp),%rax
  40940c:	48 89 c7             	mov    %rax,%rdi
  40940f:	e8 46 00 00 00       	callq  40945a <_ZNKSt13move_iteratorIPiE4baseEv>
  409414:	c9                   	leaveq 
  409415:	c3                   	retq   

0000000000409416 <_ZSt13__copy_move_aILb1EPiS0_ET1_T0_S2_S1_>:
  409416:	55                   	push   %rbp
  409417:	48 89 e5             	mov    %rsp,%rbp
  40941a:	48 83 ec 30          	sub    $0x30,%rsp
  40941e:	48 89 7d e8          	mov    %rdi,-0x18(%rbp)
  409422:	48 89 75 e0          	mov    %rsi,-0x20(%rbp)
  409426:	48 89 55 d8          	mov    %rdx,-0x28(%rbp)
  40942a:	c6 45 ff 01          	movb   $0x1,-0x1(%rbp)
  40942e:	48 8b 55 d8          	mov    -0x28(%rbp),%rdx
  409432:	48 8b 4d e0          	mov    -0x20(%rbp),%rcx
  409436:	48 8b 45 e8          	mov    -0x18(%rbp),%rax
  40943a:	48 89 ce             	mov    %rcx,%rsi
  40943d:	48 89 c7             	mov    %rax,%rdi
  409440:	e8 26 00 00 00       	callq  40946b <_ZNSt11__copy_moveILb1ELb1ESt26random_access_iterator_tagE8__copy_mIiEEPT_PKS3_S6_S4_>
  409445:	c9                   	leaveq 
  409446:	c3                   	retq   
  409447:	90                   	nop

0000000000409448 <_ZNKSt13move_iteratorIP4nodeE4baseEv>:
  409448:	55                   	push   %rbp
  409449:	48 89 e5             	mov    %rsp,%rbp
  40944c:	48 89 7d f8          	mov    %rdi,-0x8(%rbp)
  409450:	48 8b 45 f8          	mov    -0x8(%rbp),%rax
  409454:	48 8b 00             	mov    (%rax),%rax
  409457:	5d                   	pop    %rbp
  409458:	c3                   	retq   
  409459:	90                   	nop

000000000040945a <_ZNKSt13move_iteratorIPiE4baseEv>:
  40945a:	55                   	push   %rbp
  40945b:	48 89 e5             	mov    %rsp,%rbp
  40945e:	48 89 7d f8          	mov    %rdi,-0x8(%rbp)
  409462:	48 8b 45 f8          	mov    -0x8(%rbp),%rax
  409466:	48 8b 00             	mov    (%rax),%rax
  409469:	5d                   	pop    %rbp
  40946a:	c3                   	retq   

000000000040946b <_ZNSt11__copy_moveILb1ELb1ESt26random_access_iterator_tagE8__copy_mIiEEPT_PKS3_S6_S4_>:
  40946b:	55                   	push   %rbp
  40946c:	48 89 e5             	mov    %rsp,%rbp
  40946f:	48 83 ec 30          	sub    $0x30,%rsp
  409473:	48 89 7d e8          	mov    %rdi,-0x18(%rbp)
  409477:	48 89 75 e0          	mov    %rsi,-0x20(%rbp)
  40947b:	48 89 55 d8          	mov    %rdx,-0x28(%rbp)
  40947f:	48 8b 55 e0          	mov    -0x20(%rbp),%rdx
  409483:	48 8b 45 e8          	mov    -0x18(%rbp),%rax
  409487:	48 29 c2             	sub    %rax,%rdx
  40948a:	48 89 d0             	mov    %rdx,%rax
  40948d:	48 c1 f8 02          	sar    $0x2,%rax
  409491:	48 89 45 f8          	mov    %rax,-0x8(%rbp)
  409495:	48 83 7d f8 00       	cmpq   $0x0,-0x8(%rbp)
  40949a:	74 1f                	je     4094bb <_ZNSt11__copy_moveILb1ELb1ESt26random_access_iterator_tagE8__copy_mIiEEPT_PKS3_S6_S4_+0x50>
  40949c:	48 8b 45 f8          	mov    -0x8(%rbp),%rax
  4094a0:	48 8d 14 85 00 00 00 	lea    0x0(,%rax,4),%rdx
  4094a7:	00 
  4094a8:	48 8b 4d e8          	mov    -0x18(%rbp),%rcx
  4094ac:	48 8b 45 d8          	mov    -0x28(%rbp),%rax
  4094b0:	48 89 ce             	mov    %rcx,%rsi
  4094b3:	48 89 c7             	mov    %rax,%rdi
  4094b6:	e8 05 7c ff ff       	callq  4010c0 <memmove@plt>
  4094bb:	48 8b 45 f8          	mov    -0x8(%rbp),%rax
  4094bf:	48 8d 14 85 00 00 00 	lea    0x0(,%rax,4),%rdx
  4094c6:	00 
  4094c7:	48 8b 45 d8          	mov    -0x28(%rbp),%rax
  4094cb:	48 01 d0             	add    %rdx,%rax
  4094ce:	c9                   	leaveq 
  4094cf:	c3                   	retq   

00000000004094d0 <__libc_csu_init>:
  4094d0:	41 57                	push   %r15
  4094d2:	41 89 ff             	mov    %edi,%r15d
  4094d5:	41 56                	push   %r14
  4094d7:	49 89 f6             	mov    %rsi,%r14
  4094da:	41 55                	push   %r13
  4094dc:	49 89 d5             	mov    %rdx,%r13
  4094df:	41 54                	push   %r12
  4094e1:	4c 8d 25 08 49 20 00 	lea    0x204908(%rip),%r12        # 60ddf0 <__frame_dummy_init_array_entry>
  4094e8:	55                   	push   %rbp
  4094e9:	48 8d 2d 08 49 20 00 	lea    0x204908(%rip),%rbp        # 60ddf8 <__init_array_end>
  4094f0:	53                   	push   %rbx
  4094f1:	4c 29 e5             	sub    %r12,%rbp
  4094f4:	31 db                	xor    %ebx,%ebx
  4094f6:	48 c1 fd 03          	sar    $0x3,%rbp
  4094fa:	48 83 ec 08          	sub    $0x8,%rsp
  4094fe:	e8 fd 79 ff ff       	callq  400f00 <_init>
  409503:	48 85 ed             	test   %rbp,%rbp
  409506:	74 1e                	je     409526 <__libc_csu_init+0x56>
  409508:	0f 1f 84 00 00 00 00 	nopl   0x0(%rax,%rax,1)
  40950f:	00 
  409510:	4c 89 ea             	mov    %r13,%rdx
  409513:	4c 89 f6             	mov    %r14,%rsi
  409516:	44 89 ff             	mov    %r15d,%edi
  409519:	41 ff 14 dc          	callq  *(%r12,%rbx,8)
  40951d:	48 83 c3 01          	add    $0x1,%rbx
  409521:	48 39 eb             	cmp    %rbp,%rbx
  409524:	75 ea                	jne    409510 <__libc_csu_init+0x40>
  409526:	48 83 c4 08          	add    $0x8,%rsp
  40952a:	5b                   	pop    %rbx
  40952b:	5d                   	pop    %rbp
  40952c:	41 5c                	pop    %r12
  40952e:	41 5d                	pop    %r13
  409530:	41 5e                	pop    %r14
  409532:	41 5f                	pop    %r15
  409534:	c3                   	retq   
  409535:	66 66 2e 0f 1f 84 00 	data32 nopw %cs:0x0(%rax,%rax,1)
  40953c:	00 00 00 00 

0000000000409540 <__libc_csu_fini>:
  409540:	f3 c3                	repz retq 

Disassembly of section .fini:

0000000000409544 <_fini>:
  409544:	48 83 ec 08          	sub    $0x8,%rsp
  409548:	48 83 c4 08          	add    $0x8,%rsp
  40954c:	c3                   	retq   
